C51 COMPILER V8.06   ADAPTER                                                               03/17/2026 10:18:46 PAGE 1   


C51 COMPILER V8.06, COMPILATION OF MODULE ADAPTER
OBJECT MODULE PLACED IN adapter.obj
COMPILER INVOKED BY: C:\Keil\C51\BIN\C51.EXE src\adapter\adapter.c LARGE OMF2 ROM(D16M) OPTIMIZE(0,SPEED) BROWSE INTVECT
                    -OR(0X6020) INCDIR(.\src\cpu\;.\src\ethernet;.\src\swdma\;.\src\mstimer\;.\src\uart\;.\src\main\;.\src\tcpip\;.\src\hsur\
                    -;.\src\gs2e\;.\src\debug\;.\src\dhcp;.\src\dns\;.\src\adapter\;.\src\pppoe\;.\src\console;.\src\telnet;.\src\smtp;.\src\
                    -http;.\src\web_page;.\src\si2c;.\src\eeprom;.\src\ping;.\src\fpga;.\src\menu;.\src\spi) DEFINE(RuntimeCodeAt24KH) VARBAN
                    -KING DEBUG CODE LISTINCLUDE SYMBOLS PRINT(.\adapter.lst) OBJECT(adapter.obj)

line level    source

   1          // ============================================================================
   2          //     Copyright (c) 2006       ASIX Electronic Corporation      All rights reserved.
   3          //
   4          //     This is unpublished proprietary source code of ASIX Electronic Corporation
   5          //
   6          //     The copyright notice above does not evidence any actual or intended
   7          //     publication of such source code.
   8          // ============================================================================
   9          //
  10          // ============================================================================
  11          // Module Name: adapter.c
  12          // Purpose:
  13          // Author:
  14          // Date:
  15          // Notes:
  16          // $Log: adapter.c,v $
  17          // ============================================================================
  18          
  19          // INCLUDE FILE DECLARATIONS //
  20          #include "adapter.h"
   1      =1  //----------------------------------------------------------------------------------------
   2      =1  //     Copyright (c) 2006       ASIX Electronic Corporation      All rights reserved.
   3      =1  //
   4      =1  //     This is unpublished proprietary source code of ASIX Electronic Corporation
   5      =1  //
   6      =1  //     The copyright notice above does not evidence any actual or intended
   7      =1  //     publication of such source code.
   8      =1  //----------------------------------------------------------------------------------------
   9      =1  // Module Name:adapter.h
  10      =1  // Purpose:
  11      =1  // Author:
  12      =1  // Date:
  13      =1  // Notes:
  14      =1  // $Log: adapter.h,v $
  15      =1  //----------------------------------------------------------------------------------------
  16      =1  
  17      =1  #ifndef __ADAPTER_H__
  18      =1  #define __ADAPTER_H__
  19      =1  
  20      =1  // INCLUDE FILE DECLARATIONS //
  21      =1  #include "types.h"
   1      =2  //----------------------------------------------------------------------------------------
   2      =2  //     Copyright (c) 2005       Simtek, Incorporated      All rights reserved.
   3      =2  //
   4      =2  //     This is unpublished proprietary source code of Simtek, Inc
   5      =2  //
   6      =2  //     The copyright notice above does not evidence any actual or intended
   7      =2  //     publication of such source code.
   8      =2  //----------------------------------------------------------------------------------------
   9      =2  // Module Name : types.h
  10      =2  // Purpose     : Definition of type.
C51 COMPILER V8.06   ADAPTER                                                               03/17/2026 10:18:46 PAGE 2   

  11      =2  // Author      : Robin Lee
  12      =2  // Date        : 2005-12-28
  13      =2  // Notes       : None.
  14      =2  // $Log: types.h,v $
  15      =2  //----------------------------------------------------------------------------------------
  16      =2  // Revision 1.2  2006/05/18 05:02:30  Louis
  17      =2  // no message
  18      =2  //----------------------------------------------------------------------------------------
  19      =2  // Revision 1.1  2006/04/07 11:36:17  robin6633
  20      =2  // no message
  21      =2  //----------------------------------------------------------------------------------------
  22      =2  
  23      =2  #ifndef TYPES_H
  24      =2  #define TYPES_H
  25      =2  
  26      =2  typedef unsigned short int          bool;                                                 // boolean
  27      =2  typedef unsigned char               byte;                                                 //  8-bit unsign
             -ed
  28      =2  typedef unsigned short int          uint;                                                 // 16-bit unsign
             -ed
  29      =2  typedef short int                   sint;                                                 // 16-bit signed
  30      =2  typedef unsigned long               ulong;                                                // 32-bit unsign
             -ed
  31      =2  typedef unsigned short int          word;                                                 // 16-bit unsign
             -ed
  32      =2  
  33      =2  #ifndef NULL
  34      =2    #define NULL ((void *) 0L)
  35      =2  #endif
  36      =2  
  37      =2  #define TRUE                  1
  38      =2  #define FALSE                 0
  39      =2  #define ON                    1
  40      =2  #define OFF                   0
  41      =2  #define Client                1
  42      =2  #define Server                0
  43      =2  
  44      =2  // Bit Definitions for Bitwise Operation //
  45      =2  #define BIT0            0x01
  46      =2  #define BIT1            0x02
  47      =2  #define BIT2            0x04
  48      =2  #define BIT3            0x08
  49      =2  #define BIT4            0x10
  50      =2  #define BIT5            0x20
  51      =2  #define BIT6            0x40
  52      =2  #define BIT7            0x80
  53      =2  #define BIT8            0x0100
  54      =2  #define BIT9            0x0200
  55      =2  #define BIT10           0x0400
  56      =2  #define BIT11           0x0800
  57      =2  #define BIT12           0x1000
  58      =2  #define BIT13           0x2000
  59      =2  #define BIT14           0x4000
  60      =2  #define BIT15           0x8000
  61      =2  #define BIT16           0x00010000
  62      =2  #define BIT17           0x00020000
  63      =2  #define BIT18           0x00040000
  64      =2  #define BIT19           0x00080000
  65      =2  #define BIT20           0x00100000
  66      =2  #define BIT21           0x00200000
  67      =2  #define BIT22           0x00400000
  68      =2  #define BIT23           0x00800000
C51 COMPILER V8.06   ADAPTER                                                               03/17/2026 10:18:46 PAGE 3   

  69      =2  #define BIT24           0x01000000
  70      =2  #define BIT25           0x02000000
  71      =2  #define BIT26           0x04000000
  72      =2  #define BIT27           0x08000000
  73      =2  #define BIT28           0x10000000
  74      =2  #define BIT29           0x20000000
  75      =2  #define BIT30           0x40000000
  76      =2  #define BIT31           0x80000000
  77      =2  
  78      =2  #define LOW_BYTE(dat)   (byte) (dat & 0x00FF)
  79      =2  #define HIGH_BYTE(dat)  (byte)((dat & 0xFF00) >> 8)
  80      =2  
  81      =2  #define U32BYTE0(dat)   (byte) (dat  & 0x000000FF)
  82      =2  #define U32BYTE1(dat)   (byte)((dat  & 0x0000FF00) >> 8)
  83      =2  #define U32BYTE2(dat)   (byte)((dat  & 0x00FF0000) >> 16)
  84      =2  #define U32BYTE3(dat)   (byte)((dat  & 0xFF000000) >> 24)
  85      =2   
  86      =2  // Keil compiler user define //
  87      =2  #define     KEIL_CPL
  88      =2  
  89      =2  #ifdef KEIL_CPL
  90      =2   #define XDATA    xdata
  91      =2   #define IDATA    idata
  92      =2   #define BDATA    bdata
  93      =2   #define CODE     code
  94      =2   #define FAR      far
  95      =2  #else
           =2  #define XDATA
           =2  #define IDATA
           =2  #define BDATA
           =2  #define CODE
           =2  #define FAR
           =2 #endif
 102      =2  
 103      =2  // Serial interface command direction //
 104      =2  #define     SI_WR                   BIT0
 105      =2  #define     SI_RD                   BIT1
 106      =2  
 107      =2  #define     FLASH_WR_ENB            (PCON |= PWE_)
 108      =2  #define     FLASH_WR_DISB           (PCON &= ~PWE_)
 109      =2  
 110      =2  #endif  // end of TYPES_H //
  22      =1  #include "adapter_cfg.h"
   1      =2  /*
   2      =2   ******************************************************************************
   3      =2   *     Copyright (c) 2006       ASIX Electronic Corporation      All rights reserved.
   4      =2   *
   5      =2   *     This is unpublished proprietary source code of ASIX Electronic Corporation
   6      =2   *
   7      =2   *     The copyright notice above does not evidence any actual or intended
   8      =2   *     publication of such source code.
   9      =2   ******************************************************************************
  10      =2   */
  11      =2  /*=============================================================================
  12      =2   * Module Name:adapter_cfg.h
  13      =2   * Purpose:
  14      =2   * Author:
  15      =2   * Date:
  16      =2   * Notes:
  17      =2   * $Log: adapter_cfg.h,v $
  18      =2   *=============================================================================
  19      =2   */
C51 COMPILER V8.06   ADAPTER                                                               03/17/2026 10:18:46 PAGE 4   

  20      =2  
  21      =2  #ifndef __ADAPTER_CFG_H__
  22      =2  #define __ADAPTER_CFG_H__
  23      =2  
  24      =2  
  25      =2  /*-------------------------------------------------------------*/
  26      =2  /* NAMING CONSTANT DECLARATIONS */
  27      =2  #define ETH_PHY_AUTO_NEGOTIATION        0
  28      =2  #define ETH_PHY_FIXED_100_FULL          1
  29      =2  #define ETH_PHY_FIXED_100_HALF          2
  30      =2  #define ETH_PHY_FIXED_10_FULL           3
  31      =2  #define ETH_PHY_FIXED_10_HALF           4
  32      =2  #define ETH_PHY_FORCE_EMBEDDED_PHY_10_HALF      5       // Force the embedded Ethernet PHY to operate in 10Mbps half-
             -duplex mode.
  33      =2                                                                                                  // The EEPROM address 0x01(Flag) BIT-0 must be set to 1.           
  34      =2  
  35      =2  #define ETH_PHY_SENSE_TYPE              (ETH_PHY_AUTO_NEGOTIATION)
  36      =2  
  37      =2  /*-------------------------------------------------------------*/
  38      =2  
  39      =2  
  40      =2  #endif /* End of __ADAPTER_CFG_H__ */
  41      =2  
  42      =2  
  43      =2  /* End of adapter_cfg.h */
  23      =1  #include "stoe_cfg.h"
   1      =2  //========================================================================================
   2      =2  //     Copyright (c) 2006     ASIX Electronic Corporation      All rights reserved.
   3      =2  //
   4      =2  //     This is unpublished proprietary source code of ASIX Electronic Corporation
   5      =2  //
   6      =2  //     The copyright notice above does not evidence any actual or intended
   7      =2  //     publication of such source code.
   8      =2  //========================================================================================
   9      =2  // Module Name    : stoe_cfg.h
  10      =2  // Purpose        : 
  11      =2  // Author         :
  12      =2  // Date           :
  13      =2  // Notes          :
  14      =2  // $Log           : stoe_cfg.h,v $
  15      =2  //~~~~~~~~~~~~~~~~~~~~~~~~~~~~~~~~~~~~~~~~~~~~~~~~~~~~~~~~~~~~~~~~~~~~~~~~~~~~~~~~~~~~~~~~
  16      =2  // Revision 1.2      2006/07/25 05:32:12  borbin
  17      =2  // no message
  18      =2  //~~~~~~~~~~~~~~~~~~~~~~~~~~~~~~~~~~~~~~~~~~~~~~~~~~~~~~~~~~~~~~~~~~~~~~~~~~~~~~~~~~~~~~~~
  19      =2  // Revision 1.1.1.1  2006/06/20 05:50:28  borbin
  20      =2  // no message
  21      =2  //~~~~~~~~~~~~~~~~~~~~~~~~~~~~~~~~~~~~~~~~~~~~~~~~~~~~~~~~~~~~~~~~~~~~~~~~~~~~~~~~~~~~~~~~
  22      =2  //========================================================================================
  23      =2  //
  24      =2  #ifndef __STOE_CFG_H__
  25      =2  #define __STOE_CFG_H__
  26      =2  //          INCLUDE FILE DECLARATIONS                                                     //
  27      =2  //----------------------------------------------------------------------------------------
  28      =2  #define PAGES_OF_XMIT                           8                                         // pages. 2k // 
             -//16     // pages, 4k //
  29      =2  #define PAGES_OF_RCV                            16                                        // pages. 4k // 
             -//24  // pages, 6k //
  30      =2  //----------------------------------------------------------------------------------------
  31      =2  #define STOE_ARP_TIMEOUT                        16                                        // hardware arp 
             -table timeout is 128 sec. //
  32      =2  //----------------------------------------------------------------------------------------
  33      =2  //          NAMING CONSTANT DECLARATIONS                                                  //
C51 COMPILER V8.06   ADAPTER                                                               03/17/2026 10:18:46 PAGE 5   

  34      =2  //----------------------------------------------------------------------------------------
  35      =2  #define STOE_HW_CHECKSUN_DISABLE                0                                         //    0: disable
             - stoe checksum offload engine //
  36      =2  #define STOE_HW_CHECKSUN_ENABLE                 1                                         //    1: enable 
             -stoe checksum offload engine. //
  37      =2  #define STOE_CHECKSUM_OFFLOAD                   (STOE_HW_CHECKSUN_ENABLE)                 //
  38      =2  //----------------------------------------------------------------------------------------
  39      =2  #endif                                    //    End of __STOE_CFG_H__         //
  40      =2  // End of stoe_cfg.h //
  24      =1  
  25      =1  // NAMING CONSTANT DECLARATIONS //
  26      =1  #define ETH_STOP_ARP_REQUEST_TO_GATEWAY_AFTER_REPLY                     1
  27      =1  #define ETH_CONTINUE_ARP_REQUEST_TO_GATEWAY_AFTER_REPLY         0
  28      =1  
  29      =1  // GLOBAL VARIABLES //
  30      =1  extern byte ETH_IsPppoe;
  31      =1  extern byte ETH_DoDhcp;
  32      =1  extern byte ETH_PppoeHeaderLen;
  33      =1  extern byte ETH_DhcpArpReply;
  34      =1  #define ETH_GetPppoeFlag() (ETH_IsPppoe)
  35      =1  #define ETH_SetPppoeFlag(a) (ETH_IsPppoe = a)
  36      =1  #define ETH_GetDhcpFlag() (ETH_DoDhcp)
  37      =1  #define ETH_SetDhcpFlag(a) (ETH_DoDhcp = a)
  38      =1  #define ETH_GetPppoeHeaderLen() (ETH_PppoeHeaderLen)
  39      =1  #define ETH_SetPppoeHeaderLen(a) (ETH_PppoeHeaderLen = a)
  40      =1  #define ETH_SetDhcpArpReplyFlag(a) (ETH_DhcpArpReply = a)
  41      =1  #define ETH_CheckDhcpArpReply() (ETH_DhcpArpReply)
  42      =1  
  43      =1  // EXPORTED SUBPROGRAM SPECIFICATIONS //
  44      =1  //-------------------------------------------------------------//
  45      =1  void ETH_Init(void);
  46      =1  void ETH_Start(void);
  47      =1  void ETH_Send(uint);
  48      =1  void ETH_SendPkt(byte XDATA*, uint);
  49      =1  void ETH_SendArpToGateway(bool);
  50      =1  void ETH_SendArpRequest(ulong dstIp);
  51      =1  void ETH_RestartSendArpToGateway(void);
  52      =1  void ETH_SendDhcpArpRequest(void);
  53      =1  #endif // End of __ADAPTER_H__ //
  54      =1  
  55      =1  // End of adapter.h //
  21          #include "stoe.h"
   1      =1  //=============================================================================
   2      =1  //     Copyright (c) 2006       ASIX Electronic Corporation      All rights reserved.
   3      =1  //
   4      =1  //     This is unpublished proprietary source code of ASIX Electronic Corporation
   5      =1  //
   6      =1  //     The copyright notice above does not evidence any actual or intended
   7      =1  //     publication of such source code.
   8      =1  //=============================================================================
   9      =1  // Module Name: stoe.h
  10      =1  // Purpose:
  11      =1  // Author:
  12      =1  // Date:
  13      =1  // Notes:
  14      =1  // $Log: stoe.h,v $
  15      =1  // Revision 1.1.1.1  2006/06/20 05:50:28  borbin
  16      =1  // no message
  17      =1  //=============================================================================
  18      =1  
  19      =1  #ifndef __STOE_H__
  20      =1  #define __STOE_H__
C51 COMPILER V8.06   ADAPTER                                                               03/17/2026 10:18:46 PAGE 6   

  21      =1  
  22      =1  
  23      =1  // INCLUDE FILE DECLARATIONS //
  24      =1  #include "types.h"
   1      =2  //----------------------------------------------------------------------------------------
   2      =2  //     Copyright (c) 2005       Simtek, Incorporated      All rights reserved.
   3      =2  //
   4      =2  //     This is unpublished proprietary source code of Simtek, Inc
   5      =2  //
   6      =2  //     The copyright notice above does not evidence any actual or intended
   7      =2  //     publication of such source code.
   8      =2  //----------------------------------------------------------------------------------------
   9      =2  // Module Name : types.h
  10      =2  // Purpose     : Definition of type.
  11      =2  // Author      : Robin Lee
  12      =2  // Date        : 2005-12-28
  13      =2  // Notes       : None.
  14      =2  // $Log: types.h,v $
  15      =2  //----------------------------------------------------------------------------------------
  16      =2  // Revision 1.2  2006/05/18 05:02:30  Louis
  17      =2  // no message
  18      =2  //----------------------------------------------------------------------------------------
  19      =2  // Revision 1.1  2006/04/07 11:36:17  robin6633
  20      =2  // no message
  21      =2  //----------------------------------------------------------------------------------------
  22      =2  
  23      =2  #ifndef TYPES_H
           =2 #define TYPES_H
           =2 
           =2 typedef unsigned short int          bool;                                                 // boolean
           =2 typedef unsigned char               byte;                                                 //  8-bit unsign
             -ed
           =2 typedef unsigned short int          uint;                                                 // 16-bit unsign
             -ed
           =2 typedef short int                   sint;                                                 // 16-bit signed
           =2 typedef unsigned long               ulong;                                                // 32-bit unsign
             -ed
           =2 typedef unsigned short int          word;                                                 // 16-bit unsign
             -ed
           =2 
           =2 #ifndef NULL
           =2   #define NULL ((void *) 0L)
           =2 #endif
           =2 
           =2 #define TRUE                  1
           =2 #define FALSE                 0
           =2 #define ON                    1
           =2 #define OFF                   0
           =2 #define Client                1
           =2 #define Server                0
           =2 
           =2 // Bit Definitions for Bitwise Operation //
           =2 #define BIT0            0x01
           =2 #define BIT1            0x02
           =2 #define BIT2            0x04
           =2 #define BIT3            0x08
           =2 #define BIT4            0x10
           =2 #define BIT5            0x20
           =2 #define BIT6            0x40
           =2 #define BIT7            0x80
           =2 #define BIT8            0x0100
           =2 #define BIT9            0x0200
C51 COMPILER V8.06   ADAPTER                                                               03/17/2026 10:18:46 PAGE 7   

           =2 #define BIT10           0x0400
           =2 #define BIT11           0x0800
           =2 #define BIT12           0x1000
           =2 #define BIT13           0x2000
           =2 #define BIT14           0x4000
           =2 #define BIT15           0x8000
           =2 #define BIT16           0x00010000
           =2 #define BIT17           0x00020000
           =2 #define BIT18           0x00040000
           =2 #define BIT19           0x00080000
           =2 #define BIT20           0x00100000
           =2 #define BIT21           0x00200000
           =2 #define BIT22           0x00400000
           =2 #define BIT23           0x00800000
           =2 #define BIT24           0x01000000
           =2 #define BIT25           0x02000000
           =2 #define BIT26           0x04000000
           =2 #define BIT27           0x08000000
           =2 #define BIT28           0x10000000
           =2 #define BIT29           0x20000000
           =2 #define BIT30           0x40000000
           =2 #define BIT31           0x80000000
           =2 
           =2 #define LOW_BYTE(dat)   (byte) (dat & 0x00FF)
           =2 #define HIGH_BYTE(dat)  (byte)((dat & 0xFF00) >> 8)
           =2 
           =2 #define U32BYTE0(dat)   (byte) (dat  & 0x000000FF)
           =2 #define U32BYTE1(dat)   (byte)((dat  & 0x0000FF00) >> 8)
           =2 #define U32BYTE2(dat)   (byte)((dat  & 0x00FF0000) >> 16)
           =2 #define U32BYTE3(dat)   (byte)((dat  & 0xFF000000) >> 24)
           =2  
           =2 // Keil compiler user define //
           =2 #define     KEIL_CPL
           =2 
           =2 #ifdef KEIL_CPL
           =2  #define XDATA    xdata
           =2  #define IDATA    idata
           =2  #define BDATA    bdata
           =2  #define CODE     code
           =2  #define FAR      far
           =2 #else
           =2  #define XDATA
           =2  #define IDATA
           =2  #define BDATA
           =2  #define CODE
           =2  #define FAR
           =2 #endif
           =2 
           =2 // Serial interface command direction //
           =2 #define     SI_WR                   BIT0
           =2 #define     SI_RD                   BIT1
           =2 
           =2 #define     FLASH_WR_ENB            (PCON |= PWE_)
           =2 #define     FLASH_WR_DISB           (PCON &= ~PWE_)
           =2 
           =2 #endif  // end of TYPES_H //
  25      =1  #include "stoe_cfg.h"
   1      =2  //========================================================================================
   2      =2  //     Copyright (c) 2006     ASIX Electronic Corporation      All rights reserved.
   3      =2  //
   4      =2  //     This is unpublished proprietary source code of ASIX Electronic Corporation
   5      =2  //
C51 COMPILER V8.06   ADAPTER                                                               03/17/2026 10:18:46 PAGE 8   

   6      =2  //     The copyright notice above does not evidence any actual or intended
   7      =2  //     publication of such source code.
   8      =2  //========================================================================================
   9      =2  // Module Name    : stoe_cfg.h
  10      =2  // Purpose        : 
  11      =2  // Author         :
  12      =2  // Date           :
  13      =2  // Notes          :
  14      =2  // $Log           : stoe_cfg.h,v $
  15      =2  //~~~~~~~~~~~~~~~~~~~~~~~~~~~~~~~~~~~~~~~~~~~~~~~~~~~~~~~~~~~~~~~~~~~~~~~~~~~~~~~~~~~~~~~~
  16      =2  // Revision 1.2      2006/07/25 05:32:12  borbin
  17      =2  // no message
  18      =2  //~~~~~~~~~~~~~~~~~~~~~~~~~~~~~~~~~~~~~~~~~~~~~~~~~~~~~~~~~~~~~~~~~~~~~~~~~~~~~~~~~~~~~~~~
  19      =2  // Revision 1.1.1.1  2006/06/20 05:50:28  borbin
  20      =2  // no message
  21      =2  //~~~~~~~~~~~~~~~~~~~~~~~~~~~~~~~~~~~~~~~~~~~~~~~~~~~~~~~~~~~~~~~~~~~~~~~~~~~~~~~~~~~~~~~~
  22      =2  //========================================================================================
  23      =2  //
  24      =2  #ifndef __STOE_CFG_H__
           =2 #define __STOE_CFG_H__
           =2 //          INCLUDE FILE DECLARATIONS                                                     //
           =2 //----------------------------------------------------------------------------------------
           =2 #define PAGES_OF_XMIT                           8                                         // pages. 2k // 
             -//16     // pages, 4k //
           =2 #define PAGES_OF_RCV                            16                                        // pages. 4k // 
             -//24  // pages, 6k //
           =2 //----------------------------------------------------------------------------------------
           =2 #define STOE_ARP_TIMEOUT                        16                                        // hardware arp 
             -table timeout is 128 sec. //
           =2 //----------------------------------------------------------------------------------------
           =2 //          NAMING CONSTANT DECLARATIONS                                                  //
           =2 //----------------------------------------------------------------------------------------
           =2 #define STOE_HW_CHECKSUN_DISABLE                0                                         //    0: disable
             - stoe checksum offload engine //
           =2 #define STOE_HW_CHECKSUN_ENABLE                 1                                         //    1: enable 
             -stoe checksum offload engine. //
           =2 #define STOE_CHECKSUM_OFFLOAD                   (STOE_HW_CHECKSUN_ENABLE)                 //
           =2 //----------------------------------------------------------------------------------------
           =2 #endif                                    //    End of __STOE_CFG_H__         //
  40      =2  // End of stoe_cfg.h //
  26      =1  #include "mac.h"
   1      =2  //----------------------------------------------------------------------------------------
   2      =2  //     Copyright (c) 2006     ASIX Electronic Corporation      All rights reserved.
   3      =2  //
   4      =2  //     This is unpublished proprietary source code of ASIX Electronic Corporation
   5      =2  //
   6      =2  //     The copyright notice above does not evidence any actual or intended
   7      =2  //     publication of such source code.
   8      =2  //----------------------------------------------------------------------------------------
   9      =2  // Module Name: mac.h
  10      =2  // Purpose:
  11      =2  // Author:
  12      =2  // Date:
  13      =2  // Notes:
  14      =2  // $Log: mac.h,v $
  15      =2  //----------------------------------------------------------------------------------------
  16      =2  // Revision 1.1.1.1  2006/06/20 05:50:28  borbin
  17      =2  // no message
  18      =2  //----------------------------------------------------------------------------------------
  19      =2  
  20      =2  #ifndef __MAC_H__
  21      =2  #define __MAC_H__
C51 COMPILER V8.06   ADAPTER                                                               03/17/2026 10:18:46 PAGE 9   

  22      =2  
  23      =2  // INCLUDE FILE DECLARATIONS //
  24      =2  #include "types.h"
   1      =3  //----------------------------------------------------------------------------------------
   2      =3  //     Copyright (c) 2005       Simtek, Incorporated      All rights reserved.
   3      =3  //
   4      =3  //     This is unpublished proprietary source code of Simtek, Inc
   5      =3  //
   6      =3  //     The copyright notice above does not evidence any actual or intended
   7      =3  //     publication of such source code.
   8      =3  //----------------------------------------------------------------------------------------
   9      =3  // Module Name : types.h
  10      =3  // Purpose     : Definition of type.
  11      =3  // Author      : Robin Lee
  12      =3  // Date        : 2005-12-28
  13      =3  // Notes       : None.
  14      =3  // $Log: types.h,v $
  15      =3  //----------------------------------------------------------------------------------------
  16      =3  // Revision 1.2  2006/05/18 05:02:30  Louis
  17      =3  // no message
  18      =3  //----------------------------------------------------------------------------------------
  19      =3  // Revision 1.1  2006/04/07 11:36:17  robin6633
  20      =3  // no message
  21      =3  //----------------------------------------------------------------------------------------
  22      =3  
  23      =3  #ifndef TYPES_H
           =3 #define TYPES_H
           =3 
           =3 typedef unsigned short int          bool;                                                 // boolean
           =3 typedef unsigned char               byte;                                                 //  8-bit unsign
             -ed
           =3 typedef unsigned short int          uint;                                                 // 16-bit unsign
             -ed
           =3 typedef short int                   sint;                                                 // 16-bit signed
           =3 typedef unsigned long               ulong;                                                // 32-bit unsign
             -ed
           =3 typedef unsigned short int          word;                                                 // 16-bit unsign
             -ed
           =3 
           =3 #ifndef NULL
           =3   #define NULL ((void *) 0L)
           =3 #endif
           =3 
           =3 #define TRUE                  1
           =3 #define FALSE                 0
           =3 #define ON                    1
           =3 #define OFF                   0
           =3 #define Client                1
           =3 #define Server                0
           =3 
           =3 // Bit Definitions for Bitwise Operation //
           =3 #define BIT0            0x01
           =3 #define BIT1            0x02
           =3 #define BIT2            0x04
           =3 #define BIT3            0x08
           =3 #define BIT4            0x10
           =3 #define BIT5            0x20
           =3 #define BIT6            0x40
           =3 #define BIT7            0x80
           =3 #define BIT8            0x0100
           =3 #define BIT9            0x0200
           =3 #define BIT10           0x0400
C51 COMPILER V8.06   ADAPTER                                                               03/17/2026 10:18:46 PAGE 10  

           =3 #define BIT11           0x0800
           =3 #define BIT12           0x1000
           =3 #define BIT13           0x2000
           =3 #define BIT14           0x4000
           =3 #define BIT15           0x8000
           =3 #define BIT16           0x00010000
           =3 #define BIT17           0x00020000
           =3 #define BIT18           0x00040000
           =3 #define BIT19           0x00080000
           =3 #define BIT20           0x00100000
           =3 #define BIT21           0x00200000
           =3 #define BIT22           0x00400000
           =3 #define BIT23           0x00800000
           =3 #define BIT24           0x01000000
           =3 #define BIT25           0x02000000
           =3 #define BIT26           0x04000000
           =3 #define BIT27           0x08000000
           =3 #define BIT28           0x10000000
           =3 #define BIT29           0x20000000
           =3 #define BIT30           0x40000000
           =3 #define BIT31           0x80000000
           =3 
           =3 #define LOW_BYTE(dat)   (byte) (dat & 0x00FF)
           =3 #define HIGH_BYTE(dat)  (byte)((dat & 0xFF00) >> 8)
           =3 
           =3 #define U32BYTE0(dat)   (byte) (dat  & 0x000000FF)
           =3 #define U32BYTE1(dat)   (byte)((dat  & 0x0000FF00) >> 8)
           =3 #define U32BYTE2(dat)   (byte)((dat  & 0x00FF0000) >> 16)
           =3 #define U32BYTE3(dat)   (byte)((dat  & 0xFF000000) >> 24)
           =3  
           =3 // Keil compiler user define //
           =3 #define     KEIL_CPL
           =3 
           =3 #ifdef KEIL_CPL
           =3  #define XDATA    xdata
           =3  #define IDATA    idata
           =3  #define BDATA    bdata
           =3  #define CODE     code
           =3  #define FAR      far
           =3 #else
           =3  #define XDATA
           =3  #define IDATA
           =3  #define BDATA
           =3  #define CODE
           =3  #define FAR
           =3 #endif
           =3 
           =3 // Serial interface command direction //
           =3 #define     SI_WR                   BIT0
           =3 #define     SI_RD                   BIT1
           =3 
           =3 #define     FLASH_WR_ENB            (PCON |= PWE_)
           =3 #define     FLASH_WR_DISB           (PCON &= ~PWE_)
           =3 
           =3 #endif  // end of TYPES_H //
  25      =2  #include "stoe_cfg.h"
   1      =3  //========================================================================================
   2      =3  //     Copyright (c) 2006     ASIX Electronic Corporation      All rights reserved.
   3      =3  //
   4      =3  //     This is unpublished proprietary source code of ASIX Electronic Corporation
   5      =3  //
   6      =3  //     The copyright notice above does not evidence any actual or intended
C51 COMPILER V8.06   ADAPTER                                                               03/17/2026 10:18:46 PAGE 11  

   7      =3  //     publication of such source code.
   8      =3  //========================================================================================
   9      =3  // Module Name    : stoe_cfg.h
  10      =3  // Purpose        : 
  11      =3  // Author         :
  12      =3  // Date           :
  13      =3  // Notes          :
  14      =3  // $Log           : stoe_cfg.h,v $
  15      =3  //~~~~~~~~~~~~~~~~~~~~~~~~~~~~~~~~~~~~~~~~~~~~~~~~~~~~~~~~~~~~~~~~~~~~~~~~~~~~~~~~~~~~~~~~
  16      =3  // Revision 1.2      2006/07/25 05:32:12  borbin
  17      =3  // no message
  18      =3  //~~~~~~~~~~~~~~~~~~~~~~~~~~~~~~~~~~~~~~~~~~~~~~~~~~~~~~~~~~~~~~~~~~~~~~~~~~~~~~~~~~~~~~~~
  19      =3  // Revision 1.1.1.1  2006/06/20 05:50:28  borbin
  20      =3  // no message
  21      =3  //~~~~~~~~~~~~~~~~~~~~~~~~~~~~~~~~~~~~~~~~~~~~~~~~~~~~~~~~~~~~~~~~~~~~~~~~~~~~~~~~~~~~~~~~
  22      =3  //========================================================================================
  23      =3  //
  24      =3  #ifndef __STOE_CFG_H__
           =3 #define __STOE_CFG_H__
           =3 //          INCLUDE FILE DECLARATIONS                                                     //
           =3 //----------------------------------------------------------------------------------------
           =3 #define PAGES_OF_XMIT                           8                                         // pages. 2k // 
             -//16     // pages, 4k //
           =3 #define PAGES_OF_RCV                            16                                        // pages. 4k // 
             -//24  // pages, 6k //
           =3 //----------------------------------------------------------------------------------------
           =3 #define STOE_ARP_TIMEOUT                        16                                        // hardware arp 
             -table timeout is 128 sec. //
           =3 //----------------------------------------------------------------------------------------
           =3 //          NAMING CONSTANT DECLARATIONS                                                  //
           =3 //----------------------------------------------------------------------------------------
           =3 #define STOE_HW_CHECKSUN_DISABLE                0                                         //    0: disable
             - stoe checksum offload engine //
           =3 #define STOE_HW_CHECKSUN_ENABLE                 1                                         //    1: enable 
             -stoe checksum offload engine. //
           =3 #define STOE_CHECKSUM_OFFLOAD                   (STOE_HW_CHECKSUN_ENABLE)                 //
           =3 //----------------------------------------------------------------------------------------
           =3 #endif                                    //    End of __STOE_CFG_H__         //
  40      =3  // End of stoe_cfg.h //
  26      =2  
  27      =2  // NAMING CONSTANT DECLARATIONS //
  28      =2  #define MAC_RCV_PROMISCUOUS                             1
  29      =2  #define MAC_RCV_ALL_MULTICAST                   2
  30      =2  #define MAC_RCV_BROADCAST                               4
  31      =2  #define MAC_RCV_MULTICAST                               8
  32      =2  
  33      =2  #define MAC_PRIMARY_PHY_LINK_WAKEUP             1                
  34      =2  #define MAC_MAGIC_PACKET_WAKEUP                 2
  35      =2  #define MAC_EXTERNAL_PIN_WAKEUP                 4
  36      =2  #define MAC_MS_FRAME_WAKEUP                             8
  37      =2  
  38      =2  // MAC register definitions //
  39      =2  #define MAC_SRAM_CMD_REG                                0x00
  40      =2  #define MAC_SRAM_DATA_REG                               0x02
  41      =2  #define MAC_RX_CTL_REG                                  0x0A
  42      =2  #define MAC_IPG_CTL_REG                                 0x0C
  43      =2  #define MAC_ADDR_REG                                    0x10
  44      =2  #define MAC_MULTICASE_REG                               0x16
  45      =2  #define MAC_TEST_REG                                    0x1E
  46      =2  #define MAC_MEDIUM_STATUS_MODE_REG              0x20
  47      =2  #define MAC_PHY_CTL_REG                                 0x22
  48      =2  #define MAC_WAKEUP_INT_ENABLE_REG               0x24
C51 COMPILER V8.06   ADAPTER                                                               03/17/2026 10:18:46 PAGE 12  

  49      =2  #define MAC_LINK_CHANGE_INT_ENABLE_REG  0x26
  50      =2  #define MAC_WAKEUP_LINK_INT_STATUS_REG  0x28
  51      =2  #define MAC_WAKEUP_FRAME_COMMAND                0x30
  52      =2  #define MAC_WAKEUP_FRAME_MASK0                  0x32
  53      =2  #define MAC_WAKEUP_FRAME_CRC0                   0x36
  54      =2  #define MAC_WAKEUP_FRAME_OFFSET0                0x38
  55      =2  #define MAC_WAKEUP_FRAME_LAST_BYTE0             0x3a
  56      =2  #define MAC_WAKEUP_FRAME_MASK1                  0x40
  57      =2  #define MAC_WAKEUP_FRAME_CRC1                   0x44
  58      =2  #define MAC_WAKEUP_FRAME_OFFSET1                0x46
  59      =2  #define MAC_WAKEUP_FRAME_LAST_BYTE1             0x48
  60      =2  #define MAC_CMD_ABORT                                   0xFF
  61      =2  
  62      =2  // Bit definitions: MAC_RX_CTL_REG //
  63      =2  #define PACKET_TYPE_PROMISCOUS                  BIT0
  64      =2  #define PACKET_TYPE_ALL_MULTI                   BIT1
  65      =2  #define PACKET_TYPE_RCV_CRC_ERROR               BIT2
  66      =2  #define PACKET_TYPE_BROADCAST                   BIT3
  67      =2  #define PACKET_TYPE_MULTICAST                   BIT4
  68      =2  #define PACKET_TYPE_UNICAST_MATCH               BIT5
  69      =2  #define START_OPERATION                                 BIT7
  70      =2  
  71      =2  // Bit definitions: MAC_MEDIUM_STATUS_MODE_REG //
  72      =2  #define MEDIUM_SUPER_MAC                                BIT0
  73      =2  #define MEDIUM_STOP_BACKPRESSURE                BIT1
  74      =2  #define MEDIUM_ENABLE_RECEIVE                   BIT2
  75      =2  #define MEDIUM_CHECK_ONLY_TYPE_PAUSE    BIT3
  76      =2  #define MEDIUM_ENABLE_TX_FLOWCTRL               BIT4
  77      =2  #define MEDIUM_FULL_DUPLEX_MODE                 BIT5
  78      =2  #define MEDIUM_MII_100M_MODE                    BIT6
  79      =2  #define MEDIUM_ENABLE_RX_FLOWCTRL               BIT7
  80      =2  
  81      =2  // Bit definitions: MAC_PHY_CTL_REG //
  82      =2  #define PHY_SELECT_EXTERNAL_PHY                 0
  83      =2  #define PHY_SELECT_EMBEDDED                             BIT0
  84      =2  #define PHY_AUTO_SELECT                                 BIT1
  85      =2  #define PHY_INTERNAL_PHY_OPERA_STATE    BIT2
  86      =2  
  87      =2  // Bit definitions: MAC_WAKEUP_INT_ENABLE_REG //
  88      =2  #define WAKEUP_BY_PRIMARY_LINK_UP               BIT0
  89      =2  #define WAKEUP_BY_SECONDARY_LINK_UP             BIT2
  90      =2  #define WAKEUP_BY_MAGIC_PACKET                  BIT4
  91      =2  #define WAKEUP_BY_EXTER_PIN_TRIG                BIT5
  92      =2  #define WAKEUP_BY_MICROSOFT_FRAME               BIT6
  93      =2  
  94      =2  // Bit definitions: MAC_LINK_CHANGE_INT_ENABLE_REG //
  95      =2  #define PRIMARY_LINK_CHANGE_ENABLE              BIT0
  96      =2  #define SECOND_LINK_CHANGE_ENABLE               BIT2
  97      =2  
  98      =2  // Bit definitions: MAC_WAKEUP_LINK_INT_STATUS_REG //
  99      =2  #define STATUS_PRIMARY_LINK_CHANGE              BIT0
 100      =2  #define STATUS_PRIMARY_IS_LINK_UP               BIT1
 101      =2  #define STATUS_SECOND_LINK_CHANGE               BIT2
 102      =2  #define STATUS_SECOND_IS_LINK_UP                BIT3
 103      =2  #define STATUS_RCV_MAGIC_PKT                    BIT4
 104      =2  #define STATUS_TRIG_EXTER_PIN_TRIG              BIT5
 105      =2  #define STATUS_MICROSOFT_FRAME                  BIT6
 106      =2  
 107      =2  // Bit definitions: WUF_WAKEUP_FRAME_COMMAND, 0x30 //
 108      =2  #define WAKEUP_FRAME_FILTER0_ENABLE             BIT0
 109      =2  #define WAKEUP_FRAME_FILTER0_UNI_ENABLE BIT1
 110      =2  #define WAKEUP_FRAME_FILTER1_ENABLE             BIT2
C51 COMPILER V8.06   ADAPTER                                                               03/17/2026 10:18:46 PAGE 13  

 111      =2  #define WAKEUP_FRAME_FILTER1_UNI_ENABLE BIT3
 112      =2  #define WAKEUP_FRAME_CASCADE_ENABLE             BIT4
 113      =2  
 114      =2  // wakeup frame Mode //
 115      =2  #define WUF_ONLY_USE_FILTER0                    0
 116      =2  #define WUF_ONLY_USE_FILTER1                    1
 117      =2  #define WUF_ONLY_FILTER0_MACADDR                2
 118      =2  #define WUF_ONLY_FILTER1_MACADDR                3
 119      =2  #define WUF_BOTH_FILTERS                                4
 120      =2  #define WUF_BOTH_FILTERS_MACADDR                6
 121      =2  #define WUF_CASCADE                                             8
 122      =2  #define WUF_CASCADE_MACADDR                             10
 123      =2  
 124      =2  // TYPE DECLARATIONS //
 125      =2  //----------------------------------------------------------------------------------------
 126      =2  typedef struct _MAC_INFORMATION
 127      =2  {
 128      =2  // definition for NetworkType member. //
 129      =2  #define MAC_AUTO_NEGOTIATION                    0
 130      =2  #define MAC_LINK_100M_SPEED                             100
 131      =2  #define MAC_LINK_10M_SPEED                              10
 132      =2  #define MAC_LINK_FULL_DUPLEX                    0x80
 133      =2  #define MAC_FORCE_ENBEDDED_PHY_10_HALF  0x4A
 134      =2  
 135      =2          byte    LinkSpeed;
 136      =2          byte    FullDuplex;
 137      =2        byte  MediumLinkType;   // map to mac register MAC_MEDIUM_STATUS_MODE_REG //
 138      =2          byte    NetworkType;
 139      =2          byte    InterruptMask;
 140      =2  
 141      =2  } MAC_INFO;
 142      =2  
 143      =2  //----------------------------------------------------------------------------------------
 144      =2  typedef struct _MAC_WAKEUP_FRAME
 145      =2  {
 146      =2        byte  Mode;       // see above wakeup frame Mode //
 147      =2        byte  Offset0;    // filter0 offset //
 148      =2        byte  Offset1;    // filter1 offset //
 149      =2        ulong Mask0;      // filter0 mask //
 150      =2        ulong Mask1;      // filter1 mask //
 151      =2        byte* Pframe;     // point to the first byte of wakeup frame (destination address) //
 152      =2          byte    Length;
 153      =2  
 154      =2  } MAC_WUF;
 155      =2  
 156      =2  // GLOBAL VARIABLES //
 157      =2  
 158      =2  // EXPORTED SUBPROGRAM SPECIFICATIONS //
 159      =2  //----------------------------------------------------------------------------------------
 160      =2  void MAC_Init(byte);
 161      =2  void MAC_Start(void);
 162      =2  void mac_StopOperate(void);
 163      =2  void mac_InterruptDisable(void);
 164      =2  byte* MAC_GetMacAddr(void);
 165      =2  void MAC_SetMacAddr(byte*);
 166      =2  void MAC_SetRxFilter(byte);
 167      =2  void  MAC_SetInterruptFlag(void);
 168      =2  byte  MAC_GetInterruptFlag(void);
 169      =2  void  MAC_ProcessInterrupt(void);
 170      =2  byte  MAC_ProcessInterruptExt(void);
 171      =2  void  MAC_MultiFilter(byte*, byte);
 172      =2  
C51 COMPILER V8.06   ADAPTER                                                               03/17/2026 10:18:46 PAGE 14  

 173      =2  #endif // __MAC_H__ //
 174      =2  
 175      =2  // End of mac.h //
  27      =1  #include "phy.h"
   1      =2  //=============================================================================
   2      =2  //     Copyright (c) 2006       ASIX Electronic Corporation      All rights reserved.
   3      =2  //
   4      =2  //     This is unpublished proprietary source code of ASIX Electronic Corporation
   5      =2  //
   6      =2  //     The copyright notice above does not evidence any actual or intended
   7      =2  //     publication of such source code.
   8      =2  //=============================================================================
   9      =2  // Module Name:phy.h
  10      =2  // Purpose:
  11      =2  // Author:
  12      =2  // Date:
  13      =2  // Notes:
  14      =2  // $Log: phy.h,v $
  15      =2  // Revision 1.1.1.1  2006/06/20 05:50:28  borbin
  16      =2  // no message
  17      =2  //
  18      =2  //=============================================================================
  19      =2  
  20      =2  #ifndef __PHY_H__
  21      =2  #define __PHY_H__
  22      =2  
  23      =2  
  24      =2  // INCLUDE FILE DECLARATIONS //
  25      =2  #include "types.h"
   1      =3  //----------------------------------------------------------------------------------------
   2      =3  //     Copyright (c) 2005       Simtek, Incorporated      All rights reserved.
   3      =3  //
   4      =3  //     This is unpublished proprietary source code of Simtek, Inc
   5      =3  //
   6      =3  //     The copyright notice above does not evidence any actual or intended
   7      =3  //     publication of such source code.
   8      =3  //----------------------------------------------------------------------------------------
   9      =3  // Module Name : types.h
  10      =3  // Purpose     : Definition of type.
  11      =3  // Author      : Robin Lee
  12      =3  // Date        : 2005-12-28
  13      =3  // Notes       : None.
  14      =3  // $Log: types.h,v $
  15      =3  //----------------------------------------------------------------------------------------
  16      =3  // Revision 1.2  2006/05/18 05:02:30  Louis
  17      =3  // no message
  18      =3  //----------------------------------------------------------------------------------------
  19      =3  // Revision 1.1  2006/04/07 11:36:17  robin6633
  20      =3  // no message
  21      =3  //----------------------------------------------------------------------------------------
  22      =3  
  23      =3  #ifndef TYPES_H
           =3 #define TYPES_H
           =3 
           =3 typedef unsigned short int          bool;                                                 // boolean
           =3 typedef unsigned char               byte;                                                 //  8-bit unsign
             -ed
           =3 typedef unsigned short int          uint;                                                 // 16-bit unsign
             -ed
           =3 typedef short int                   sint;                                                 // 16-bit signed
           =3 typedef unsigned long               ulong;                                                // 32-bit unsign
             -ed
C51 COMPILER V8.06   ADAPTER                                                               03/17/2026 10:18:46 PAGE 15  

           =3 typedef unsigned short int          word;                                                 // 16-bit unsign
             -ed
           =3 
           =3 #ifndef NULL
           =3   #define NULL ((void *) 0L)
           =3 #endif
           =3 
           =3 #define TRUE                  1
           =3 #define FALSE                 0
           =3 #define ON                    1
           =3 #define OFF                   0
           =3 #define Client                1
           =3 #define Server                0
           =3 
           =3 // Bit Definitions for Bitwise Operation //
           =3 #define BIT0            0x01
           =3 #define BIT1            0x02
           =3 #define BIT2            0x04
           =3 #define BIT3            0x08
           =3 #define BIT4            0x10
           =3 #define BIT5            0x20
           =3 #define BIT6            0x40
           =3 #define BIT7            0x80
           =3 #define BIT8            0x0100
           =3 #define BIT9            0x0200
           =3 #define BIT10           0x0400
           =3 #define BIT11           0x0800
           =3 #define BIT12           0x1000
           =3 #define BIT13           0x2000
           =3 #define BIT14           0x4000
           =3 #define BIT15           0x8000
           =3 #define BIT16           0x00010000
           =3 #define BIT17           0x00020000
           =3 #define BIT18           0x00040000
           =3 #define BIT19           0x00080000
           =3 #define BIT20           0x00100000
           =3 #define BIT21           0x00200000
           =3 #define BIT22           0x00400000
           =3 #define BIT23           0x00800000
           =3 #define BIT24           0x01000000
           =3 #define BIT25           0x02000000
           =3 #define BIT26           0x04000000
           =3 #define BIT27           0x08000000
           =3 #define BIT28           0x10000000
           =3 #define BIT29           0x20000000
           =3 #define BIT30           0x40000000
           =3 #define BIT31           0x80000000
           =3 
           =3 #define LOW_BYTE(dat)   (byte) (dat & 0x00FF)
           =3 #define HIGH_BYTE(dat)  (byte)((dat & 0xFF00) >> 8)
           =3 
           =3 #define U32BYTE0(dat)   (byte) (dat  & 0x000000FF)
           =3 #define U32BYTE1(dat)   (byte)((dat  & 0x0000FF00) >> 8)
           =3 #define U32BYTE2(dat)   (byte)((dat  & 0x00FF0000) >> 16)
           =3 #define U32BYTE3(dat)   (byte)((dat  & 0xFF000000) >> 24)
           =3  
           =3 // Keil compiler user define //
           =3 #define     KEIL_CPL
           =3 
           =3 #ifdef KEIL_CPL
           =3  #define XDATA    xdata
           =3  #define IDATA    idata
C51 COMPILER V8.06   ADAPTER                                                               03/17/2026 10:18:46 PAGE 16  

           =3  #define BDATA    bdata
           =3  #define CODE     code
           =3  #define FAR      far
           =3 #else
           =3  #define XDATA
           =3  #define IDATA
           =3  #define BDATA
           =3  #define CODE
           =3  #define FAR
           =3 #endif
           =3 
           =3 // Serial interface command direction //
           =3 #define     SI_WR                   BIT0
           =3 #define     SI_RD                   BIT1
           =3 
           =3 #define     FLASH_WR_ENB            (PCON |= PWE_)
           =3 #define     FLASH_WR_DISB           (PCON &= ~PWE_)
           =3 
           =3 #endif  // end of TYPES_H //
  26      =2  
  27      =2  // internal phy id address //
  28      =2  #define PHY_ADDRESS                                     0x10
  29      =2  #define PHY_INTERNAL                            0
  30      =2  #define PHY_EXTERNAL                            1
  31      =2  
  32      =2  // network type //
  33      =2  #define AUTO_NEGOTIATION                        0
  34      =2  #define FIXED_100_FULL                          1
  35      =2  #define FIXED_100_HALF                          2
  36      =2  #define FIXED_10_FULL                           3
  37      =2  #define FIXED_10_HALF                           4
  38      =2  #define FORCE_EMBEDDED_PHY_10_HALF      5
  39      =2  
  40      =2  // NAMING CONSTANT DECLARATIONS //
  41      =2  // SFR 0xBE definitions //
  42      =2  #define PHY_READ_REG                            BIT7
  43      =2  #define PHY_ACCESS_GO                           BIT6
  44      =2  #define PHY_CMD_ABORT                           0xFF
  45      =2  
  46      =2  // MII register definitions //
  47      =2  #define MII_PHY_CONTROL                         0x00    // control reg
  48      =2  #define MII_PHY_STATUS                          0x01    // status reg
  49      =2  #define MII_PHY_OUI                                     0x02    // most of the OUI bits
  50      =2  #define MII_PHY_MODEL                           0x03    // model/rev bits, and rest of OUI
  51      =2  #define MII_PHY_ANAR                            0x04    // AN advertisement reg
  52      =2  #define MII_PHY_ANLPAR                          0x05    // AN Link Partner
  53      =2  #define MII_PHY_ANER                            0x06    // AN expansion reg
  54      =2  
  55      =2  // Bit definitions: MII Control //
  56      =2  #define CONTROL_RESET                           0x8000  // reset bit in control reg
  57      =2  #define CONTROL_LOOPBACK                        0x4000  // loopback bit in control reg
  58      =2  #define CONTROL_10MB                            0x0000  // 10 Mbit
  59      =2  #define CONTROL_100MB                           0x2000  // 100Mbit
  60      =2  #define CONTROL_ENABLE_AUTO                     0x1000  // autonegotiate enable
  61      =2  #define CONTROL_POWER_DOWN                      0x0800
  62      =2  #define CONTROL_ISOLATE                         0x0400  // islolate bit
  63      =2  #define CONTROL_START_AUTO                      0x0200  // restart autonegotiate
  64      =2  #define CONTROL_FULL_DUPLEX                     0x0100
  65      =2  
  66      =2  // Bit definitions: Auto-Negotiation Advertisement //
  67      =2  #define ANAR_PAUSE                                      0x0400  // support pause packets
  68      =2  #define ANAR_100T4                                      0x0200  // support 100BT4
C51 COMPILER V8.06   ADAPTER                                                               03/17/2026 10:18:46 PAGE 17  

  69      =2  #define ANAR_100TXFD                            0x0100  // support 100BTX full duplex
  70      =2  #define ANAR_100TX                                      0x0080  // support 100BTX half duplex
  71      =2  #define ANAR_10TFD                                      0x0040  // support 10BT full duplex
  72      =2  #define ANAR_10T                                        0x0020  // support 10BT half duplex
  73      =2  #define ANAR_SELECTOR_FIELD                     0x001F  // selector field.
  74      =2  #define ANAR_SELECTOR_8023                      0x0001
  75      =2  
  76      =2  // Bit definitions: Auto-Negotiation Link Partner Ability //
  77      =2  #define ANLPAR_PAUSE                            0x0400  // support pause packets
  78      =2  #define ANLPAR_100T4                            0x0200  // support 100BT4
  79      =2  #define ANLPAR_100TXFD                          0x0100  // support 100BTX full duplex
  80      =2  #define ANLPAR_100TX                            0x0080  // support 100BTX half duplex
  81      =2  #define ANLPAR_10TFD                            0x0040  // support 10BT full duplex
  82      =2  #define ANLPAR_10T                                      0x0020  // support 10BT half duplex
  83      =2  
  84      =2  // TYPE DECLARATIONS //
  85      =2  //---------------------------------------------------------------
  86      =2  typedef struct _PHY_INFORMATION
  87      =2  {
  88      =2          byte    PhyAddr;
  89      =2          byte    PhyType;
  90      =2  
  91      =2  } PHY_INFO;
  92      =2  
  93      =2  // EXPORTED SUBPROGRAM SPECIFICATIONS //
  94      =2  //---------------------------------------------------------------
  95      =2  void PHY_Init(byte);
  96      =2  uint PHY_CheckMediaType(void);
  97      =2  void PHY_PowerUp(void);
  98      =2  void PHY_WatchDog(void);
  99      =2  void phy_WriteReg(byte regaddr, uint value);
 100      =2  
 101      =2  #endif // End of __PHY_H__ //
 102      =2  // End of phy.h //
  28      =1  
  29      =1  
  30      =1  // NAMING CONSTANT DECLARATIONS //
  31      =1  #define MAX_ETHERNET_LEN                1514
  32      =1  #define MAC_ADDRESS_LEN                 6
  33      =1  #define ETH_HEADER_LEN                  14
  34      =1  #define VLAN_HEADER_LEN                 4
  35      =1  #define SNAP_LEN                                8
  36      =1  
  37      =1  #define MAX_FRAME_SIZE                  (MAX_ETHERNET_LEN + VLAN_HEADER_LEN)
  38      =1  
  39      =1  #define PAGE_SIZE                               256
  40      =1  
  41      =1  // STOE header //
  42      =1  #define MAC_TX_RX_HEADER                6
  43      =1  
  44      =1  // calculate BDP start address //
  45      =1  #define STOE_SOCKET_BUFFER_SIZE ((PAGES_OF_XMIT + PAGES_OF_RCV + 1) * PAGE_SIZE)
  46      =1  #define DEFAULT_STACK_BOUNDARY  0x8000  // 32 K //
  47      =1  #define STOE_BDP_START_ADDR             (DEFAULT_STACK_BOUNDARY - STOE_SOCKET_BUFFER_SIZE)
  48      =1  #define STOE_RCV_BUF_SIZE               (PAGES_OF_RCV * PAGE_SIZE)
  49      =1  #define STOE_XMIT_BUF_SIZE              (PAGES_OF_XMIT * PAGE_SIZE)
  50      =1  
  51      =1  // STOE register definitions //
  52      =1  #define STOE_L2_CTL_REG                 0x00
  53      =1  #define STOE_RX_VLAN_TAG_REG            0x02
  54      =1  #define STOE_TX_VLAN_TAG_REG            0x04
  55      =1  #define STOE_ARP_CMD_REG                0x06
C51 COMPILER V8.06   ADAPTER                                                               03/17/2026 10:18:46 PAGE 18  

  56      =1  #define STOE_ARP_ADDR_REG               0x07
  57      =1  #define STOE_ARP_DATA_REG               0x08
  58      =1  #define STOE_ARP_TIMEOUT_REG            0x0E
  59      =1  #define STOE_IP_ADDR_REG                0x10
  60      =1  #define STOE_SUBNET_MASK_REG            0x14
  61      =1  #define STOE_GATEWAY_IP_REG             0x18
  62      =1  #define STOE_CHKSUM_STATUS_REG  0x1C
  63      =1  #define STOE_L4_CTL_REG                 0x20
  64      =1  #define STOE_L4_CMD_REG                 0x21
  65      =1  #define STOE_L4_BDP_PNT_REG             0x22
  66      =1  #define STOE_L4_DMA_GAP_REG             0x24
  67      =1  #define STOE_INT_STATUS_REG             0x30
  68      =1  #define STOE_INT_MASK_REG               0x31
  69      =1  
  70      =1  // Bit definitions: STOE_L2_CTL_REG      //
  71      =1  #define RX_VLAN_ENABLE                  BIT0
  72      =1  #define RX_TRANSPARENT                  BIT1
  73      =1  #define RX_START_OPERA                  BIT3
  74      =1  #define TX_VLAN_ENABLE                  BIT4
  75      =1  #define TX_TRANSPARENT                  BIT5
  76      =1  #define TX_SNAP_ENABLE                  BIT6
  77      =1  #define TX_START_OPERA                  BIT7
  78      =1  
  79      =1  // Bit definitions: STOE_ARP_CMD_REG //
  80      =1  #define ARP_CACHE_CMD_READ              BIT0
  81      =1  #define ARP_CACHE_CMD_GO                BIT1
  82      =1  
  83      =1  // Bit definitions: STOE_L4_CTL_REG      //
  84      =1  #define DROP_CHKSUMERR_PKT              BIT0
  85      =1  #define ENABLE_XMIT_CHKSUM              BIT1
  86      =1  #define ENABLE_RCV_CROSS                BIT2
  87      =1  #define ENABLE_XMIT_CROSS               BIT3 
  88      =1  
  89      =1  // Bit definitions: STOE_L4_CMD_REG      //
  90      =1  #define RESUME_PKT_RCV                  BIT0
  91      =1  #define XMIT_PACKET                     BIT4
  92      =1  
  93      =1  // Bit definitions: STOE_STATUS_REG      //
  94      =1  // Bit definitions: STOE_INT_MASK_REG //
  95      =1  #define ARP_HASH_COLLISION              BIT0
  96      =1  #define RCV_PACKET                      BIT1
  97      =1  #define RCV_BUF_RING_FULL               BIT2
  98      =1  #define ARP_CACHE_NOT_FIND              BIT4
  99      =1  #define XMIT_EMPTY_BUF                  BIT5
 100      =1  #define XMIT_COMPLETE                   BIT6
 101      =1  #define STOE_DEFAULT_INT_MASK   (RCV_BUF_RING_FULL | RCV_PACKET)
 102      =1  
 103      =1  // TYPE DECLARATIONS //
 104      =1  //---------------------------------------------------------------
 105      =1  typedef struct _LOCAL_STATION
 106      =1  {
 107      =1          // MAC address //
 108      =1          byte    PermStaAddr[MAC_ADDRESS_LEN];
 109      =1          byte    CurrStaAddr[MAC_ADDRESS_LEN];
 110      =1  
 111      =1          // IP address //
 112      =1          ulong   StationIP;
 113      =1          ulong   SubnetMask;
 114      =1          ulong   Gateway;
 115      =1          ulong   DefaultIP;
 116      =1          ulong   DefaultMask;
 117      =1          ulong   DefaultGateway;
C51 COMPILER V8.06   ADAPTER                                                               03/17/2026 10:18:46 PAGE 19  

 118      =1  
 119      =1  } LOCAL_STATION;
 120      =1  
 121      =1  //---------------------------------------------------------------
 122      =1  typedef struct _PACKET_INFORMATION
 123      =1  {
 124      =1          byte XDATA*     PBuf;
 125      =1          byte XDATA*     PIpHeader;
 126      =1          byte XDATA*     PTUIHeader;     // TCP Header, Udp Header, or ICMP IGMP Header //
 127      =1          byte XDATA*     PData;
 128      =1  
 129      =1          uint            TotalLen;
 130      =1          uint            IpTotalLen;
 131      =1          uint            TUITotalLen;
 132      =1          uint            DataLen;
 133      =1          byte            Protocol;
 134      =1          byte            IpHeaderLen;
 135      =1          byte            TcpHeaderLen;
 136      =1          byte            SocketId;
 137      =1          byte            Pages;
 138      =1  
 139      =1  } PACKET_INFORMATION;
 140      =1  
 141      =1  //---------------------------------------------------------------
 142      =1  typedef struct _BUF_DESC_PAGE
 143      =1  {
 144      =1  #define RX_DESCRIPTOR_SIZE                      128
 145      =1  #define RX_DESCRIPTOR_HEADER_SIZE       12
 146      =1  #define RX_RESERVED_BUFFER_SIZE         (RX_DESCRIPTOR_SIZE - RX_DESCRIPTOR_HEADER_SIZE -       \
 147      =1                                                                          sizeof (LOCAL_STATION) - sizeof (PHY_INFO) -            \
 148      =1                                                                          sizeof (MAC_INFO))
 149      =1  
 150      =1          // hardware RX descriptor header //
 151      =1          byte    BDP_ID;
 152      =1          byte    Pad0;
 153      =1          uint    RSPP;
 154      =1          uint    REPP;
 155      =1          uint    RHPR;
 156      =1          uint    RTPR;
 157      =1          byte    RFP;
 158      =1          byte    Pad1;
 159      =1  
 160      =1          LOCAL_STATION   NetStation;
 161      =1          PHY_INFO                PhyInfo;
 162      =1          MAC_INFO                MacInfo;
 163      =1  
 164      =1          byte    RcvReserved[RX_RESERVED_BUFFER_SIZE];
 165      =1  
 166      =1          // hardware TX descriptor header //
 167      =1          uint    TSPP;
 168      =1          uint    TEPP;
 169      =1          uint    THPR;
 170      =1          uint    TTPR;
 171      =1          byte    TFP;
 172      =1          byte    Pad2;
 173      =1  
 174      =1          uint    VSPP;
 175      =1  
 176      =1          byte XDATA*     RcvStartAddr;
 177      =1          byte XDATA*     RcvEndAddr;
 178      =1          byte XDATA*     XmtStartAddr;
 179      =1          byte XDATA*     XmtEndAddr;
C51 COMPILER V8.06   ADAPTER                                                               03/17/2026 10:18:46 PAGE 20  

 180      =1  
 181      =1          PACKET_INFORMATION      STOE_TxInform;
 182      =1          PACKET_INFORMATION      STOE_RxInform;
 183      =1  
 184      =1  } BUF_DESC_PAGE;
 185      =1  
 186      =1  //---------------------------------------------------------------
 187      =1  typedef struct _STOE_FRAME_HEADER
 188      =1  {
 189      =1          uint    NPR;
 190      =1          uint    Length;
 191      =1          byte    Protocol;
 192      =1          byte    DataOffset;
 193      =1          byte    Packet;
 194      =1  
 195      =1  } STOE_FRAME_HEADER;
 196      =1  
 197      =1  // GLOBAL VARIABLES //
 198      =1  extern LOCAL_STATION XDATA*     PNetStation;
 199      =1  extern BUF_DESC_PAGE XDATA* PBDP;
 200      =1  extern void (*STOE_RcvCallback)(byte XDATA*, uint, byte);
 201      =1  
 202      =1  // EXPORTED SUBPROGRAM SPECIFICATIONS //
 203      =1  //---------------------------------------------------------------
 204      =1  void STOE_Init(byte);
 205      =1  void STOE_Start(void);
 206      =1  void stoe_StopOperate(void);
 207      =1  
 208      =1  // MACRO DECLARATIONS //
 209      =1  #define STOE_GetIPAddr()                (PNetStation->StationIP)
 210      =1  #define STOE_GetSubnetMask()    (PNetStation->SubnetMask)
 211      =1  #define STOE_GetGateway()               (PNetStation->Gateway)
 212      =1  
 213      =1  void STOE_SetIPAddr(ulong);
 214      =1  void STOE_SetSubnetMask(ulong);
 215      =1  void STOE_SetGateway(ulong);
 216      =1  void STOE_WaitHwReleaseRcvBuf(void);
 217      =1  void STOE_ProcessInterrupt(void);
 218      =1  void STOE_Send(byte XDATA*, uint, byte);
 219      =1  byte XDATA* STOE_AssignSendBuf(uint);
 220      =1  byte XDATA* STOE_CopyCode2TPBR(byte XDATA*, byte*, uint);
 221      =1  byte STOE_CHECK_MAC(ulong *ip_addr);
 222      =1  
 223      =1  #endif // End of __STOE_H__ //
 224      =1  // End of stoe.h //
  22          #include "dma.h"
   1      =1  /*
   2      =1   ******************************************************************************
   3      =1   *     Copyright (c) 2006       ASIX Electronic Corporation      All rights reserved.
   4      =1   *
   5      =1   *     This is unpublished proprietary source code of ASIX Electronic Corporation
   6      =1   *
   7      =1   *     The copyright notice above does not evidence any actual or intended
   8      =1   *     publication of such source code.
   9      =1   ******************************************************************************
  10      =1   */
  11      =1  /*=============================================================================
  12      =1   * Module Name:dma.h
  13      =1   * Purpose:
  14      =1   * Author:
  15      =1   * Date:
  16      =1   * Notes:
C51 COMPILER V8.06   ADAPTER                                                               03/17/2026 10:18:46 PAGE 21  

  17      =1   * $Log: dma.h,v $
  18      =1   * Revision 1.1  2006/05/12 14:24:19  robin6633
  19      =1   * no message
  20      =1   *
  21      =1   * Revision 1.1.1.1  2006/02/23 00:55:10  borbin
  22      =1   * no message
  23      =1   *
  24      =1   *=============================================================================
  25      =1   */
  26      =1  
  27      =1  #ifndef __DMA_H__
  28      =1  #define __DMA_H__
  29      =1  
  30      =1  
  31      =1  /* INCLUDE FILE DECLARATIONS */
  32      =1  #include "types.h"
   1      =2  //----------------------------------------------------------------------------------------
   2      =2  //     Copyright (c) 2005       Simtek, Incorporated      All rights reserved.
   3      =2  //
   4      =2  //     This is unpublished proprietary source code of Simtek, Inc
   5      =2  //
   6      =2  //     The copyright notice above does not evidence any actual or intended
   7      =2  //     publication of such source code.
   8      =2  //----------------------------------------------------------------------------------------
   9      =2  // Module Name : types.h
  10      =2  // Purpose     : Definition of type.
  11      =2  // Author      : Robin Lee
  12      =2  // Date        : 2005-12-28
  13      =2  // Notes       : None.
  14      =2  // $Log: types.h,v $
  15      =2  //----------------------------------------------------------------------------------------
  16      =2  // Revision 1.2  2006/05/18 05:02:30  Louis
  17      =2  // no message
  18      =2  //----------------------------------------------------------------------------------------
  19      =2  // Revision 1.1  2006/04/07 11:36:17  robin6633
  20      =2  // no message
  21      =2  //----------------------------------------------------------------------------------------
  22      =2  
  23      =2  #ifndef TYPES_H
           =2 #define TYPES_H
           =2 
           =2 typedef unsigned short int          bool;                                                 // boolean
           =2 typedef unsigned char               byte;                                                 //  8-bit unsign
             -ed
           =2 typedef unsigned short int          uint;                                                 // 16-bit unsign
             -ed
           =2 typedef short int                   sint;                                                 // 16-bit signed
           =2 typedef unsigned long               ulong;                                                // 32-bit unsign
             -ed
           =2 typedef unsigned short int          word;                                                 // 16-bit unsign
             -ed
           =2 
           =2 #ifndef NULL
           =2   #define NULL ((void *) 0L)
           =2 #endif
           =2 
           =2 #define TRUE                  1
           =2 #define FALSE                 0
           =2 #define ON                    1
           =2 #define OFF                   0
           =2 #define Client                1
           =2 #define Server                0
C51 COMPILER V8.06   ADAPTER                                                               03/17/2026 10:18:46 PAGE 22  

           =2 
           =2 // Bit Definitions for Bitwise Operation //
           =2 #define BIT0            0x01
           =2 #define BIT1            0x02
           =2 #define BIT2            0x04
           =2 #define BIT3            0x08
           =2 #define BIT4            0x10
           =2 #define BIT5            0x20
           =2 #define BIT6            0x40
           =2 #define BIT7            0x80
           =2 #define BIT8            0x0100
           =2 #define BIT9            0x0200
           =2 #define BIT10           0x0400
           =2 #define BIT11           0x0800
           =2 #define BIT12           0x1000
           =2 #define BIT13           0x2000
           =2 #define BIT14           0x4000
           =2 #define BIT15           0x8000
           =2 #define BIT16           0x00010000
           =2 #define BIT17           0x00020000
           =2 #define BIT18           0x00040000
           =2 #define BIT19           0x00080000
           =2 #define BIT20           0x00100000
           =2 #define BIT21           0x00200000
           =2 #define BIT22           0x00400000
           =2 #define BIT23           0x00800000
           =2 #define BIT24           0x01000000
           =2 #define BIT25           0x02000000
           =2 #define BIT26           0x04000000
           =2 #define BIT27           0x08000000
           =2 #define BIT28           0x10000000
           =2 #define BIT29           0x20000000
           =2 #define BIT30           0x40000000
           =2 #define BIT31           0x80000000
           =2 
           =2 #define LOW_BYTE(dat)   (byte) (dat & 0x00FF)
           =2 #define HIGH_BYTE(dat)  (byte)((dat & 0xFF00) >> 8)
           =2 
           =2 #define U32BYTE0(dat)   (byte) (dat  & 0x000000FF)
           =2 #define U32BYTE1(dat)   (byte)((dat  & 0x0000FF00) >> 8)
           =2 #define U32BYTE2(dat)   (byte)((dat  & 0x00FF0000) >> 16)
           =2 #define U32BYTE3(dat)   (byte)((dat  & 0xFF000000) >> 24)
           =2  
           =2 // Keil compiler user define //
           =2 #define     KEIL_CPL
           =2 
           =2 #ifdef KEIL_CPL
           =2  #define XDATA    xdata
           =2  #define IDATA    idata
           =2  #define BDATA    bdata
           =2  #define CODE     code
           =2  #define FAR      far
           =2 #else
           =2  #define XDATA
           =2  #define IDATA
           =2  #define BDATA
           =2  #define CODE
           =2  #define FAR
           =2 #endif
           =2 
           =2 // Serial interface command direction //
           =2 #define     SI_WR                   BIT0
C51 COMPILER V8.06   ADAPTER                                                               03/17/2026 10:18:46 PAGE 23  

           =2 #define     SI_RD                   BIT1
           =2 
           =2 #define     FLASH_WR_ENB            (PCON |= PWE_)
           =2 #define     FLASH_WR_DISB           (PCON &= ~PWE_)
           =2 
           =2 #endif  // end of TYPES_H //
  33      =1  #include "dma_cfg.h"
   1      =2  //
   2      =2  //=============================================================================
   3      =2  //     Copyright (c) 2006       ASIX Electronic Corporation      All rights reserved.
   4      =2  //
   5      =2  //     This is unpublished proprietary source code of ASIX Electronic Corporation
   6      =2  //
   7      =2  //     The copyright notice above does not evidence any actual or intended
   8      =2  //     publication of such source code.
   9      =2  //=============================================================================
  10      =2  //
  11      =2  //=============================================================================
  12      =2  // Module Name:dma_cfg.h
  13      =2  // Purpose:
  14      =2  // Author:
  15      =2  // Date:
  16      =2  // Notes:
  17      =2  // $Log: dma_cfg.h,v $
  18      =2  // Revision 1.1  2006/05/12 14:24:19  robin6633
  19      =2  // no message
  20      =2  //
  21      =2  // Revision 1.1.1.1  2006/02/23 00:55:10  borbin
  22      =2  // no message
  23      =2  //
  24      =2  //=============================================================================
  25      =2  //
  26      =2  
  27      =2  #ifndef __DMA_CFG_H__
  28      =2  #define __DMA_CFG_H__
  29      =2  
  30      =2  
  31      =2  //-------------------------------------------------------------//
  32      =2  #define DMA_GAP                                         2       // 2 * 64 cycle, don't set '0' //
  33      =2  
  34      =2  //-------------------------------------------------------------//
  35      =2  // NAMING CONSTANT DECLARATIONS //
  36      =2  #define DMA_COPY_LESS_THAN_64K          0       // scope that dma copy, small than 64k //
  37      =2  #define DMA_COPY_LARGE_THAN_64K         1       // scope that dma copy, large than 64k //
  38      =2  
  39      =2  #define DMA_SRAM_RANGE                  (DMA_COPY_LARGE_THAN_64K)
  40      =2                                                                                  // if set DMA_COPY_LARGE_THAN_64K, driver
  41      =2                                                                                  // include DMA_Grant() function.
  42      =2                                                                                  // Call this function, the source and
  43      =2                                                                                  // destination address may be in ether XDATA
  44      =2                                                                                  // or FAR memory.
  45      =2  //-------------------------------------------------------------//
  46      =2  // NAMING CONSTANT DECLARATIONS //
  47      =2  #define DMA_NO                                          0
  48      =2  #define DMA_YES                                         1
  49      =2  
  50      =2  #define DMA_INCLUDE_ETHERNET_MODULE     (DMA_YES)
  51      =2  //-------------------------------------------------------------//
  52      =2  
  53      =2  
  54      =2  #endif // End of __DMA_CFG_H__ //
  55      =2  
C51 COMPILER V8.06   ADAPTER                                                               03/17/2026 10:18:46 PAGE 24  

  56      =2  
  57      =2  // End of dma_cfg.h //
  34      =1  
  35      =1  /* NAMING CONSTANT DECLARATIONS */
  36      =1  /* SFR 0x94 definitions*/
  37      =1  #define DMA_COMPLETE                    BIT0
  38      =1  
  39      =1  /* DMA register definitions */
  40      =1  #define SW_DMA_CMD_REG                  0x00
  41      =1  #define SW_DMA_SOUR_ADDR_REG    0x02
  42      =1  #define SW_DMA_TARGET_ADDR_REG  0x06
  43      =1  #define SW_DMA_BYTE_COUNT_REG   0x0A
  44      =1  
  45      =1  /* Bit definitions: SW_DMA_CMD_REG */
  46      =1  #define DMA_CMD_GO                              BIT0
  47      =1  #define DMA_FORCE_STOP                  BIT1
  48      =1  #define DMA_ERROR_BIT                   BIT2
  49      =1  #define DMA_ADDR_IN_RPBR                BIT4
  50      =1  #define DMA_ADDR_IN_TPBR                BIT5
  51      =1  #define DMA_COMPLETE_INT_ENABLE BIT7
  52      =1  
  53      =1  /* for software definition */
  54      =1  #define DMA_NORMAL                              0
  55      =1  #define DMA_FROM_RPBR                   BIT4
  56      =1  #define DMA_TO_TPBR                             BIT5
  57      =1  
  58      =1  /* EXPORTED SUBPROGRAM SPECIFICATIONS */
  59      =1  /*-------------------------------------------------------------*/
  60      =1  void DMA_ReadReg(byte, byte XDATA*, byte);
  61      =1  void DMA_WriteReg(byte, byte XDATA*, byte);
  62      =1  void DMA_Init(void);
  63      =1  void DMA_Start(void);
  64      =1  byte XDATA* DMA_GrantXdata(byte XDATA*, byte XDATA*, uint);
  65      =1  #if (DMA_SRAM_RANGE == DMA_COPY_LARGE_THAN_64K)
  66      =1  byte* DMA_Grant(byte*, byte*, uint);
  67      =1  #endif
  68      =1  
  69      =1  
  70      =1  #endif /* End of __DMA_H__ */
  71      =1  
  72      =1  
  73      =1  /* End of dma.h */
  23          #include "tcpip.h"
   1      =1  //=============================================================================
   2      =1  //      Copyright (c) 2006      ASIX Electronic Corporation      All rights reserved.
   3      =1  // 
   4      =1  //      This is unpublished proprietary source code of ASIX Electronic Corporation
   5      =1  // 
   6      =1  //      The copyright notice above does not evidence any actual or intended
   7      =1  //      publication of such source code.
   8      =1  //=============================================================================
   9      =1  //  Module Name:tcpip.h
  10      =1  //  Purpose:
  11      =1  //  Author:
  12      =1  //  Date:
  13      =1  //  Notes:
  14      =1  //  $Log: tcpip.h,v $
  15      =1  //=============================================================================
  16      =1  
  17      =1  #ifndef __TCPIP_H__
  18      =1  #define __TCPIP_H__
  19      =1  
C51 COMPILER V8.06   ADAPTER                                                               03/17/2026 10:18:46 PAGE 25  

  20      =1  // INCLUDE FILE DECLARATIONS //
  21      =1  #include "types.h"
   1      =2  //----------------------------------------------------------------------------------------
   2      =2  //     Copyright (c) 2005       Simtek, Incorporated      All rights reserved.
   3      =2  //
   4      =2  //     This is unpublished proprietary source code of Simtek, Inc
   5      =2  //
   6      =2  //     The copyright notice above does not evidence any actual or intended
   7      =2  //     publication of such source code.
   8      =2  //----------------------------------------------------------------------------------------
   9      =2  // Module Name : types.h
  10      =2  // Purpose     : Definition of type.
  11      =2  // Author      : Robin Lee
  12      =2  // Date        : 2005-12-28
  13      =2  // Notes       : None.
  14      =2  // $Log: types.h,v $
  15      =2  //----------------------------------------------------------------------------------------
  16      =2  // Revision 1.2  2006/05/18 05:02:30  Louis
  17      =2  // no message
  18      =2  //----------------------------------------------------------------------------------------
  19      =2  // Revision 1.1  2006/04/07 11:36:17  robin6633
  20      =2  // no message
  21      =2  //----------------------------------------------------------------------------------------
  22      =2  
  23      =2  #ifndef TYPES_H
           =2 #define TYPES_H
           =2 
           =2 typedef unsigned short int          bool;                                                 // boolean
           =2 typedef unsigned char               byte;                                                 //  8-bit unsign
             -ed
           =2 typedef unsigned short int          uint;                                                 // 16-bit unsign
             -ed
           =2 typedef short int                   sint;                                                 // 16-bit signed
           =2 typedef unsigned long               ulong;                                                // 32-bit unsign
             -ed
           =2 typedef unsigned short int          word;                                                 // 16-bit unsign
             -ed
           =2 
           =2 #ifndef NULL
           =2   #define NULL ((void *) 0L)
           =2 #endif
           =2 
           =2 #define TRUE                  1
           =2 #define FALSE                 0
           =2 #define ON                    1
           =2 #define OFF                   0
           =2 #define Client                1
           =2 #define Server                0
           =2 
           =2 // Bit Definitions for Bitwise Operation //
           =2 #define BIT0            0x01
           =2 #define BIT1            0x02
           =2 #define BIT2            0x04
           =2 #define BIT3            0x08
           =2 #define BIT4            0x10
           =2 #define BIT5            0x20
           =2 #define BIT6            0x40
           =2 #define BIT7            0x80
           =2 #define BIT8            0x0100
           =2 #define BIT9            0x0200
           =2 #define BIT10           0x0400
           =2 #define BIT11           0x0800
C51 COMPILER V8.06   ADAPTER                                                               03/17/2026 10:18:46 PAGE 26  

           =2 #define BIT12           0x1000
           =2 #define BIT13           0x2000
           =2 #define BIT14           0x4000
           =2 #define BIT15           0x8000
           =2 #define BIT16           0x00010000
           =2 #define BIT17           0x00020000
           =2 #define BIT18           0x00040000
           =2 #define BIT19           0x00080000
           =2 #define BIT20           0x00100000
           =2 #define BIT21           0x00200000
           =2 #define BIT22           0x00400000
           =2 #define BIT23           0x00800000
           =2 #define BIT24           0x01000000
           =2 #define BIT25           0x02000000
           =2 #define BIT26           0x04000000
           =2 #define BIT27           0x08000000
           =2 #define BIT28           0x10000000
           =2 #define BIT29           0x20000000
           =2 #define BIT30           0x40000000
           =2 #define BIT31           0x80000000
           =2 
           =2 #define LOW_BYTE(dat)   (byte) (dat & 0x00FF)
           =2 #define HIGH_BYTE(dat)  (byte)((dat & 0xFF00) >> 8)
           =2 
           =2 #define U32BYTE0(dat)   (byte) (dat  & 0x000000FF)
           =2 #define U32BYTE1(dat)   (byte)((dat  & 0x0000FF00) >> 8)
           =2 #define U32BYTE2(dat)   (byte)((dat  & 0x00FF0000) >> 16)
           =2 #define U32BYTE3(dat)   (byte)((dat  & 0xFF000000) >> 24)
           =2  
           =2 // Keil compiler user define //
           =2 #define     KEIL_CPL
           =2 
           =2 #ifdef KEIL_CPL
           =2  #define XDATA    xdata
           =2  #define IDATA    idata
           =2  #define BDATA    bdata
           =2  #define CODE     code
           =2  #define FAR      far
           =2 #else
           =2  #define XDATA
           =2  #define IDATA
           =2  #define BDATA
           =2  #define CODE
           =2  #define FAR
           =2 #endif
           =2 
           =2 // Serial interface command direction //
           =2 #define     SI_WR                   BIT0
           =2 #define     SI_RD                   BIT1
           =2 
           =2 #define     FLASH_WR_ENB            (PCON |= PWE_)
           =2 #define     FLASH_WR_DISB           (PCON &= ~PWE_)
           =2 
           =2 #endif  // end of TYPES_H //
  22      =1  
  23      =1  // NAMING CONSTANT DECLARATIONS //
  24      =1  #define TCPIP_MAX_APP_CONN                      16
  25      =1  #define TCPIP_MAX_TCP_LISTEN            12
  26      =1  #define TCPIP_MAX_UDP_LISTEN            12
  27      =1  #define TCPIP_MAX_TCP_CONN                      16
  28      =1  #define TCPIP_MAX_UDP_CONN                      16
  29      =1  
C51 COMPILER V8.06   ADAPTER                                                               03/17/2026 10:18:46 PAGE 27  

  30      =1  #define TCPIP_NO_NEW_CONN                       0xff
  31      =1  
  32      =1  #define TCPIP_CONNECT_CANCEL            0
  33      =1  #define TCPIP_CONNECT_WAIT                      1
  34      =1  #define TCPIP_CONNECT_ACTIVE            2
  35      =1  #define TCPIP_CONNECT_XMIT_COMPLETE     3
  36      =1  #define TCPIP_CONNECT_BUSY                      0xf1
  37      =1  
  38      =1  #define TCPIP_SEND_NOT_FINAL            0
  39      =1  #define TCPIP_SEND_FINAL                        1
  40      =1  #define TCPIP_SEND_NOT_PUSH                     2
  41      =1  
  42      =1  #define TCPIP_KEEPALIVE_ON                      1
  43      =1  #define TCPIP_KEEPALIVE_OFF                     0
  44      =1  
  45      =1  #define TCPIP_DONT_FRAGMENT                     1
  46      =1  #define TCPIP_FRAGMENT                          0
  47      =1  
  48      =1  #define TCPIP_PROTOCOL_ICMP                     1
  49      =1  #define TCPIP_PROTOCOL_TCP                      6
  50      =1  #define TCPIP_PROTOCOL_UDP                      17
  51      =1  
  52      =1  #define TCPIP_NON_TRANSPARENT_MODE      0
  53      =1  #define TCPIP_TRANSPARENT_MODE          1
  54      =1  
  55      =1  #define TCPIP_TIME_TO_LIVE                      255     // TTL item of ip layer //
  56      =1  
  57      =1  // GLOBAL VARIABLES //
  58      =1  
  59      =1  // for uip //
  60      =1  extern byte xdata uip_buf[];
  61      =1  extern volatile uint idata uip_len;
  62      =1  extern volatile byte *uip_appdata;
  63      =1  extern byte xdata uip_getgatewaymacaddrflag;
  64      =1  
  65      =1  #define TCPIP_GetRcvBuffer()            (uip_buf)
  66      =1  #define TCPIP_GetXmitBuffer()           (uip_buf)
  67      =1  #define TCPIP_SetRcvLength(len)         (uip_len = len)
  68      =1  #define TCPIP_SetXmitLength(len)        (uip_len = len)
  69      =1  #define TCPIP_GetXmitLength()           (uip_len)
  70      =1  #define TCPIP_GetPayloadBuffer()        (uip_appdata)
  71      =1  #define TCPIP_GetGwMacAddrFlag()        (uip_getgatewaymacaddrflag)
  72      =1  #define TCPIP_SetGwMacAddrFlag(a)       (uip_getgatewaymacaddrflag = a)
  73      =1  
  74      =1  // EXPORTED SUBPROGRAM SPECIFICATIONS //
  75      =1  void TCPIP_Init(byte);
  76      =1  byte TCPIP_Bind(byte (* )(ulong XDATA*, uint, byte), void (* )(byte, byte), void (* )(byte XDATA*, uint, b
             -yte));
  77      =1  void TCPIP_Unbind(byte);
  78      =1  
  79      =1  // for tcp //
  80      =1  byte TCPIP_TcpListen(uint, byte);
  81      =1  void TCPIP_TcpUnlisten(uint);
  82      =1  byte TCPIP_TcpNew(byte, byte, ulong, uint, uint);
  83      =1  void TCPIP_TcpConnect(byte);
  84      =1  void TCPIP_TcpKeepAlive(byte, byte);
  85      =1  void TCPIP_TcpClose(byte);
  86      =1  uint TCPIP_QueryTcpLocalPort(byte);
  87      =1  void TCPIP_TcpSend(byte, byte*, uint, byte);
  88      =1  
  89      =1  // for udp //
  90      =1  byte TCPIP_UdpListen(uint, byte);
C51 COMPILER V8.06   ADAPTER                                                               03/17/2026 10:18:46 PAGE 28  

  91      =1  void TCPIP_UdpUnlisten(uint);
  92      =1  byte TCPIP_UdpNew(byte, byte, ulong, uint, uint);
  93      =1  void TCPIP_UdpClose(byte);
  94      =1  uint TCPIP_QueryUdpLocalPort(byte);
  95      =1  void TCPIP_UdpSend(byte, byte*,byte, byte*, uint);
  96      =1  
  97      =1  // for other purpose //
  98      =1  void TCPIP_AssignLowlayerXmitFunc(void (* )(uint));
  99      =1  void TCPIP_AssignPingRespFunc(void (* )(void));
 100      =1  void TCPIP_PeriodicCheck(void);
 101      =1  void TCPIP_SetPppoeMode(byte);
 102      =1  ulong TCPIP_GetIPAddr(void);
 103      =1  ulong TCPIP_GetSubnetMask(void);
 104      =1  ulong TCPIP_GetGateway(void);
 105      =1  void TCPIP_SetIPAddr(ulong);
 106      =1  void TCPIP_SetSubnetMask(ulong);
 107      =1  void TCPIP_SetGateway(ulong);
 108      =1  void TCPIP_SetMacAddr(byte*);
 109      =1  void TCPIP_Receive(void);
 110      =1  void TCPIP_DontFragment(byte);
 111      =1  
 112      =1  // for uip //
 113      =1  uint htons(uint);
 114      =1  
 115      =1  // for uip_arp //
 116      =1  void uip_arp_ipin(void);
 117      =1  void uip_arp_arpin(void);
 118      =1  void uip_arp_out(void);
 119      =1  
 120      =1  // for debug //
 121      =1  //void TCPIP_Debug(void);
 122      =1  
 123      =1  #endif // End of __TCPIP_H__ //
 124      =1  
 125      =1  
 126      =1  // End of tcpip.h //
  24          #include "pppoe.h"
   1      =1  //=============================================================================
   2      =1  //     Copyright (c) 2006       ASIX Electronic Corporation      All rights reserved.
   3      =1  //
   4      =1  //     This is unpublished proprietary source code of ASIX Electronic Corporation
   5      =1  //
   6      =1  //     The copyright notice above does not evidence any actual or intended
   7      =1  //     publication of such source code.
   8      =1  //=============================================================================
   9      =1  // Module Name: pppoe.h
  10      =1  // Purpose:
  11      =1  // Author:
  12      =1  // Date:
  13      =1  // Notes:
  14      =1  // $Log: pppoe.h,v $
  15      =1  //=============================================================================
  16      =1  
  17      =1  #ifndef __PPPOE_H__
  18      =1  #define __PPPOE_H__
  19      =1  
  20      =1  // INCLUDE FILE DECLARATIONS //
  21      =1  #include "types.h"
   1      =2  //----------------------------------------------------------------------------------------
   2      =2  //     Copyright (c) 2005       Simtek, Incorporated      All rights reserved.
   3      =2  //
   4      =2  //     This is unpublished proprietary source code of Simtek, Inc
C51 COMPILER V8.06   ADAPTER                                                               03/17/2026 10:18:46 PAGE 29  

   5      =2  //
   6      =2  //     The copyright notice above does not evidence any actual or intended
   7      =2  //     publication of such source code.
   8      =2  //----------------------------------------------------------------------------------------
   9      =2  // Module Name : types.h
  10      =2  // Purpose     : Definition of type.
  11      =2  // Author      : Robin Lee
  12      =2  // Date        : 2005-12-28
  13      =2  // Notes       : None.
  14      =2  // $Log: types.h,v $
  15      =2  //----------------------------------------------------------------------------------------
  16      =2  // Revision 1.2  2006/05/18 05:02:30  Louis
  17      =2  // no message
  18      =2  //----------------------------------------------------------------------------------------
  19      =2  // Revision 1.1  2006/04/07 11:36:17  robin6633
  20      =2  // no message
  21      =2  //----------------------------------------------------------------------------------------
  22      =2  
  23      =2  #ifndef TYPES_H
           =2 #define TYPES_H
           =2 
           =2 typedef unsigned short int          bool;                                                 // boolean
           =2 typedef unsigned char               byte;                                                 //  8-bit unsign
             -ed
           =2 typedef unsigned short int          uint;                                                 // 16-bit unsign
             -ed
           =2 typedef short int                   sint;                                                 // 16-bit signed
           =2 typedef unsigned long               ulong;                                                // 32-bit unsign
             -ed
           =2 typedef unsigned short int          word;                                                 // 16-bit unsign
             -ed
           =2 
           =2 #ifndef NULL
           =2   #define NULL ((void *) 0L)
           =2 #endif
           =2 
           =2 #define TRUE                  1
           =2 #define FALSE                 0
           =2 #define ON                    1
           =2 #define OFF                   0
           =2 #define Client                1
           =2 #define Server                0
           =2 
           =2 // Bit Definitions for Bitwise Operation //
           =2 #define BIT0            0x01
           =2 #define BIT1            0x02
           =2 #define BIT2            0x04
           =2 #define BIT3            0x08
           =2 #define BIT4            0x10
           =2 #define BIT5            0x20
           =2 #define BIT6            0x40
           =2 #define BIT7            0x80
           =2 #define BIT8            0x0100
           =2 #define BIT9            0x0200
           =2 #define BIT10           0x0400
           =2 #define BIT11           0x0800
           =2 #define BIT12           0x1000
           =2 #define BIT13           0x2000
           =2 #define BIT14           0x4000
           =2 #define BIT15           0x8000
           =2 #define BIT16           0x00010000
           =2 #define BIT17           0x00020000
C51 COMPILER V8.06   ADAPTER                                                               03/17/2026 10:18:46 PAGE 30  

           =2 #define BIT18           0x00040000
           =2 #define BIT19           0x00080000
           =2 #define BIT20           0x00100000
           =2 #define BIT21           0x00200000
           =2 #define BIT22           0x00400000
           =2 #define BIT23           0x00800000
           =2 #define BIT24           0x01000000
           =2 #define BIT25           0x02000000
           =2 #define BIT26           0x04000000
           =2 #define BIT27           0x08000000
           =2 #define BIT28           0x10000000
           =2 #define BIT29           0x20000000
           =2 #define BIT30           0x40000000
           =2 #define BIT31           0x80000000
           =2 
           =2 #define LOW_BYTE(dat)   (byte) (dat & 0x00FF)
           =2 #define HIGH_BYTE(dat)  (byte)((dat & 0xFF00) >> 8)
           =2 
           =2 #define U32BYTE0(dat)   (byte) (dat  & 0x000000FF)
           =2 #define U32BYTE1(dat)   (byte)((dat  & 0x0000FF00) >> 8)
           =2 #define U32BYTE2(dat)   (byte)((dat  & 0x00FF0000) >> 16)
           =2 #define U32BYTE3(dat)   (byte)((dat  & 0xFF000000) >> 24)
           =2  
           =2 // Keil compiler user define //
           =2 #define     KEIL_CPL
           =2 
           =2 #ifdef KEIL_CPL
           =2  #define XDATA    xdata
           =2  #define IDATA    idata
           =2  #define BDATA    bdata
           =2  #define CODE     code
           =2  #define FAR      far
           =2 #else
           =2  #define XDATA
           =2  #define IDATA
           =2  #define BDATA
           =2  #define CODE
           =2  #define FAR
           =2 #endif
           =2 
           =2 // Serial interface command direction //
           =2 #define     SI_WR                   BIT0
           =2 #define     SI_RD                   BIT1
           =2 
           =2 #define     FLASH_WR_ENB            (PCON |= PWE_)
           =2 #define     FLASH_WR_DISB           (PCON &= ~PWE_)
           =2 
           =2 #endif  // end of TYPES_H //
  22      =1  
  23      =1  // Data length definition //
  24      =1  #define ETH_MAX_DATA     1500
  25      =1  #define PPPOE_MAX_DATA   (ETH_MAX_DATA - 8)
  26      =1  
  27      =1  // Code of PPPoE //
  28      =1  #define PPPOE_CODE_PADI  0x09    // Active Discovery Initiation //
  29      =1  #define PPPOE_CODE_PADO  0x07    // Active Discovery Offer packet //
  30      =1  #define PPPOE_CODE_PADR  0x19    // Active Discovery Request //
  31      =1  #define PPPOE_CODE_PADS  0x65    // Active Discovery Session-confirmation //
  32      =1  #define PPPOE_CODE_PADT  0xA7    // Active Discovery Terminate //
  33      =1  #define PPPOE_CODE_PADM  0xD3    // Active Discovery Message packet //
  34      =1  #define PPPOE_CODE_PADN  0xD4    // Active Discovery Network packet //
  35      =1  #define PPPOE_CODE_SESS  0x00    // code when we have a session //
C51 COMPILER V8.06   ADAPTER                                                               03/17/2026 10:18:46 PAGE 31  

  36      =1  
  37      =1  // Special definition for handshake of session //
  38      =1  #define PPPOE_CODE_PADS_1       0x66
  39      =1  #define PPPOE_CODE_PADS_2       0x67
  40      =1  #define PPPOE_CODE_PADS_3       0x68
  41      =1  #define PPPOE_CODE_PADS_4       0x69
  42      =1  #define PPPOE_CODE_PADS_5       0x6a
  43      =1  #define PPPOE_CODE_PADS_6       0x6b
  44      =1  #define PPPOE_CODE_PADS_7       0x6c
  45      =1  #define PPPOE_CODE_PADS_8       0x6d
  46      =1  
  47      =1  // These 16-bit tags are on network order (RFC2516) //
  48      =1  #define PPPOE_TAG_END_LIST       0x0000
  49      =1  #define PPPOE_TAG_SERVICE_NAME   0x0101
  50      =1  #define PPPOE_TAG_AC_NAME        0x0102
  51      =1  #define PPPOE_TAG_HOST_UNIQ      0x0103
  52      =1  #define PPPOE_TAG_AC_COOKIE      0x0104
  53      =1  #define PPPOE_TAG_VENDOR_SPES    0x0105
  54      =1  #define PPPOE_TAG_RELAY_SESS     0x0106
  55      =1  #define PPPOE_TAG_HOST_URL       0x0111
  56      =1  #define PPPOE_TAG_MOTM           0x0112
  57      =1  #define PPPOE_TAG_IP_ROUTE_ADD   0x0121
  58      =1  #define PPPOE_TAG_SERVICE_ERR    0x0201
  59      =1  #define PPPOE_TAG_AC_SYSTEM_ERR  0x0202
  60      =1  #define PPPOE_TAG_GENERIC_ERR    0x0203
  61      =1  
  62      =1  // Below 16-bit definition are used protocol by PPP handshake //
  63      =1  #define LCP             0xc021  // Link Control Protocol //
  64      =1  #define PAP             0xc023  // Password Authentication Protocol //
  65      =1  #define CHAP    0xc223  // Challenge Handshake Authentication Protocol //
  66      =1  #define IPCP    0x8021  // IP Control Protocol //
  67      =1  
  68      =1  // PPPoE data struct //
  69      =1  typedef struct _pppoe_hdr {
  70      =1          // Ethernet header //
  71      =1          byte    dest_addr[6];
  72      =1          byte    src_addr[6];
  73      =1          uint    ether_type;
  74      =1          // PPPoE header. //
  75      =1          byte    vhl;
  76      =1          byte    pppoe_code;
  77      =1          uint    session_id;
  78      =1          uint    payload_length;
  79      =1          // Payload //
  80      =1          byte    payload_data[PPPOE_MAX_DATA];
  81      =1  }pppoe_hdr;
  82      =1  
  83      =1  // Pointer definition //
  84      =1  //#define PPPOEBUF ((struct pppoe_hdr *)&uip_buf[0])
  85      =1  
  86      =1  // PPPoE tag //
  87      =1  typedef struct _tag {
  88      =1          uint    name;
  89      =1          uint    length;
  90      =1          byte    value[PPPOE_MAX_DATA-4];
  91      =1  }tag;
  92      =1  
  93      =1  // PPP handshake //
  94      =1  typedef struct _ppp_handshake_session {
  95      =1          uint    protocol;
  96      =1          byte    ppp_code;
  97      =1          byte    ppp_id;
C51 COMPILER V8.06   ADAPTER                                                               03/17/2026 10:18:46 PAGE 32  

  98      =1          uint    length;
  99      =1          byte    option[PPPOE_MAX_DATA-10];
 100      =1  }ppp_handshake_session;
 101      =1  
 102      =1  // PPPoE Information //
 103      =1  typedef struct _pppoe_info {
 104      =1          // PPPoE state //
 105      =1          byte    state;
 106      =1          byte    identifier;
 107      =1          byte    wait_count_master;
 108      =1          uint    wait_count_slave;
 109      =1          uint    lcp_length;
 110      =1  } PPPOE_INFO;
 111      =1  
 112      =1  
 113      =1  // GLOBAL VARIABLES //
 114      =1  extern byte PPPOE_GetDnsFlag;
 115      =1  #define PPPOE_GetDNSFlag()              (PPPOE_GetDnsFlag)
 116      =1  #define PPPOE_ClearDNSFlag()    (PPPOE_GetDnsFlag = 0)
 117      =1  
 118      =1  
 119      =1  // EXPORTED SUBPROGRAM SPECIFICATIONS //
 120      =1  void    PPPOE_Init(void);
 121      =1  void    PPPOE_Command(void);
 122      =1  byte    PPPOE_GetState(void);
 123      =1  void    PPPOE_Send(byte* buf, uint length);
 124      =1  byte    PPPOE_Receive(byte *buf, uint length);
 125      =1  void    PPPOE_Setup_Account(byte *username, byte *password);
 126      =1  void    PPPOE_Get_DNS(byte *pri_dns, byte *sec_dns);
 127      =1  
 128      =1  
 129      =1  #endif // End of __PPPOE_H__ //
 130      =1  
 131      =1  // End of pppoe.h //
  25          #include "mstimer.h"
   1      =1  //=============================================================================
   2      =1  //     Copyright (c) 2006       ASIX Electronic Corporation      All rights reserved.
   3      =1  //
   4      =1  //     This is unpublished proprietary source code of ASIX Electronic Corporation
   5      =1  //
   6      =1  //     The copyright notice above does not evidence any actual or intended
   7      =1  //     publication of such source code.
   8      =1  //=============================================================================
   9      =1  // Module Name:mstimer.h
  10      =1  // Purpose:
  11      =1  // Author:
  12      =1  // Date:
  13      =1  // Notes:
  14      =1  // $Log: mstimer.h,v $
  15      =1  // Revision 1.1.1.1  2006/06/20 05:50:28  borbin
  16      =1  // no message
  17      =1  //
  18      =1  // Revision 1.1.1.1  2006/02/23 00:55:10  borbin
  19      =1  // no message
  20      =1  //
  21      =1  //=============================================================================
  22      =1  
  23      =1  #ifndef __MSTIMER_H__
  24      =1  #define __MSTIMER_H__
  25      =1  
  26      =1  // INCLUDE FILE DECLARATIONS //
  27      =1  #include "types.h"
C51 COMPILER V8.06   ADAPTER                                                               03/17/2026 10:18:46 PAGE 33  

   1      =2  //----------------------------------------------------------------------------------------
   2      =2  //     Copyright (c) 2005       Simtek, Incorporated      All rights reserved.
   3      =2  //
   4      =2  //     This is unpublished proprietary source code of Simtek, Inc
   5      =2  //
   6      =2  //     The copyright notice above does not evidence any actual or intended
   7      =2  //     publication of such source code.
   8      =2  //----------------------------------------------------------------------------------------
   9      =2  // Module Name : types.h
  10      =2  // Purpose     : Definition of type.
  11      =2  // Author      : Robin Lee
  12      =2  // Date        : 2005-12-28
  13      =2  // Notes       : None.
  14      =2  // $Log: types.h,v $
  15      =2  //----------------------------------------------------------------------------------------
  16      =2  // Revision 1.2  2006/05/18 05:02:30  Louis
  17      =2  // no message
  18      =2  //----------------------------------------------------------------------------------------
  19      =2  // Revision 1.1  2006/04/07 11:36:17  robin6633
  20      =2  // no message
  21      =2  //----------------------------------------------------------------------------------------
  22      =2  
  23      =2  #ifndef TYPES_H
           =2 #define TYPES_H
           =2 
           =2 typedef unsigned short int          bool;                                                 // boolean
           =2 typedef unsigned char               byte;                                                 //  8-bit unsign
             -ed
           =2 typedef unsigned short int          uint;                                                 // 16-bit unsign
             -ed
           =2 typedef short int                   sint;                                                 // 16-bit signed
           =2 typedef unsigned long               ulong;                                                // 32-bit unsign
             -ed
           =2 typedef unsigned short int          word;                                                 // 16-bit unsign
             -ed
           =2 
           =2 #ifndef NULL
           =2   #define NULL ((void *) 0L)
           =2 #endif
           =2 
           =2 #define TRUE                  1
           =2 #define FALSE                 0
           =2 #define ON                    1
           =2 #define OFF                   0
           =2 #define Client                1
           =2 #define Server                0
           =2 
           =2 // Bit Definitions for Bitwise Operation //
           =2 #define BIT0            0x01
           =2 #define BIT1            0x02
           =2 #define BIT2            0x04
           =2 #define BIT3            0x08
           =2 #define BIT4            0x10
           =2 #define BIT5            0x20
           =2 #define BIT6            0x40
           =2 #define BIT7            0x80
           =2 #define BIT8            0x0100
           =2 #define BIT9            0x0200
           =2 #define BIT10           0x0400
           =2 #define BIT11           0x0800
           =2 #define BIT12           0x1000
           =2 #define BIT13           0x2000
C51 COMPILER V8.06   ADAPTER                                                               03/17/2026 10:18:46 PAGE 34  

           =2 #define BIT14           0x4000
           =2 #define BIT15           0x8000
           =2 #define BIT16           0x00010000
           =2 #define BIT17           0x00020000
           =2 #define BIT18           0x00040000
           =2 #define BIT19           0x00080000
           =2 #define BIT20           0x00100000
           =2 #define BIT21           0x00200000
           =2 #define BIT22           0x00400000
           =2 #define BIT23           0x00800000
           =2 #define BIT24           0x01000000
           =2 #define BIT25           0x02000000
           =2 #define BIT26           0x04000000
           =2 #define BIT27           0x08000000
           =2 #define BIT28           0x10000000
           =2 #define BIT29           0x20000000
           =2 #define BIT30           0x40000000
           =2 #define BIT31           0x80000000
           =2 
           =2 #define LOW_BYTE(dat)   (byte) (dat & 0x00FF)
           =2 #define HIGH_BYTE(dat)  (byte)((dat & 0xFF00) >> 8)
           =2 
           =2 #define U32BYTE0(dat)   (byte) (dat  & 0x000000FF)
           =2 #define U32BYTE1(dat)   (byte)((dat  & 0x0000FF00) >> 8)
           =2 #define U32BYTE2(dat)   (byte)((dat  & 0x00FF0000) >> 16)
           =2 #define U32BYTE3(dat)   (byte)((dat  & 0xFF000000) >> 24)
           =2  
           =2 // Keil compiler user define //
           =2 #define     KEIL_CPL
           =2 
           =2 #ifdef KEIL_CPL
           =2  #define XDATA    xdata
           =2  #define IDATA    idata
           =2  #define BDATA    bdata
           =2  #define CODE     code
           =2  #define FAR      far
           =2 #else
           =2  #define XDATA
           =2  #define IDATA
           =2  #define BDATA
           =2  #define CODE
           =2  #define FAR
           =2 #endif
           =2 
           =2 // Serial interface command direction //
           =2 #define     SI_WR                   BIT0
           =2 #define     SI_RD                   BIT1
           =2 
           =2 #define     FLASH_WR_ENB            (PCON |= PWE_)
           =2 #define     FLASH_WR_DISB           (PCON &= ~PWE_)
           =2 
           =2 #endif  // end of TYPES_H //
  28      =1  #include "mstimer_cfg.h"
   1      =2  /*
   2      =2   ******************************************************************************
   3      =2   *     Copyright (c) 2006       ASIX Electronic Corporation      All rights reserved.
   4      =2   *
   5      =2   *     This is unpublished proprietary source code of ASIX Electronic Corporation
   6      =2   *
   7      =2   *     The copyright notice above does not evidence any actual or intended
   8      =2   *     publication of such source code.
   9      =2   ******************************************************************************
C51 COMPILER V8.06   ADAPTER                                                               03/17/2026 10:18:46 PAGE 35  

  10      =2   */
  11      =2  /*=============================================================================
  12      =2   * Module Name:mstimer_cfg.h
  13      =2   * Purpose:
  14      =2   * Author:
  15      =2   * Date:
  16      =2   * Notes:
  17      =2   * $Log: mstimer_cfg.h,v $
  18      =2   * Revision 1.1.1.1  2006/06/20 05:50:28  borbin
  19      =2   * no message
  20      =2   *
  21      =2   * Revision 1.1.1.1  2006/02/23 00:55:10  borbin
  22      =2   * no message
  23      =2   *
  24      =2   *=============================================================================
  25      =2   */
  26      =2  
  27      =2  #ifndef __MSTIMER_CFG_H__
  28      =2  #define __MSTIMER_CFG_H__
  29      =2  
  30      =2  
  31      =2  /*-------------------------------------------------------------*/
  32      =2  #define SWTIMER_INTERVAL                                10      /* sw-timer timeout per 10 ms */
  33      =2  
  34      =2  /*-------------------------------------------------------------*/
  35      =2  /* NAMING CONSTANT DECLARATIONS */
  36      =2  #define SWTIMER_NOT_SUPPORT_STOP_FUNC   0       /* driver does not support sw-timer
  37      =2                                                                                                  stop function. */
  38      =2  #define SWTIMER_SUPPORT_STOP_FUNC               1       /* driver supports stop function. */
  39      =2  
  40      =2  #define SWTIMER_STOP_FUNC               (SWTIMER_NOT_SUPPORT_STOP_FUNC)
  41      =2  /*-------------------------------------------------------------*/
  42      =2  
  43      =2  
  44      =2  #endif /* End of __MSTIMER_CFG_H__ */
  45      =2  
  46      =2  
  47      =2  /* End of mstimer_cfg.h */
  29      =1  
  30      =1  // NAMING CONSTANT DECLARATIONS //
  31      =1  #define SWTIMER_COUNT_SECOND    (1000 / SWTIMER_INTERVAL) // timer expired count per second //
  32      =1  
  33      =1  // SFR 0x94 definitions //
  34      =1  #define SWTIMER_EXPIRED                 BIT1
  35      =1  
  36      =1  // TIMER register definitions //
  37      =1  #define SWTIMER_REG                             0x0C
  38      =1  
  39      =1  // Bit definitions: SW_TIMER_REG //
  40      =1  #define SWTIMER_START                   BIT4
  41      =1  #define SWTIMER_RESET                   BIT5
  42      =1  #define SWTIMER_INT_ENABLE              BIT7
  43      =1  
  44      =1  // GLOBAL VARIABLES //
  45      =1  extern byte IDATA ExecuteRuntimeFlag;
  46      =1  
  47      =1  // EXPORTED SUBPROGRAM SPECIFICATIONS //
  48      =1  //---------------------------------------------------------------
  49      =1  void SWTIMER_Init(void);
  50      =1  void SWTIMER_Start(void);
  51      =1  ulong SWTIMER_Tick(void);
  52      =1  #if (SWTIMER_STOP_FUNC == SWTIMER_SUPPORT_STOP_FUNC)
C51 COMPILER V8.06   ADAPTER                                                               03/17/2026 10:18:46 PAGE 36  

           =1 void SWTIMER_Stop(void);
           =1 #endif
  55      =1  
  56      =1  #endif // End of __MSTIMER_H__ //
  57      =1                                    
  58      =1  // End of mstimer.h //
  26          #include "dhcpc.h"
   1      =1  /*
   2      =1   *********************************************************************************
   3      =1   *     Copyright (c) 2005       ASIX Electronic Corporation      All rights reserved.
   4      =1   *
   5      =1   *     This is unpublished proprietary source code of ASIX Electronic Corporation
   6      =1   *
   7      =1   *     The copyright notice above does not evidence any actual or intended
   8      =1   *     publication of such source code.
   9      =1   *********************************************************************************
  10      =1   */
  11      =1  /*================================================================================
  12      =1   * Module Name : uip_dhcp.h
  13      =1   * Purpose     : A header file of DHCP module over uIP.
  14      =1   * Author      : Robin Lee
  15      =1   * Date        : 2006-04-13
  16      =1   * Notes       :
  17      =1   * $Log: dhcpc.h,v $
  18      =1   * Revision 1.1.1.1  2006/06/20 05:50:27  borbin
  19      =1   * no message
  20      =1   *
  21      =1   * Revision 1.1  2006/05/16 05:02:50  robin6633
  22      =1   * no message
  23      =1   *
  24      =1   *================================================================================
  25      =1   */
  26      =1  #ifndef UIP_DHCP_H
  27      =1  #define UIP_DHCP_H
  28      =1  
  29      =1  /* INCLUDE FILE DECLARATIONS */
  30      =1  #include "types.h"
   1      =2  //----------------------------------------------------------------------------------------
   2      =2  //     Copyright (c) 2005       Simtek, Incorporated      All rights reserved.
   3      =2  //
   4      =2  //     This is unpublished proprietary source code of Simtek, Inc
   5      =2  //
   6      =2  //     The copyright notice above does not evidence any actual or intended
   7      =2  //     publication of such source code.
   8      =2  //----------------------------------------------------------------------------------------
   9      =2  // Module Name : types.h
  10      =2  // Purpose     : Definition of type.
  11      =2  // Author      : Robin Lee
  12      =2  // Date        : 2005-12-28
  13      =2  // Notes       : None.
  14      =2  // $Log: types.h,v $
  15      =2  //----------------------------------------------------------------------------------------
  16      =2  // Revision 1.2  2006/05/18 05:02:30  Louis
  17      =2  // no message
  18      =2  //----------------------------------------------------------------------------------------
  19      =2  // Revision 1.1  2006/04/07 11:36:17  robin6633
  20      =2  // no message
  21      =2  //----------------------------------------------------------------------------------------
  22      =2  
  23      =2  #ifndef TYPES_H
           =2 #define TYPES_H
           =2 
C51 COMPILER V8.06   ADAPTER                                                               03/17/2026 10:18:46 PAGE 37  

           =2 typedef unsigned short int          bool;                                                 // boolean
           =2 typedef unsigned char               byte;                                                 //  8-bit unsign
             -ed
           =2 typedef unsigned short int          uint;                                                 // 16-bit unsign
             -ed
           =2 typedef short int                   sint;                                                 // 16-bit signed
           =2 typedef unsigned long               ulong;                                                // 32-bit unsign
             -ed
           =2 typedef unsigned short int          word;                                                 // 16-bit unsign
             -ed
           =2 
           =2 #ifndef NULL
           =2   #define NULL ((void *) 0L)
           =2 #endif
           =2 
           =2 #define TRUE                  1
           =2 #define FALSE                 0
           =2 #define ON                    1
           =2 #define OFF                   0
           =2 #define Client                1
           =2 #define Server                0
           =2 
           =2 // Bit Definitions for Bitwise Operation //
           =2 #define BIT0            0x01
           =2 #define BIT1            0x02
           =2 #define BIT2            0x04
           =2 #define BIT3            0x08
           =2 #define BIT4            0x10
           =2 #define BIT5            0x20
           =2 #define BIT6            0x40
           =2 #define BIT7            0x80
           =2 #define BIT8            0x0100
           =2 #define BIT9            0x0200
           =2 #define BIT10           0x0400
           =2 #define BIT11           0x0800
           =2 #define BIT12           0x1000
           =2 #define BIT13           0x2000
           =2 #define BIT14           0x4000
           =2 #define BIT15           0x8000
           =2 #define BIT16           0x00010000
           =2 #define BIT17           0x00020000
           =2 #define BIT18           0x00040000
           =2 #define BIT19           0x00080000
           =2 #define BIT20           0x00100000
           =2 #define BIT21           0x00200000
           =2 #define BIT22           0x00400000
           =2 #define BIT23           0x00800000
           =2 #define BIT24           0x01000000
           =2 #define BIT25           0x02000000
           =2 #define BIT26           0x04000000
           =2 #define BIT27           0x08000000
           =2 #define BIT28           0x10000000
           =2 #define BIT29           0x20000000
           =2 #define BIT30           0x40000000
           =2 #define BIT31           0x80000000
           =2 
           =2 #define LOW_BYTE(dat)   (byte) (dat & 0x00FF)
           =2 #define HIGH_BYTE(dat)  (byte)((dat & 0xFF00) >> 8)
           =2 
           =2 #define U32BYTE0(dat)   (byte) (dat  & 0x000000FF)
           =2 #define U32BYTE1(dat)   (byte)((dat  & 0x0000FF00) >> 8)
           =2 #define U32BYTE2(dat)   (byte)((dat  & 0x00FF0000) >> 16)
C51 COMPILER V8.06   ADAPTER                                                               03/17/2026 10:18:46 PAGE 38  

           =2 #define U32BYTE3(dat)   (byte)((dat  & 0xFF000000) >> 24)
           =2  
           =2 // Keil compiler user define //
           =2 #define     KEIL_CPL
           =2 
           =2 #ifdef KEIL_CPL
           =2  #define XDATA    xdata
           =2  #define IDATA    idata
           =2  #define BDATA    bdata
           =2  #define CODE     code
           =2  #define FAR      far
           =2 #else
           =2  #define XDATA
           =2  #define IDATA
           =2  #define BDATA
           =2  #define CODE
           =2  #define FAR
           =2 #endif
           =2 
           =2 // Serial interface command direction //
           =2 #define     SI_WR                   BIT0
           =2 #define     SI_RD                   BIT1
           =2 
           =2 #define     FLASH_WR_ENB            (PCON |= PWE_)
           =2 #define     FLASH_WR_DISB           (PCON &= ~PWE_)
           =2 
           =2 #endif  // end of TYPES_H //
  31      =1  
  32      =1  
  33      =1  /* MACRO DECLARATIONS */
  34      =1  #define         DHCP_CHADDR_LEN                         16
  35      =1  #define         DHCP_SNAME_LEN                          64
  36      =1  #define         DHCP_FILE_LEN                           128
  37      =1  #define         DHCP_OPTIONS_LEN                        312
  38      =1  #define         DHCP_MAGIC_COOKIE_LEN           4
  39      =1  #define         DHCP_FIXED_LEN                          236
  40      =1  
  41      =1  #define         DHCP_REQUEST_TIMEOUT            (2 * SWTIMER_COUNT_SECOND)
  42      =1  #define         DHCP_MAX_RETRY                          6
  43      =1  
  44      =1  #define         DHCP_CLIENT_XID                         0x12340000
  45      =1  #define         DHCP_CLIENT_BROADCAST           0xFFFFFFFF
  46      =1  
  47      =1  #define         DHCP_IDLE_STATE                         0
  48      =1  #define         DHCP_INITIAL_STATE                      BIT0
  49      =1  #define         DHCP_DISCOVER_STATE                     BIT1
  50      =1  #define         DHCP_RCV_OFFER_STATE            BIT2
  51      =1  #define         DHCP_REQUEST_STATE                      BIT3
  52      =1  #define         DHCP_RCV_ACK_STATE                      BIT4
  53      =1  #define         DHCP_DISCOVER_TX_STATE          BIT5
  54      =1  #define         DHCP_REQUEST_TX_STATE           BIT6
  55      =1  
  56      =1  #define         DHCP_CLIENT_PORT                        68
  57      =1  #define         DHCP_SERVER_PORT                        67
  58      =1  
  59      =1  #define         DHCP_C_TO_S                                     1
  60      =1  #define         DHCP_S_TO_C                                     2
  61      =1  #define         DHCP_HTYPE_ETHERNET                     1
  62      =1  #define         DHCP_HLEN_ETHERNET                      6
  63      =1  #define         DHCP_SERVER_BROADCAST           1
  64      =1  #define         DHCP_MSG_LEN                            236
  65      =1  
C51 COMPILER V8.06   ADAPTER                                                               03/17/2026 10:18:46 PAGE 39  

  66      =1  #define         DHCP_DISCOVER                           1
  67      =1  #define         DHCP_OFFER                                      2
  68      =1  #define         DHCP_REQUEST                            3
  69      =1  #define         DHCP_DECLINE                            4
  70      =1  #define         DHCP_ACK                                        5
  71      =1  #define         DHCP_NAK                                        6
  72      =1  #define         DHCP_RELEASE                            7
  73      =1  
  74      =1  #define         DHCP_OPTION_SUBNET_MASK         1
  75      =1  #define         DHCP_OPTION_ROUTER                      3
  76      =1  #define         DHCP_OPTION_DNS_SERVER          6
  77      =1  #define         DHCP_OPTION_REQ_IPADDR          50
  78      =1  #define         DHCP_OPTION_MSG_TYPE            53
  79      =1  #define         DHCP_OPTION_SERVER_ID           54
  80      =1  #define         DHCP_OPTION_PAR_REQ_LIST        55
  81      =1  #define         DHCP_OPTION_END                         255
  82      =1  
  83      =1  #define         DHCP_FIXED_FORMAT_LEN           240
  84      =1  #define         DHCP_MIN_OPTIONS_LEN            64
  85      =1  
  86      =1  #define         IP_HEADER_LEN                           20
  87      =1  #define         UDP_HEADER_LEN                          8
  88      =1  
  89      =1  /* TYPE DECLARATIONS */
  90      =1  typedef struct _dhcp_header {
  91      =1          byte    Op;
  92      =1      byte        Htype;
  93      =1      byte        Hlen;
  94      =1      byte        Hops;
  95      =1      ulong       Xid;
  96      =1      uint        Seconds;
  97      =1      uint        Flags;
  98      =1      ulong       CiAddr;
  99      =1      ulong       YiAddr;
 100      =1      ulong       SiAddr;
 101      =1      ulong       GiAddr;
 102      =1      byte        ChAddr[DHCP_CHADDR_LEN];
 103      =1      byte        Sname[DHCP_SNAME_LEN];
 104      =1      byte        File[DHCP_FILE_LEN];
 105      =1      byte        Options[DHCP_OPTIONS_LEN];
 106      =1  }       DHCP_HEADER;
 107      =1  
 108      =1  typedef struct _dhcp_info{
 109      =1          char            State;
 110      =1          byte            AppId;
 111      =1          byte            SocketId;
 112      =1          DHCP_HEADER     *dhcpPktPtr;
 113      =1          byte            *pOpt;
 114      =1          uint            OptionsCounter;
 115      =1          uint            Secs;
 116      =1          uint            TimeoutInterval; // second
 117      =1          byte            ServerId[4];
 118      =1          byte            ClientOfferedIp[4];
 119      =1          ulong           IpAddr;
 120      =1          ulong           NetMask;
 121      =1          ulong           DnsAddr;
 122      =1          ulong           DefaultRouter;
 123      =1  } DHCP_INFO;
 124      =1  
 125      =1  
 126      =1  /* GLOBAL VARIABLES */
 127      =1  
C51 COMPILER V8.06   ADAPTER                                                               03/17/2026 10:18:46 PAGE 40  

 128      =1  
 129      =1  /* EXPORTED SUBPROGRAM SPECIFICATIONS */
 130      =1  bool DHCP_Init(void);
 131      =1  void DHCP_Start(void);
 132      =1  void DHCP_Send(void);
 133      =1  char DHCP_GetState(void);
 134      =1  void DHCP_EventHandle(byte, byte);
 135      =1  void DHCP_ReceiveHandle(byte XDATA*, uint, byte);
 136      =1  void DHCP_RejectOffer(void);
 137      =1  ulong DHCP_GetOfferIp(void);
 138      =1  
 139      =1  #endif /* End of UIP_DHCP_H */
  27          
  28          // NAMING CONSTANT DECLARATIONS //
  29          #define ETH_HEADER_LEN          14
  30          #define ETH_NON_TRANSPARENT     0
  31          #define ETH_TRANSPARENT         1
  32          #define ETH_ARP_SEND_INTERVAL_TIME      180
  33          
  34          // GLOBAL VARIABLES DECLARATIONS //
  35          //byte ETH_IsPppoe = 0;
  36          byte ETH_DoDhcp = 0;
  37          //byte ETH_PppoeHeaderLen = 0;
  38          byte ETH_DhcpArpReply = TRUE;
  39          
  40          // LOCAL VARIABLES DECLARATIONS //
  41          static byte eth_EthHeadLen = 0;
  42          static uint eth_PayLoadOffset = 0;
  43          static ulong eth_ArpSendIntervalTime = 3;
  44          static ulong eth_ArpSendTime = 0;
  45          
  46          // LOCAL SUBPROGRAM DECLARATIONS //
  47          static void eth_RcvHandle(byte XDATA*, uint, byte);
  48          
  49          //
  50          // ----------------------------------------------------------------------------
  51          // Function Name: ETH_Init
  52          // Purpose:
  53          // Params:
  54          // Returns:
  55          // Note:
  56          // ----------------------------------------------------------------------------
  57           //
  58          void ETH_Init(void)
  59          {
  60   1              byte*           point;
  61   1      
  62   1              // ethernet initiation //
  63   1              STOE_Init(ETH_PHY_SENSE_TYPE);
  64   1              STOE_RcvCallback = eth_RcvHandle;
  65   1      
  66   1              // Initialise TCP/UDP up-layer interfaces //
  67   1              TCPIP_Init(ETH_TRANSPARENT);
  68   1              eth_EthHeadLen = ETH_HEADER_LEN;
  69   1              // Initialise the ARP cache. //
  70   1              point = MAC_GetMacAddr();
  71   1              TCPIP_SetMacAddr(point);
  72   1      
  73   1              TCPIP_AssignLowlayerXmitFunc(ETH_Send);
  74   1              // PPPoE initiation //
  75   1      //      PPPOE_Init();
  76   1      } // End of ETH_Init //
C51 COMPILER V8.06   ADAPTER                                                               03/17/2026 10:18:46 PAGE 41  

  77          
  78          //
  79          // ----------------------------------------------------------------------------
  80          // Function Name: ETH_Start
  81          // Purpose:
  82          // Params:
  83          // Returns:
  84          // Note:
  85          // ----------------------------------------------------------------------------
  86           //
  87          void ETH_Start(void)
  88          {
  89   1              STOE_Start();
  90   1      
  91   1      } // End of ETH_Start //
  92          
  93          //
  94          // ----------------------------------------------------------------------------
  95          // Function Name: eth_RcvHandle
  96          // Purpose:
  97          // Params:
  98          // Returns:
  99          // Note:
 100          // ----------------------------------------------------------------------------
 101           //
 102          void eth_RcvHandle(byte XDATA* pbuf, uint length, byte protocol)
 103          {
 104   1              // copy packet into uIP buffer //
 105   1              DMA_GrantXdata(TCPIP_GetRcvBuffer(), pbuf, length);
 106   1      
 107   1              TCPIP_SetRcvLength(length);
 108   1      
 109   1              switch (protocol)
 110   1              {
 111   2              default:
 112   2                      break;
 113   2              case 1:
 114   2              case 2:
 115   2              case 6:
 116   2              case 17:
 117   2                      if (ETH_DoDhcp == 0)
 118   2                              uip_arp_ipin();
 119   2                      TCPIP_Receive();
 120   2                      if(TCPIP_GetXmitLength() > 0)
 121   2                      {
 122   3                              //if (!ETH_IsPppoe)
 123   3                                      uip_arp_out();
 124   3                              ETH_Send(0);
 125   3                      }
 126   2                      break;
 127   2              case 0xff:
 128   2                              if(pbuf[12] == 0x08 && pbuf[13] == 0x06)
 129   2                              {
 130   3                                      uip_arp_arpin();
 131   3                                      if ((pbuf[21] == 0x02) && ((*(ulong *)&pbuf[28]) == STOE_GetIPAddr()))
 132   3                                      {
 133   4                                              if (ETH_CheckDhcpArpReply() == FALSE)
 134   4                                                      ETH_SetDhcpArpReplyFlag(TRUE);
 135   4                                      }
 136   3                                      else
 137   3                                      {
 138   4                                  if(TCPIP_GetXmitLength() > 0)
C51 COMPILER V8.06   ADAPTER                                                               03/17/2026 10:18:46 PAGE 42  

 139   4                                                      ETH_Send(0);
 140   4      
 141   4                                              if (TCPIP_GetGwMacAddrFlag())
 142   4                                                      eth_ArpSendIntervalTime = ETH_ARP_SEND_INTERVAL_TIME;
 143   4                                      }
 144   3                              }
 145   2      
 146   2                      break;
 147   2              }  // End of switch //
 148   1      
 149   1      } // End of eth_RcvHandle //
 150          
 151          //
 152          // ----------------------------------------------------------------------------
 153          // Function Name: ETH_Send
 154          // Purpose: Copy Data to Mac ram and send to Ethernet.
 155          // Params: 
 156          // Returns: none
 157          // Note:
 158          // ----------------------------------------------------------------------------
 159           //
 160          void ETH_Send(uint      payloadOffset)
 161          {
 162   1              uint    length = TCPIP_GetXmitLength();
 163   1      
 164   1              eth_PayLoadOffset = payloadOffset;
 165   1              ETH_SendPkt(TCPIP_GetXmitBuffer(), length);
 166   1      } // End of ETH_Send() //
 167          
 168          //
 169          // ----------------------------------------------------------------------------
 170          // Function Name: ETH_SendPkt
 171          // Purpose: Copy Data to Mac ram and send to Ethernet.
 172          // Params: none
 173          // Returns: none
 174          // Note:
 175          // ----------------------------------------------------------------------------
 176           //
 177          void ETH_SendPkt(byte XDATA* psour, uint length)
 178          {
 179   1              byte XDATA* pBuf;
 180   1              byte XDATA* point;
 181   1              uint            len;
 182   1              uint            addr;
 183   1              byte            isPppoeIp = 0;
 184   1              uint            totalLen = length;
 185   1              ulong   sourIp = STOE_GetIPAddr();
 186   1              ulong   destIp = *(ulong*)&psour[16];
 187   1              byte    mode = 0;
 188   1      
 189   1              if (!PBDP->MacInfo.LinkSpeed)
 190   1                      return;
 191   1      
 192   1              pBuf = STOE_AssignSendBuf(length + MAC_TX_RX_HEADER);
 193   1              if (!pBuf)
 194   1                      return;
 195   1              point = pBuf + MAC_TX_RX_HEADER;
 196   1      
 197   1              {
 198   2                      if ((*(psour + 12) == 8) && (*(psour + 13) == 0))
 199   2                              PBDP->STOE_TxInform.Protocol = *(psour + 23);
 200   2                      else
C51 COMPILER V8.06   ADAPTER                                                               03/17/2026 10:18:46 PAGE 43  

 201   2                              PBDP->STOE_TxInform.Protocol = 0xff;
 202   2              }
 203   1      
 204   1              if (pBuf)
 205   1              {
 206   2                      if (eth_PayLoadOffset)
 207   2                              len = eth_PayLoadOffset;
 208   2                      else
 209   2                      {
 210   3                                      len = 40 + eth_EthHeadLen;
 211   3                      }
 212   2      
 213   2                      if (length > len)
 214   2                      {
 215   3                              // Do software DMA //
 216   3                              DMA_GrantXdata(point, TCPIP_GetXmitBuffer(), len);
 217   3      
 218   3                              point += len;
 219   3                              length -= len;
 220   3      
 221   3                              addr = (ulong)(TCPIP_GetPayloadBuffer()) >> 8;
 222   3      
 223   3                              if(addr > 0x8000)       // if(flag_dataincode) //
 224   3                                      STOE_CopyCode2TPBR(point, TCPIP_GetPayloadBuffer(), length);
 225   3                              else if (addr >= 0x200)
 226   3                                      DMA_Grant(point, TCPIP_GetPayloadBuffer(), length);
 227   3                              else
 228   3                                      DMA_GrantXdata(point, TCPIP_GetPayloadBuffer(), length);
 229   3                      }
 230   2                      else
 231   2                      {
 232   3                              // Do software DMA //
 233   3                              DMA_GrantXdata(point, TCPIP_GetXmitBuffer(), len);
 234   3      
 235   3                      } // End of if (length > len) //
 236   2      
 237   2                      if (isPppoeIp)
 238   2                              pBuf[5] = 0x80;
 239   2                      else
 240   2                              pBuf[5] = 0;
 241   2                      STOE_Send(pBuf, totalLen, PBDP->STOE_TxInform.Protocol);
 242   2              }
 243   1      
 244   1              eth_PayLoadOffset = 0; // clear offset flag //
 245   1      
 246   1      } // End of ETH_SendPkt() //
 247          
 248          // ----------------------------------------------------------------------------
 249          // Function Name: eth_CheckGatewayIp
 250          // Purpose: Copy Data to Mac ram and send to Ethernet.
 251          // Params: none
 252          // Returns: none
 253          // Note:
 254          // ----------------------------------------------------------------------------
 255          bool eth_CheckGatewayIp(byte XDATA* pBuf)
 256          {
 257   1              ulong   gatewayIp, receiveIp;
 258   1      
 259   1              gatewayIp = STOE_GetGateway();
 260   1              if (!gatewayIp)
 261   1              {
 262   2                      return FALSE;
C51 COMPILER V8.06   ADAPTER                                                               03/17/2026 10:18:46 PAGE 44  

 263   2              }
 264   1              receiveIp = *(ulong *)&pBuf[28];
 265   1              if (gatewayIp != receiveIp)
 266   1              {
 267   2                      return FALSE;
 268   2              }
 269   1              return TRUE;
 270   1      }
 271          
 272          // ----------------------------------------------------------------------------
 273          // Function Name: ETH_SendArpToGateway
 274          // Purpose: send arp request to gateway
 275          // Params: none
 276          // Returns: none
 277          // Note:
 278          // ----------------------------------------------------------------------------
 279          void ETH_SendArpToGateway(bool StopSendAfterRcvReply)
 280          {
 281   1              ulong   gateway, ip, TempTime;
 282   1              byte    *buf = uip_buf;
 283   1              byte*   point;
 284   1      
 285   1              if (StopSendAfterRcvReply)
 286   1              {
 287   2                      if (TCPIP_GetGwMacAddrFlag())
 288   2                              return;
 289   2              }
 290   1              // first check stoe gateway setting
 291   1              gateway = STOE_GetGateway();
 292   1              if (!gateway)
 293   1                      return;
 294   1      
 295   1              // check stoe source ip setting
 296   1              ip = STOE_GetIPAddr();
 297   1              if (!ip)
 298   1                      return;
 299   1      
 300   1              // check is it time to send arp request
 301   1              TempTime = SWTIMER_Tick();
 302   1              if ((TempTime - eth_ArpSendTime) < (eth_ArpSendIntervalTime * SWTIMER_COUNT_SECOND))
 303   1                      return;
 304   1      
 305   1              // update time
 306   1              eth_ArpSendTime = TempTime;
 307   1      
 308   1              if (TCPIP_GetGwMacAddrFlag())
 309   1              {
 310   2                      eth_ArpSendIntervalTime = ETH_ARP_SEND_INTERVAL_TIME;
 311   2              }
 312   1              else
 313   1              {
 314   2                      eth_ArpSendIntervalTime = 10;
 315   2              }
 316   1              // send arp request to gateway,
 317   1              // in order to get gateway MAC address.
 318   1              point = MAC_GetMacAddr();
 319   1              uip_len = 42;
 320   1      
 321   1              buf[0] = 0xFF;
 322   1              buf[1] = 0xFF;
 323   1              buf[2] = 0xFF;
 324   1              buf[3] = 0xFF;
C51 COMPILER V8.06   ADAPTER                                                               03/17/2026 10:18:46 PAGE 45  

 325   1              buf[4] = 0xFF;
 326   1              buf[5] = 0xFF;
 327   1              buf[6] = *(point);
 328   1              buf[7] = *(point + 1);
 329   1              buf[8] = *(point + 2);
 330   1              buf[9] = *(point + 3);
 331   1              buf[10] = *(point + 4);
 332   1              buf[11] = *(point + 5);
 333   1              buf[12] = 0x08; 
 334   1              buf[13] = 0x06;
 335   1      
 336   1              buf[14] = 0x00;
 337   1              buf[15] = 0x01;
 338   1              buf[16] = 0x08;
 339   1              buf[17] = 0x00;
 340   1              buf[18] = 0x06;
 341   1              buf[19] = 0x04;
 342   1              buf[20] = 0x00;
 343   1              buf[21] = 0x01;
 344   1      
 345   1              buf[22] = *(point);
 346   1              buf[23] = *(point + 1);
 347   1              buf[24] = *(point + 2);
 348   1              buf[25] = *(point + 3);
 349   1              buf[26] = *(point + 4);
 350   1              buf[27] = *(point + 5);
 351   1              *(ulong *)&buf[28] = STOE_GetIPAddr();
 352   1              
 353   1              buf[32] = 0x00;
 354   1              buf[33] = 0x00;
 355   1              buf[34] = 0x00;
 356   1              buf[35] = 0x00;
 357   1              buf[36] = 0x00;
 358   1              buf[37] = 0x00;
 359   1              *(ulong *)&buf[38] = gateway;
 360   1      
 361   1              ETH_Send(0);
 362   1      
 363   1              return;
 364   1      }
 365          
 366          //
 367          // ----------------------------------------------------------------------------
 368          // Function Name: ETH_SendArpRequest
 369          // Purpose: send arp request to dstIp
 370          // Params: none
 371          // Returns: none
 372          // Note:
 373          // ----------------------------------------------------------------------------
 374           //
 375          void ETH_SendArpRequest(ulong dstIp)
 376          {
 377   1              byte *buf = uip_buf;
 378   1              byte *point;
 379   1      
 380   1          // in order to get gateway MAC address.
 381   1              point = MAC_GetMacAddr();
 382   1              uip_len = 42;
 383   1      
 384   1              buf[0] = 0xFF;
 385   1              buf[1] = 0xFF;
 386   1              buf[2] = 0xFF;
C51 COMPILER V8.06   ADAPTER                                                               03/17/2026 10:18:46 PAGE 46  

 387   1              buf[3] = 0xFF;
 388   1              buf[4] = 0xFF;
 389   1              buf[5] = 0xFF;
 390   1              buf[6] = *(point);
 391   1              buf[7] = *(point + 1);
 392   1              buf[8] = *(point + 2);
 393   1              buf[9] = *(point + 3);
 394   1              buf[10] = *(point + 4);
 395   1              buf[11] = *(point + 5);
 396   1              buf[12] = 0x08; 
 397   1              buf[13] = 0x06;
 398   1      
 399   1              buf[14] = 0x00;
 400   1              buf[15] = 0x01;
 401   1              buf[16] = 0x08;
 402   1              buf[17] = 0x00;
 403   1              buf[18] = 0x06;
 404   1              buf[19] = 0x04;
 405   1              buf[20] = 0x00;
 406   1              buf[21] = 0x01;
 407   1      
 408   1              buf[22] = *(point);
 409   1              buf[23] = *(point + 1);
 410   1              buf[24] = *(point + 2);
 411   1              buf[25] = *(point + 3);
 412   1              buf[26] = *(point + 4);
 413   1              buf[27] = *(point + 5);
 414   1              *(ulong *)&buf[28] = STOE_GetIPAddr();
 415   1              
 416   1              buf[32] = 0x00;
 417   1              buf[33] = 0x00;
 418   1              buf[34] = 0x00;
 419   1              buf[35] = 0x00;
 420   1              buf[36] = 0x00;
 421   1              buf[37] = 0x00;
 422   1              *(ulong *)&buf[38] = dstIp;
 423   1      
 424   1              ETH_Send(0);
 425   1      
 426   1              return;
 427   1      }
 428          
 429          //
 430          // ----------------------------------------------------------------------------
 431          // Function Name: ETH_RestartSendArpToGateway
 432          // Purpose: Restart sending arp request to gateway
 433          // Params: none
 434          // Returns: none
 435          // Note:
 436          // ----------------------------------------------------------------------------
 437           //
 438          void ETH_RestartSendArpToGateway(void)
 439          {
 440   1              TCPIP_SetGwMacAddrFlag(FALSE);
 441   1              eth_ArpSendIntervalTime = 3;
 442   1      }
 443          
 444          //
 445          // ----------------------------------------------------------------------------
 446          // Function Name: ETH_SendDhcpArpRequest
 447          // Purpose: send arp request to gateway
 448          // Params: none
C51 COMPILER V8.06   ADAPTER                                                               03/17/2026 10:18:46 PAGE 47  

 449          // Returns: none
 450          // Note:
 451          // ----------------------------------------------------------------------------
 452           //
 453          void ETH_SendDhcpArpRequest(void)
 454          {
 455   1              byte    *buf = uip_buf;
 456   1              byte*   point;
 457   1      
 458   1              eth_ArpSendIntervalTime = 5;
 459   1      
 460   1              point = MAC_GetMacAddr();
 461   1              uip_len = 42;
 462   1      
 463   1              buf[0] = 0xFF;
 464   1              buf[1] = 0xFF;
 465   1              buf[2] = 0xFF;
 466   1              buf[3] = 0xFF;
 467   1              buf[4] = 0xFF;
 468   1              buf[5] = 0xFF;
 469   1              buf[6] = *(point);
 470   1              buf[7] = *(point + 1);
 471   1              buf[8] = *(point + 2);
 472   1              buf[9] = *(point + 3);
 473   1              buf[10] = *(point + 4);
 474   1              buf[11] = *(point + 5);
 475   1              buf[12] = 0x08; 
 476   1              buf[13] = 0x06;
 477   1      
 478   1              buf[14] = 0x00;
 479   1              buf[15] = 0x01;
 480   1              buf[16] = 0x08;
 481   1              buf[17] = 0x00;
 482   1              buf[18] = 0x06;
 483   1              buf[19] = 0x04;
 484   1              buf[20] = 0x00;
 485   1              buf[21] = 0x01;
 486   1      
 487   1              buf[22] = *(point);
 488   1              buf[23] = *(point + 1);
 489   1              buf[24] = *(point + 2);
 490   1              buf[25] = *(point + 3);
 491   1              buf[26] = *(point + 4);
 492   1              buf[27] = *(point + 5);
 493   1              *(ulong *)&buf[28] = STOE_GetIPAddr(); // Source IP address
 494   1              
 495   1              buf[32] = 0x00;
 496   1              buf[33] = 0x00;
 497   1              buf[34] = 0x00;
 498   1              buf[35] = 0x00;
 499   1              buf[36] = 0x00;
 500   1              buf[37] = 0x00;
 501   1              *(ulong *)&buf[38] = STOE_GetIPAddr(); // Destination IP address
 502   1      
 503   1              ETH_DhcpArpReply = FALSE;
 504   1      
 505   1              ETH_Send(0);
 506   1      
 507   1              return;
 508   1      }
 509          
 510          // End of adapter.c //
C51 COMPILER V8.06   ADAPTER                                                               03/17/2026 10:18:46 PAGE 48  

ASSEMBLY LISTING OF GENERATED OBJECT CODE


             ; FUNCTION ETH_Init (BEGIN)
                                           ; SOURCE LINE # 58
                                           ; SOURCE LINE # 59
                                           ; SOURCE LINE # 63
0000 7F00              MOV     R7,#00H
0002 12000000    E     LCALL   _STOE_Init
                                           ; SOURCE LINE # 64
0006 7B00        R     MOV     R3,#MBYTE _eth_RcvHandle
0008 7A00        R     MOV     R2,#HIGH _eth_RcvHandle
000A 7900        R     MOV     R1,#LOW _eth_RcvHandle
000C 90000000    E     MOV     DPTR,#_STOE_RcvCallback
0010 EB                MOV     A,R3
0011 F0                MOVX    @DPTR,A
0012 A3                INC     DPTR
0013 EA                MOV     A,R2
0014 F0                MOVX    @DPTR,A
0015 A3                INC     DPTR
0016 E9                MOV     A,R1
0017 F0                MOVX    @DPTR,A
                                           ; SOURCE LINE # 67
0018 7F01              MOV     R7,#01H
001A 12000000    E     LCALL   _TCPIP_Init
                                           ; SOURCE LINE # 68
001E 90000000    R     MOV     DPTR,#eth_EthHeadLen
0022 740E              MOV     A,#0EH
0024 F0                MOVX    @DPTR,A
                                           ; SOURCE LINE # 70
0025 12000000    E     LCALL   MAC_GetMacAddr
0029 90000000    R     MOV     DPTR,#point
002D EB                MOV     A,R3
002E F0                MOVX    @DPTR,A
002F A3                INC     DPTR
0030 EA                MOV     A,R2
0031 F0                MOVX    @DPTR,A
0032 A3                INC     DPTR
0033 E9                MOV     A,R1
0034 F0                MOVX    @DPTR,A
                                           ; SOURCE LINE # 71
0035 90000000    R     MOV     DPTR,#point
0039 E0                MOVX    A,@DPTR
003A FB                MOV     R3,A
003B A3                INC     DPTR
003C E0                MOVX    A,@DPTR
003D FA                MOV     R2,A
003E A3                INC     DPTR
003F E0                MOVX    A,@DPTR
0040 F9                MOV     R1,A
0041 12000000    E     LCALL   _TCPIP_SetMacAddr
                                           ; SOURCE LINE # 73
0045 7B00        R     MOV     R3,#MBYTE _ETH_Send
0047 7A00        R     MOV     R2,#HIGH _ETH_Send
0049 7900        R     MOV     R1,#LOW _ETH_Send
004B 12000000    E     LCALL   _TCPIP_AssignLowlayerXmitFunc
                                           ; SOURCE LINE # 76
004F         ?C0001:
004F 22                RET     
             ; FUNCTION ETH_Init (END)

             ; FUNCTION ETH_Start (BEGIN)
C51 COMPILER V8.06   ADAPTER                                                               03/17/2026 10:18:46 PAGE 49  

                                           ; SOURCE LINE # 87
                                           ; SOURCE LINE # 88
                                           ; SOURCE LINE # 89
0000 12000000    E     LCALL   STOE_Start
                                           ; SOURCE LINE # 91
0004         ?C0002:
0004 22                RET     
             ; FUNCTION ETH_Start (END)

             ; FUNCTION _eth_RcvHandle (BEGIN)
                                           ; SOURCE LINE # 102
0000 90000000    R     MOV     DPTR,#pbuf
0004 EE                MOV     A,R6
0005 F0                MOVX    @DPTR,A
0006 A3                INC     DPTR
0007 EF                MOV     A,R7
0008 F0                MOVX    @DPTR,A
0009 90000000    R     MOV     DPTR,#length
000D EC                MOV     A,R4
000E F0                MOVX    @DPTR,A
000F A3                INC     DPTR
0010 ED                MOV     A,R5
0011 F0                MOVX    @DPTR,A
0012 90000000    R     MOV     DPTR,#protocol
0016 EB                MOV     A,R3
0017 F0                MOVX    @DPTR,A
                                           ; SOURCE LINE # 103
                                           ; SOURCE LINE # 105
0018 7E00        E     MOV     R6,#HIGH uip_buf
001A 7F00        E     MOV     R7,#LOW uip_buf
001C 90000000    R     MOV     DPTR,#pbuf
0020 E0                MOVX    A,@DPTR
0021 FC                MOV     R4,A
0022 A3                INC     DPTR
0023 E0                MOVX    A,@DPTR
0024 FD                MOV     R5,A
0025 90000000    R     MOV     DPTR,#length
0029 E0                MOVX    A,@DPTR
002A FA                MOV     R2,A
002B A3                INC     DPTR
002C E0                MOVX    A,@DPTR
002D FB                MOV     R3,A
002E 12000000    E     LCALL   _DMA_GrantXdata
                                           ; SOURCE LINE # 107
0032 90000000    R     MOV     DPTR,#length
0036 E0                MOVX    A,@DPTR
0037 FE                MOV     R6,A
0038 A3                INC     DPTR
0039 E0                MOVX    A,@DPTR
003A FF                MOV     R7,A
003B 7800        E     MOV     R0,#LOW uip_len
003D A606              MOV     @R0,AR6
003F 08                INC     R0
0040 A607              MOV     @R0,AR7
                                           ; SOURCE LINE # 109
0042 90000000    R     MOV     DPTR,#protocol
0046 E0                MOVX    A,@DPTR
0047 FF                MOV     R7,A
0048 EF                MOV     A,R7
0049 12000000    E     LCALL   ?C?CCASE
004D 0000        R     DW      ?C0008
004F 01                DB      01H
C51 COMPILER V8.06   ADAPTER                                                               03/17/2026 10:18:46 PAGE 50  

0050 0000        R     DW      ?C0008
0052 02                DB      02H
0053 0000        R     DW      ?C0008
0055 06                DB      06H
0056 0000        R     DW      ?C0008
0058 11                DB      011H
0059 0000        R     DW      ?C0011
005B FF                DB      0FFH
005C 0000              DW      00H
005E 0000        R     DW      ?C0018
                                           ; SOURCE LINE # 110
                                           ; SOURCE LINE # 111
0060         ?C0004:
                                           ; SOURCE LINE # 112
0060 22                RET     
                                           ; SOURCE LINE # 113
0061         ?C0005:
                                           ; SOURCE LINE # 114
0061         ?C0006:
                                           ; SOURCE LINE # 115
0061         ?C0007:
                                           ; SOURCE LINE # 116
0061         ?C0008:
                                           ; SOURCE LINE # 117
0061 90000000    R     MOV     DPTR,#ETH_DoDhcp
0065 E0                MOVX    A,@DPTR
0066 FF                MOV     R7,A
0067 EF                MOV     A,R7
0068 7004              JNZ     ?C0009
                                           ; SOURCE LINE # 118
006A 12000000    E     LCALL   uip_arp_ipin
006E         ?C0009:
                                           ; SOURCE LINE # 119
006E 12000000    E     LCALL   TCPIP_Receive
                                           ; SOURCE LINE # 120
0072 7800        E     MOV     R0,#LOW uip_len
0074 E6                MOV     A,@R0
0075 FE                MOV     R6,A
0076 08                INC     R0
0077 E6                MOV     A,@R0
0078 FF                MOV     R7,A
0079 D3                SETB    C
007A EF                MOV     A,R7
007B 9400              SUBB    A,#00H
007D EE                MOV     A,R6
007E 9400              SUBB    A,#00H
0080 5003              JNC     $ + 5H
0082 010000      R     AJMP    ?C0018
                                           ; SOURCE LINE # 121
                                           ; SOURCE LINE # 123
0085 12000000    E     LCALL   uip_arp_out
                                           ; SOURCE LINE # 124
0089 7F00              MOV     R7,#00H
008B 7E00              MOV     R6,#00H
008D 12000000    R     LCALL   _ETH_Send
                                           ; SOURCE LINE # 125
0091         ?C0010:
                                           ; SOURCE LINE # 126
0091 22                RET     
                                           ; SOURCE LINE # 127
0092         ?C0011:
                                           ; SOURCE LINE # 128
C51 COMPILER V8.06   ADAPTER                                                               03/17/2026 10:18:46 PAGE 51  

0092 90000000    R     MOV     DPTR,#pbuf
0096 E0                MOVX    A,@DPTR
0097 FE                MOV     R6,A
0098 A3                INC     DPTR
0099 E0                MOVX    A,@DPTR
009A FF                MOV     R7,A
009B 8F82              MOV     DPL,R7
009D 8E83              MOV     DPH,R6
009F 759300      E     MOV     DPX,#?C?XDATASEG
00A2 E582              MOV     A,DPL
00A4 240C              ADD     A,#0CH
00A6 F582              MOV     DPL,A
00A8 E583              MOV     A,DPH
00AA 3400              ADDC    A,#00H
00AC F583              MOV     DPH,A
00AE 759300      E     MOV     DPX,#?C?XDATASEG
00B1 E0                MOVX    A,@DPTR
00B2 FF                MOV     R7,A
00B3 EF                MOV     A,R7
00B4 6408              XRL     A,#08H
00B6 6003              JZ      $ + 5H
00B8 010000      R     AJMP    ?C0018
00BB 90000000    R     MOV     DPTR,#pbuf
00BF E0                MOVX    A,@DPTR
00C0 FE                MOV     R6,A
00C1 A3                INC     DPTR
00C2 E0                MOVX    A,@DPTR
00C3 FF                MOV     R7,A
00C4 8F82              MOV     DPL,R7
00C6 8E83              MOV     DPH,R6
00C8 759300      E     MOV     DPX,#?C?XDATASEG
00CB E582              MOV     A,DPL
00CD 240D              ADD     A,#0DH
00CF F582              MOV     DPL,A
00D1 E583              MOV     A,DPH
00D3 3400              ADDC    A,#00H
00D5 F583              MOV     DPH,A
00D7 759300      E     MOV     DPX,#?C?XDATASEG
00DA E0                MOVX    A,@DPTR
00DB FF                MOV     R7,A
00DC EF                MOV     A,R7
00DD 6406              XRL     A,#06H
00DF 6003              JZ      $ + 5H
00E1 010000      R     AJMP    ?C0018
                                           ; SOURCE LINE # 129
                                           ; SOURCE LINE # 130
00E4 12000000    E     LCALL   uip_arp_arpin
                                           ; SOURCE LINE # 131
00E8 90000000    R     MOV     DPTR,#pbuf
00EC E0                MOVX    A,@DPTR
00ED FE                MOV     R6,A
00EE A3                INC     DPTR
00EF E0                MOVX    A,@DPTR
00F0 FF                MOV     R7,A
00F1 8F82              MOV     DPL,R7
00F3 8E83              MOV     DPH,R6
00F5 759300      E     MOV     DPX,#?C?XDATASEG
00F8 E582              MOV     A,DPL
00FA 2415              ADD     A,#015H
00FC F582              MOV     DPL,A
00FE E583              MOV     A,DPH
0100 3400              ADDC    A,#00H
C51 COMPILER V8.06   ADAPTER                                                               03/17/2026 10:18:46 PAGE 52  

0102 F583              MOV     DPH,A
0104 759300      E     MOV     DPX,#?C?XDATASEG
0107 E0                MOVX    A,@DPTR
0108 FF                MOV     R7,A
0109 EF                MOV     A,R7
010A 6402              XRL     A,#02H
010C 706C              JNZ     ?C0013
010E 90000000    E     MOV     DPTR,#PNetStation
0112 E0                MOVX    A,@DPTR
0113 FE                MOV     R6,A
0114 A3                INC     DPTR
0115 E0                MOVX    A,@DPTR
0116 FF                MOV     R7,A
0117 8F82              MOV     DPL,R7
0119 8E83              MOV     DPH,R6
011B 759300      E     MOV     DPX,#?C?XDATASEG
011E E582              MOV     A,DPL
0120 240C              ADD     A,#0CH
0122 F582              MOV     DPL,A
0124 E583              MOV     A,DPH
0126 3400              ADDC    A,#00H
0128 F583              MOV     DPH,A
012A 759300      E     MOV     DPX,#?C?XDATASEG
012D E0                MOVX    A,@DPTR
012E FC                MOV     R4,A
012F A3                INC     DPTR
0130 E0                MOVX    A,@DPTR
0131 FD                MOV     R5,A
0132 A3                INC     DPTR
0133 E0                MOVX    A,@DPTR
0134 FE                MOV     R6,A
0135 A3                INC     DPTR
0136 E0                MOVX    A,@DPTR
0137 FF                MOV     R7,A
0138 90000000    R     MOV     DPTR,#pbuf
013C E0                MOVX    A,@DPTR
013D FA                MOV     R2,A
013E A3                INC     DPTR
013F E0                MOVX    A,@DPTR
0140 FB                MOV     R3,A
0141 8B82              MOV     DPL,R3
0143 8A83              MOV     DPH,R2
0145 759300      E     MOV     DPX,#?C?XDATASEG
0148 E582              MOV     A,DPL
014A 241C              ADD     A,#01CH
014C F582              MOV     DPL,A
014E E583              MOV     A,DPH
0150 3400              ADDC    A,#00H
0152 F583              MOV     DPH,A
0154 759300      E     MOV     DPX,#?C?XDATASEG
0157 E0                MOVX    A,@DPTR
0158 F8                MOV     R0,A
0159 A3                INC     DPTR
015A E0                MOVX    A,@DPTR
015B F9                MOV     R1,A
015C A3                INC     DPTR
015D E0                MOVX    A,@DPTR
015E FA                MOV     R2,A
015F A3                INC     DPTR
0160 E0                MOVX    A,@DPTR
0161 FB                MOV     R3,A
0162 C3                CLR     C
C51 COMPILER V8.06   ADAPTER                                                               03/17/2026 10:18:46 PAGE 53  

0163 12000000    E     LCALL   ?C?ULCMP
0167 7011              JNZ     ?C0013
                                           ; SOURCE LINE # 132
                                           ; SOURCE LINE # 133
0169 90000000    R     MOV     DPTR,#ETH_DhcpArpReply
016D E0                MOVX    A,@DPTR
016E FF                MOV     R7,A
016F EF                MOV     A,R7
0170 7039              JNZ     ?C0018
                                           ; SOURCE LINE # 134
0172 90000000    R     MOV     DPTR,#ETH_DhcpArpReply
0176 7401              MOV     A,#01H
0178 F0                MOVX    @DPTR,A
0179         ?C0014:
                                           ; SOURCE LINE # 135
0179 22                RET     
017A         ?C0013:
                                           ; SOURCE LINE # 137
                                           ; SOURCE LINE # 138
017A 7800        E     MOV     R0,#LOW uip_len
017C E6                MOV     A,@R0
017D FE                MOV     R6,A
017E 08                INC     R0
017F E6                MOV     A,@R0
0180 FF                MOV     R7,A
0181 D3                SETB    C
0182 EF                MOV     A,R7
0183 9400              SUBB    A,#00H
0185 EE                MOV     A,R6
0186 9400              SUBB    A,#00H
0188 4008              JC      ?C0016
                                           ; SOURCE LINE # 139
018A 7F00              MOV     R7,#00H
018C 7E00              MOV     R6,#00H
018E 12000000    R     LCALL   _ETH_Send
0192         ?C0016:
                                           ; SOURCE LINE # 141
0192 90000000    E     MOV     DPTR,#uip_getgatewaymacaddrflag
0196 E0                MOVX    A,@DPTR
0197 FF                MOV     R7,A
0198 EF                MOV     A,R7
0199 6010              JZ      ?C0018
                                           ; SOURCE LINE # 142
019B 7FB4              MOV     R7,#0B4H
019D 7E00              MOV     R6,#00H
019F 7D00              MOV     R5,#00H
01A1 7C00              MOV     R4,#00H
01A3 90000000    R     MOV     DPTR,#eth_ArpSendIntervalTime
01A7 12000000    E     LCALL   ?C?LSTXDATA
01AB         ?C0017:
                                           ; SOURCE LINE # 143
01AB         ?C0015:
                                           ; SOURCE LINE # 144
01AB         ?C0012:
                                           ; SOURCE LINE # 146
                                           ; SOURCE LINE # 147
01AB         ?C0003:
                                           ; SOURCE LINE # 149
01AB         ?C0018:
01AB 22                RET     
             ; FUNCTION _eth_RcvHandle (END)

C51 COMPILER V8.06   ADAPTER                                                               03/17/2026 10:18:46 PAGE 54  

             ; FUNCTION _ETH_Send (BEGIN)
                                           ; SOURCE LINE # 160
0000 90000000    R     MOV     DPTR,#payloadOffset
0004 EE                MOV     A,R6
0005 F0                MOVX    @DPTR,A
0006 A3                INC     DPTR
0007 EF                MOV     A,R7
0008 F0                MOVX    @DPTR,A
                                           ; SOURCE LINE # 161
                                           ; SOURCE LINE # 162
0009 7800        E     MOV     R0,#LOW uip_len
000B E6                MOV     A,@R0
000C FE                MOV     R6,A
000D 08                INC     R0
000E E6                MOV     A,@R0
000F FF                MOV     R7,A
0010 90000000    R     MOV     DPTR,#length
0014 EE                MOV     A,R6
0015 F0                MOVX    @DPTR,A
0016 A3                INC     DPTR
0017 EF                MOV     A,R7
0018 F0                MOVX    @DPTR,A
                                           ; SOURCE LINE # 164
0019 90000000    R     MOV     DPTR,#payloadOffset
001D E0                MOVX    A,@DPTR
001E FE                MOV     R6,A
001F A3                INC     DPTR
0020 E0                MOVX    A,@DPTR
0021 FF                MOV     R7,A
0022 90000000    R     MOV     DPTR,#eth_PayLoadOffset
0026 EE                MOV     A,R6
0027 F0                MOVX    @DPTR,A
0028 A3                INC     DPTR
0029 EF                MOV     A,R7
002A F0                MOVX    @DPTR,A
                                           ; SOURCE LINE # 165
002B 7E00        E     MOV     R6,#HIGH uip_buf
002D 7F00        E     MOV     R7,#LOW uip_buf
002F 90000000    R     MOV     DPTR,#length
0033 E0                MOVX    A,@DPTR
0034 FC                MOV     R4,A
0035 A3                INC     DPTR
0036 E0                MOVX    A,@DPTR
0037 FD                MOV     R5,A
0038 12000000    R     LCALL   _ETH_SendPkt
                                           ; SOURCE LINE # 166
003C         ?C0019:
003C 22                RET     
             ; FUNCTION _ETH_Send (END)

             ; FUNCTION _ETH_SendPkt (BEGIN)
                                           ; SOURCE LINE # 177
0000 90000000    R     MOV     DPTR,#psour
0004 EE                MOV     A,R6
0005 F0                MOVX    @DPTR,A
0006 A3                INC     DPTR
0007 EF                MOV     A,R7
0008 F0                MOVX    @DPTR,A
0009 90000000    R     MOV     DPTR,#length
000D EC                MOV     A,R4
000E F0                MOVX    @DPTR,A
000F A3                INC     DPTR
C51 COMPILER V8.06   ADAPTER                                                               03/17/2026 10:18:46 PAGE 55  

0010 ED                MOV     A,R5
0011 F0                MOVX    @DPTR,A
                                           ; SOURCE LINE # 178
                                           ; SOURCE LINE # 183
0012 90000000    R     MOV     DPTR,#isPppoeIp
0016 E4                CLR     A
0017 F0                MOVX    @DPTR,A
                                           ; SOURCE LINE # 184
0018 90000000    R     MOV     DPTR,#length
001C E0                MOVX    A,@DPTR
001D FE                MOV     R6,A
001E A3                INC     DPTR
001F E0                MOVX    A,@DPTR
0020 FF                MOV     R7,A
0021 90000000    R     MOV     DPTR,#totalLen
0025 EE                MOV     A,R6
0026 F0                MOVX    @DPTR,A
0027 A3                INC     DPTR
0028 EF                MOV     A,R7
0029 F0                MOVX    @DPTR,A
                                           ; SOURCE LINE # 185
002A 90000000    E     MOV     DPTR,#PNetStation
002E E0                MOVX    A,@DPTR
002F FE                MOV     R6,A
0030 A3                INC     DPTR
0031 E0                MOVX    A,@DPTR
0032 FF                MOV     R7,A
0033 8F82              MOV     DPL,R7
0035 8E83              MOV     DPH,R6
0037 759300      E     MOV     DPX,#?C?XDATASEG
003A E582              MOV     A,DPL
003C 240C              ADD     A,#0CH
003E F582              MOV     DPL,A
0040 E583              MOV     A,DPH
0042 3400              ADDC    A,#00H
0044 F583              MOV     DPH,A
0046 759300      E     MOV     DPX,#?C?XDATASEG
0049 E0                MOVX    A,@DPTR
004A FC                MOV     R4,A
004B A3                INC     DPTR
004C E0                MOVX    A,@DPTR
004D FD                MOV     R5,A
004E A3                INC     DPTR
004F E0                MOVX    A,@DPTR
0050 FE                MOV     R6,A
0051 A3                INC     DPTR
0052 E0                MOVX    A,@DPTR
0053 FF                MOV     R7,A
0054 90000000    R     MOV     DPTR,#sourIp
0058 12000000    E     LCALL   ?C?LSTXDATA
                                           ; SOURCE LINE # 186
005C 90000000    R     MOV     DPTR,#psour
0060 E0                MOVX    A,@DPTR
0061 FE                MOV     R6,A
0062 A3                INC     DPTR
0063 E0                MOVX    A,@DPTR
0064 FF                MOV     R7,A
0065 8F82              MOV     DPL,R7
0067 8E83              MOV     DPH,R6
0069 759300      E     MOV     DPX,#?C?XDATASEG
006C E582              MOV     A,DPL
006E 2410              ADD     A,#010H
C51 COMPILER V8.06   ADAPTER                                                               03/17/2026 10:18:46 PAGE 56  

0070 F582              MOV     DPL,A
0072 E583              MOV     A,DPH
0074 3400              ADDC    A,#00H
0076 F583              MOV     DPH,A
0078 759300      E     MOV     DPX,#?C?XDATASEG
007B E0                MOVX    A,@DPTR
007C FC                MOV     R4,A
007D A3                INC     DPTR
007E E0                MOVX    A,@DPTR
007F FD                MOV     R5,A
0080 A3                INC     DPTR
0081 E0                MOVX    A,@DPTR
0082 FE                MOV     R6,A
0083 A3                INC     DPTR
0084 E0                MOVX    A,@DPTR
0085 FF                MOV     R7,A
0086 90000000    R     MOV     DPTR,#destIp
008A 12000000    E     LCALL   ?C?LSTXDATA
                                           ; SOURCE LINE # 187
008E 90000000    R     MOV     DPTR,#mode
0092 E4                CLR     A
0093 F0                MOVX    @DPTR,A
                                           ; SOURCE LINE # 189
0094 90000000    E     MOV     DPTR,#PBDP
0098 E0                MOVX    A,@DPTR
0099 FE                MOV     R6,A
009A A3                INC     DPTR
009B E0                MOVX    A,@DPTR
009C FF                MOV     R7,A
009D 8F82              MOV     DPL,R7
009F 8E83              MOV     DPH,R6
00A1 759300      E     MOV     DPX,#?C?XDATASEG
00A4 E582              MOV     A,DPL
00A6 2432              ADD     A,#032H
00A8 F582              MOV     DPL,A
00AA E583              MOV     A,DPH
00AC 3400              ADDC    A,#00H
00AE F583              MOV     DPH,A
00B0 759300      E     MOV     DPX,#?C?XDATASEG
00B3 E0                MOVX    A,@DPTR
00B4 FF                MOV     R7,A
00B5 EF                MOV     A,R7
00B6 7003              JNZ     $ + 5H
00B8 010000      R     AJMP    ?C0021
00BB         ?C0020:
                                           ; SOURCE LINE # 192
00BB 90000000    R     MOV     DPTR,#length
00BF E0                MOVX    A,@DPTR
00C0 FE                MOV     R6,A
00C1 A3                INC     DPTR
00C2 E0                MOVX    A,@DPTR
00C3 FF                MOV     R7,A
00C4 EF                MOV     A,R7
00C5 2406              ADD     A,#06H
00C7 FF                MOV     R7,A
00C8 EE                MOV     A,R6
00C9 3400              ADDC    A,#00H
00CB FE                MOV     R6,A
00CC 12000000    E     LCALL   _STOE_AssignSendBuf
00D0 90000000    R     MOV     DPTR,#pBuf
00D4 EE                MOV     A,R6
00D5 F0                MOVX    @DPTR,A
C51 COMPILER V8.06   ADAPTER                                                               03/17/2026 10:18:46 PAGE 57  

00D6 A3                INC     DPTR
00D7 EF                MOV     A,R7
00D8 F0                MOVX    @DPTR,A
                                           ; SOURCE LINE # 193
00D9 90000000    R     MOV     DPTR,#pBuf
00DD E0                MOVX    A,@DPTR
00DE FE                MOV     R6,A
00DF A3                INC     DPTR
00E0 E0                MOVX    A,@DPTR
00E1 FF                MOV     R7,A
00E2 EF                MOV     A,R7
00E3 4E                ORL     A,R6
00E4 7003              JNZ     $ + 5H
00E6 010000      R     AJMP    ?C0021
00E9         ?C0022:
                                           ; SOURCE LINE # 195
00E9 90000000    R     MOV     DPTR,#pBuf
00ED E0                MOVX    A,@DPTR
00EE FE                MOV     R6,A
00EF A3                INC     DPTR
00F0 E0                MOVX    A,@DPTR
00F1 FF                MOV     R7,A
00F2 EF                MOV     A,R7
00F3 2406              ADD     A,#06H
00F5 FF                MOV     R7,A
00F6 EE                MOV     A,R6
00F7 3400              ADDC    A,#00H
00F9 FE                MOV     R6,A
00FA 90000000    R     MOV     DPTR,#point
00FE EE                MOV     A,R6
00FF F0                MOVX    @DPTR,A
0100 A3                INC     DPTR
0101 EF                MOV     A,R7
0102 F0                MOVX    @DPTR,A
                                           ; SOURCE LINE # 197
                                           ; SOURCE LINE # 198
0103 90000000    R     MOV     DPTR,#psour
0107 E0                MOVX    A,@DPTR
0108 FE                MOV     R6,A
0109 A3                INC     DPTR
010A E0                MOVX    A,@DPTR
010B FF                MOV     R7,A
010C 8F82              MOV     DPL,R7
010E 8E83              MOV     DPH,R6
0110 759300      E     MOV     DPX,#?C?XDATASEG
0113 E582              MOV     A,DPL
0115 240C              ADD     A,#0CH
0117 F582              MOV     DPL,A
0119 E583              MOV     A,DPH
011B 3400              ADDC    A,#00H
011D F583              MOV     DPH,A
011F 759300      E     MOV     DPX,#?C?XDATASEG
0122 E0                MOVX    A,@DPTR
0123 FF                MOV     R7,A
0124 EF                MOV     A,R7
0125 6408              XRL     A,#08H
0127 7068              JNZ     ?C0023
0129 90000000    R     MOV     DPTR,#psour
012D E0                MOVX    A,@DPTR
012E FE                MOV     R6,A
012F A3                INC     DPTR
0130 E0                MOVX    A,@DPTR
C51 COMPILER V8.06   ADAPTER                                                               03/17/2026 10:18:46 PAGE 58  

0131 FF                MOV     R7,A
0132 8F82              MOV     DPL,R7
0134 8E83              MOV     DPH,R6
0136 759300      E     MOV     DPX,#?C?XDATASEG
0139 E582              MOV     A,DPL
013B 240D              ADD     A,#0DH
013D F582              MOV     DPL,A
013F E583              MOV     A,DPH
0141 3400              ADDC    A,#00H
0143 F583              MOV     DPH,A
0145 759300      E     MOV     DPX,#?C?XDATASEG
0148 E0                MOVX    A,@DPTR
0149 FF                MOV     R7,A
014A EF                MOV     A,R7
014B 7044              JNZ     ?C0023
                                           ; SOURCE LINE # 199
014D 90000000    R     MOV     DPTR,#psour
0151 E0                MOVX    A,@DPTR
0152 FE                MOV     R6,A
0153 A3                INC     DPTR
0154 E0                MOVX    A,@DPTR
0155 FF                MOV     R7,A
0156 8F82              MOV     DPL,R7
0158 8E83              MOV     DPH,R6
015A 759300      E     MOV     DPX,#?C?XDATASEG
015D E582              MOV     A,DPL
015F 2417              ADD     A,#017H
0161 F582              MOV     DPL,A
0163 E583              MOV     A,DPH
0165 3400              ADDC    A,#00H
0167 F583              MOV     DPH,A
0169 759300      E     MOV     DPX,#?C?XDATASEG
016C E0                MOVX    A,@DPTR
016D FF                MOV     R7,A
016E 90000000    E     MOV     DPTR,#PBDP
0172 E0                MOVX    A,@DPTR
0173 FC                MOV     R4,A
0174 A3                INC     DPTR
0175 E0                MOVX    A,@DPTR
0176 FD                MOV     R5,A
0177 8D82              MOV     DPL,R5
0179 8C83              MOV     DPH,R4
017B 759300      E     MOV     DPX,#?C?XDATASEG
017E E582              MOV     A,DPL
0180 24A4              ADD     A,#0A4H
0182 F582              MOV     DPL,A
0184 E583              MOV     A,DPH
0186 3400              ADDC    A,#00H
0188 F583              MOV     DPH,A
018A 759300      E     MOV     DPX,#?C?XDATASEG
018D EF                MOV     A,R7
018E F0                MOVX    @DPTR,A
018F 8022              SJMP    ?C0024
0191         ?C0023:
                                           ; SOURCE LINE # 201
0191 90000000    E     MOV     DPTR,#PBDP
0195 E0                MOVX    A,@DPTR
0196 FE                MOV     R6,A
0197 A3                INC     DPTR
0198 E0                MOVX    A,@DPTR
0199 FF                MOV     R7,A
019A 8F82              MOV     DPL,R7
C51 COMPILER V8.06   ADAPTER                                                               03/17/2026 10:18:46 PAGE 59  

019C 8E83              MOV     DPH,R6
019E 759300      E     MOV     DPX,#?C?XDATASEG
01A1 E582              MOV     A,DPL
01A3 24A4              ADD     A,#0A4H
01A5 F582              MOV     DPL,A
01A7 E583              MOV     A,DPH
01A9 3400              ADDC    A,#00H
01AB F583              MOV     DPH,A
01AD 759300      E     MOV     DPX,#?C?XDATASEG
01B0 74FF              MOV     A,#0FFH
01B2 F0                MOVX    @DPTR,A
01B3         ?C0024:
                                           ; SOURCE LINE # 202
                                           ; SOURCE LINE # 204
01B3 90000000    R     MOV     DPTR,#pBuf
01B7 E0                MOVX    A,@DPTR
01B8 FE                MOV     R6,A
01B9 A3                INC     DPTR
01BA E0                MOVX    A,@DPTR
01BB FF                MOV     R7,A
01BC EF                MOV     A,R7
01BD 4E                ORL     A,R6
01BE 7003              JNZ     $ + 5H
01C0 010000      R     AJMP    ?C0025
                                           ; SOURCE LINE # 205
                                           ; SOURCE LINE # 206
01C3 90000000    R     MOV     DPTR,#eth_PayLoadOffset
01C7 E0                MOVX    A,@DPTR
01C8 FE                MOV     R6,A
01C9 A3                INC     DPTR
01CA E0                MOVX    A,@DPTR
01CB FF                MOV     R7,A
01CC EF                MOV     A,R7
01CD 4E                ORL     A,R6
01CE 6014              JZ      ?C0026
                                           ; SOURCE LINE # 207
01D0 90000000    R     MOV     DPTR,#eth_PayLoadOffset
01D4 E0                MOVX    A,@DPTR
01D5 FE                MOV     R6,A
01D6 A3                INC     DPTR
01D7 E0                MOVX    A,@DPTR
01D8 FF                MOV     R7,A
01D9 90000000    R     MOV     DPTR,#len
01DD EE                MOV     A,R6
01DE F0                MOVX    @DPTR,A
01DF A3                INC     DPTR
01E0 EF                MOV     A,R7
01E1 F0                MOVX    @DPTR,A
01E2 8019              SJMP    ?C0027
01E4         ?C0026:
                                           ; SOURCE LINE # 209
                                           ; SOURCE LINE # 210
01E4 90000000    R     MOV     DPTR,#eth_EthHeadLen
01E8 E0                MOVX    A,@DPTR
01E9 FF                MOV     R7,A
01EA 7E00              MOV     R6,#00H
01EC EF                MOV     A,R7
01ED 2428              ADD     A,#028H
01EF FF                MOV     R7,A
01F0 EE                MOV     A,R6
01F1 3400              ADDC    A,#00H
01F3 FE                MOV     R6,A
C51 COMPILER V8.06   ADAPTER                                                               03/17/2026 10:18:46 PAGE 60  

01F4 90000000    R     MOV     DPTR,#len
01F8 EE                MOV     A,R6
01F9 F0                MOVX    @DPTR,A
01FA A3                INC     DPTR
01FB EF                MOV     A,R7
01FC F0                MOVX    @DPTR,A
                                           ; SOURCE LINE # 211
01FD         ?C0027:
                                           ; SOURCE LINE # 213
01FD 90000000    R     MOV     DPTR,#len
0201 E0                MOVX    A,@DPTR
0202 FE                MOV     R6,A
0203 A3                INC     DPTR
0204 E0                MOVX    A,@DPTR
0205 FF                MOV     R7,A
0206 90000000    R     MOV     DPTR,#length
020A E0                MOVX    A,@DPTR
020B FC                MOV     R4,A
020C A3                INC     DPTR
020D E0                MOVX    A,@DPTR
020E FD                MOV     R5,A
020F D3                SETB    C
0210 ED                MOV     A,R5
0211 9F                SUBB    A,R7
0212 EC                MOV     A,R4
0213 9E                SUBB    A,R6
0214 5003              JNC     $ + 5H
0216 010000      R     AJMP    ?C0028
                                           ; SOURCE LINE # 214
                                           ; SOURCE LINE # 216
0219 90000000    R     MOV     DPTR,#point
021D E0                MOVX    A,@DPTR
021E FE                MOV     R6,A
021F A3                INC     DPTR
0220 E0                MOVX    A,@DPTR
0221 FF                MOV     R7,A
0222 7C00        E     MOV     R4,#HIGH uip_buf
0224 7D00        E     MOV     R5,#LOW uip_buf
0226 90000000    R     MOV     DPTR,#len
022A E0                MOVX    A,@DPTR
022B FA                MOV     R2,A
022C A3                INC     DPTR
022D E0                MOVX    A,@DPTR
022E FB                MOV     R3,A
022F 12000000    E     LCALL   _DMA_GrantXdata
                                           ; SOURCE LINE # 218
0233 90000000    R     MOV     DPTR,#len
0237 E0                MOVX    A,@DPTR
0238 FE                MOV     R6,A
0239 A3                INC     DPTR
023A E0                MOVX    A,@DPTR
023B FF                MOV     R7,A
023C 90000000    R     MOV     DPTR,#point+01H
0240 E0                MOVX    A,@DPTR
0241 2F                ADD     A,R7
0242 F0                MOVX    @DPTR,A
0243 90000000    R     MOV     DPTR,#point
0247 E0                MOVX    A,@DPTR
0248 3E                ADDC    A,R6
0249 F0                MOVX    @DPTR,A
                                           ; SOURCE LINE # 219
024A 90000000    R     MOV     DPTR,#length
C51 COMPILER V8.06   ADAPTER                                                               03/17/2026 10:18:46 PAGE 61  

024E E0                MOVX    A,@DPTR
024F FE                MOV     R6,A
0250 A3                INC     DPTR
0251 E0                MOVX    A,@DPTR
0252 FF                MOV     R7,A
0253 90000000    R     MOV     DPTR,#len
0257 E0                MOVX    A,@DPTR
0258 FC                MOV     R4,A
0259 A3                INC     DPTR
025A E0                MOVX    A,@DPTR
025B FD                MOV     R5,A
025C C3                CLR     C
025D EF                MOV     A,R7
025E 9D                SUBB    A,R5
025F FF                MOV     R7,A
0260 EE                MOV     A,R6
0261 9C                SUBB    A,R4
0262 FE                MOV     R6,A
0263 90000000    R     MOV     DPTR,#length
0267 EE                MOV     A,R6
0268 F0                MOVX    @DPTR,A
0269 A3                INC     DPTR
026A EF                MOV     A,R7
026B F0                MOVX    @DPTR,A
                                           ; SOURCE LINE # 221
026C 90000000    E     MOV     DPTR,#uip_appdata
0270 E0                MOVX    A,@DPTR
0271 FB                MOV     R3,A
0272 A3                INC     DPTR
0273 E0                MOVX    A,@DPTR
0274 FA                MOV     R2,A
0275 A3                INC     DPTR
0276 E0                MOVX    A,@DPTR
0277 F9                MOV     R1,A
0278 AF01              MOV     R7,AR1
027A AE02              MOV     R6,AR2
027C AD03              MOV     R5,AR3
027E 7C00              MOV     R4,#00H
0280 7808              MOV     R0,#08H
0282 12000000    E     LCALL   ?C?ULSHR
0286 90000000    R     MOV     DPTR,#addr
028A EE                MOV     A,R6
028B F0                MOVX    @DPTR,A
028C A3                INC     DPTR
028D EF                MOV     A,R7
028E F0                MOVX    @DPTR,A
                                           ; SOURCE LINE # 223
028F 90000000    R     MOV     DPTR,#addr
0293 E0                MOVX    A,@DPTR
0294 FE                MOV     R6,A
0295 A3                INC     DPTR
0296 E0                MOVX    A,@DPTR
0297 FF                MOV     R7,A
0298 D3                SETB    C
0299 EF                MOV     A,R7
029A 9400              SUBB    A,#00H
029C EE                MOV     A,R6
029D 9480              SUBB    A,#080H
029F 402E              JC      ?C0029
                                           ; SOURCE LINE # 224
02A1 90000000    R     MOV     DPTR,#point
02A5 E0                MOVX    A,@DPTR
C51 COMPILER V8.06   ADAPTER                                                               03/17/2026 10:18:46 PAGE 62  

02A6 FE                MOV     R6,A
02A7 A3                INC     DPTR
02A8 E0                MOVX    A,@DPTR
02A9 FF                MOV     R7,A
02AA 90000000    E     MOV     DPTR,#uip_appdata
02AE E0                MOVX    A,@DPTR
02AF FB                MOV     R3,A
02B0 A3                INC     DPTR
02B1 E0                MOVX    A,@DPTR
02B2 FA                MOV     R2,A
02B3 A3                INC     DPTR
02B4 E0                MOVX    A,@DPTR
02B5 F9                MOV     R1,A
02B6 90000000    R     MOV     DPTR,#length
02BA E0                MOVX    A,@DPTR
02BB FC                MOV     R4,A
02BC A3                INC     DPTR
02BD E0                MOVX    A,@DPTR
02BE FD                MOV     R5,A
02BF 90000000    E     MOV     DPTR,#?_STOE_CopyCode2TPBR?BYTE+05H
02C3 EC                MOV     A,R4
02C4 F0                MOVX    @DPTR,A
02C5 A3                INC     DPTR
02C6 ED                MOV     A,R5
02C7 F0                MOVX    @DPTR,A
02C8 12000000    E     LCALL   _STOE_CopyCode2TPBR
02CC 010000      R     AJMP    ?C0033
02CF         ?C0029:
                                           ; SOURCE LINE # 225
02CF 90000000    R     MOV     DPTR,#addr
02D3 E0                MOVX    A,@DPTR
02D4 FE                MOV     R6,A
02D5 A3                INC     DPTR
02D6 E0                MOVX    A,@DPTR
02D7 FF                MOV     R7,A
02D8 C3                CLR     C
02D9 EE                MOV     A,R6
02DA 9402              SUBB    A,#02H
02DC 404B              JC      ?C0031
                                           ; SOURCE LINE # 226
02DE 90000000    R     MOV     DPTR,#point
02E2 E0                MOVX    A,@DPTR
02E3 FE                MOV     R6,A
02E4 A3                INC     DPTR
02E5 E0                MOVX    A,@DPTR
02E6 FF                MOV     R7,A
02E7 AA06              MOV     R2,AR6
02E9 A907              MOV     R1,AR7
02EB 7B00        E     MOV     R3,#?C?XDATAMTYPE
02ED C003              PUSH    AR3
02EF C002              PUSH    AR2
02F1 C001              PUSH    AR1
02F3 90000000    E     MOV     DPTR,#uip_appdata
02F7 E0                MOVX    A,@DPTR
02F8 FB                MOV     R3,A
02F9 A3                INC     DPTR
02FA E0                MOVX    A,@DPTR
02FB FA                MOV     R2,A
02FC A3                INC     DPTR
02FD E0                MOVX    A,@DPTR
02FE F9                MOV     R1,A
02FF 90000000    E     MOV     DPTR,#?_DMA_Grant?BYTE+03H
C51 COMPILER V8.06   ADAPTER                                                               03/17/2026 10:18:46 PAGE 63  

0303 EB                MOV     A,R3
0304 F0                MOVX    @DPTR,A
0305 A3                INC     DPTR
0306 EA                MOV     A,R2
0307 F0                MOVX    @DPTR,A
0308 A3                INC     DPTR
0309 E9                MOV     A,R1
030A F0                MOVX    @DPTR,A
030B 90000000    R     MOV     DPTR,#length
030F E0                MOVX    A,@DPTR
0310 FE                MOV     R6,A
0311 A3                INC     DPTR
0312 E0                MOVX    A,@DPTR
0313 FF                MOV     R7,A
0314 90000000    E     MOV     DPTR,#?_DMA_Grant?BYTE+06H
0318 EE                MOV     A,R6
0319 F0                MOVX    @DPTR,A
031A A3                INC     DPTR
031B EF                MOV     A,R7
031C F0                MOVX    @DPTR,A
031D D001              POP     AR1
031F D002              POP     AR2
0321 D003              POP     AR3
0323 12000000    E     LCALL   _DMA_Grant
0327 8042              SJMP    ?C0033
0329         ?C0031:
                                           ; SOURCE LINE # 228
0329 90000000    R     MOV     DPTR,#point
032D E0                MOVX    A,@DPTR
032E FE                MOV     R6,A
032F A3                INC     DPTR
0330 E0                MOVX    A,@DPTR
0331 FF                MOV     R7,A
0332 90000000    E     MOV     DPTR,#uip_appdata
0336 E0                MOVX    A,@DPTR
0337 FB                MOV     R3,A
0338 A3                INC     DPTR
0339 E0                MOVX    A,@DPTR
033A FA                MOV     R2,A
033B A3                INC     DPTR
033C E0                MOVX    A,@DPTR
033D F9                MOV     R1,A
033E AC02              MOV     R4,AR2
0340 AD01              MOV     R5,AR1
0342 90000000    R     MOV     DPTR,#length
0346 E0                MOVX    A,@DPTR
0347 FA                MOV     R2,A
0348 A3                INC     DPTR
0349 E0                MOVX    A,@DPTR
034A FB                MOV     R3,A
034B 12000000    E     LCALL   _DMA_GrantXdata
034F         ?C0032:
034F         ?C0030:
                                           ; SOURCE LINE # 229
034F 801A              SJMP    ?C0033
0351         ?C0028:
                                           ; SOURCE LINE # 231
                                           ; SOURCE LINE # 233
0351 90000000    R     MOV     DPTR,#point
0355 E0                MOVX    A,@DPTR
0356 FE                MOV     R6,A
0357 A3                INC     DPTR
C51 COMPILER V8.06   ADAPTER                                                               03/17/2026 10:18:46 PAGE 64  

0358 E0                MOVX    A,@DPTR
0359 FF                MOV     R7,A
035A 7C00        E     MOV     R4,#HIGH uip_buf
035C 7D00        E     MOV     R5,#LOW uip_buf
035E 90000000    R     MOV     DPTR,#len
0362 E0                MOVX    A,@DPTR
0363 FA                MOV     R2,A
0364 A3                INC     DPTR
0365 E0                MOVX    A,@DPTR
0366 FB                MOV     R3,A
0367 12000000    E     LCALL   _DMA_GrantXdata
                                           ; SOURCE LINE # 235
036B         ?C0033:
                                           ; SOURCE LINE # 237
036B 90000000    R     MOV     DPTR,#isPppoeIp
036F E0                MOVX    A,@DPTR
0370 FF                MOV     R7,A
0371 EF                MOV     A,R7
0372 6024              JZ      ?C0034
                                           ; SOURCE LINE # 238
0374 90000000    R     MOV     DPTR,#pBuf
0378 E0                MOVX    A,@DPTR
0379 FE                MOV     R6,A
037A A3                INC     DPTR
037B E0                MOVX    A,@DPTR
037C FF                MOV     R7,A
037D 8F82              MOV     DPL,R7
037F 8E83              MOV     DPH,R6
0381 759300      E     MOV     DPX,#?C?XDATASEG
0384 E582              MOV     A,DPL
0386 2405              ADD     A,#05H
0388 F582              MOV     DPL,A
038A E583              MOV     A,DPH
038C 3400              ADDC    A,#00H
038E F583              MOV     DPH,A
0390 759300      E     MOV     DPX,#?C?XDATASEG
0393 7480              MOV     A,#080H
0395 F0                MOVX    @DPTR,A
0396 8021              SJMP    ?C0035
0398         ?C0034:
                                           ; SOURCE LINE # 240
0398 90000000    R     MOV     DPTR,#pBuf
039C E0                MOVX    A,@DPTR
039D FE                MOV     R6,A
039E A3                INC     DPTR
039F E0                MOVX    A,@DPTR
03A0 FF                MOV     R7,A
03A1 8F82              MOV     DPL,R7
03A3 8E83              MOV     DPH,R6
03A5 759300      E     MOV     DPX,#?C?XDATASEG
03A8 E582              MOV     A,DPL
03AA 2405              ADD     A,#05H
03AC F582              MOV     DPL,A
03AE E583              MOV     A,DPH
03B0 3400              ADDC    A,#00H
03B2 F583              MOV     DPH,A
03B4 759300      E     MOV     DPX,#?C?XDATASEG
03B7 E4                CLR     A
03B8 F0                MOVX    @DPTR,A
03B9         ?C0035:
                                           ; SOURCE LINE # 241
03B9 90000000    R     MOV     DPTR,#pBuf
C51 COMPILER V8.06   ADAPTER                                                               03/17/2026 10:18:46 PAGE 65  

03BD E0                MOVX    A,@DPTR
03BE FE                MOV     R6,A
03BF A3                INC     DPTR
03C0 E0                MOVX    A,@DPTR
03C1 FF                MOV     R7,A
03C2 90000000    R     MOV     DPTR,#totalLen
03C6 E0                MOVX    A,@DPTR
03C7 FC                MOV     R4,A
03C8 A3                INC     DPTR
03C9 E0                MOVX    A,@DPTR
03CA FD                MOV     R5,A
03CB 90000000    E     MOV     DPTR,#PBDP
03CF E0                MOVX    A,@DPTR
03D0 FA                MOV     R2,A
03D1 A3                INC     DPTR
03D2 E0                MOVX    A,@DPTR
03D3 FB                MOV     R3,A
03D4 8B82              MOV     DPL,R3
03D6 8A83              MOV     DPH,R2
03D8 759300      E     MOV     DPX,#?C?XDATASEG
03DB E582              MOV     A,DPL
03DD 24A4              ADD     A,#0A4H
03DF F582              MOV     DPL,A
03E1 E583              MOV     A,DPH
03E3 3400              ADDC    A,#00H
03E5 F583              MOV     DPH,A
03E7 759300      E     MOV     DPX,#?C?XDATASEG
03EA E0                MOVX    A,@DPTR
03EB FB                MOV     R3,A
03EC 12000000    E     LCALL   _STOE_Send
                                           ; SOURCE LINE # 242
03F0         ?C0025:
                                           ; SOURCE LINE # 244
03F0 90000000    R     MOV     DPTR,#eth_PayLoadOffset
03F4 E4                CLR     A
03F5 F0                MOVX    @DPTR,A
03F6 A3                INC     DPTR
03F7 E4                CLR     A
03F8 F0                MOVX    @DPTR,A
                                           ; SOURCE LINE # 246
03F9         ?C0021:
03F9 22                RET     
             ; FUNCTION _ETH_SendPkt (END)

             ; FUNCTION _eth_CheckGatewayIp (BEGIN)
                                           ; SOURCE LINE # 255
0000 90000000    R     MOV     DPTR,#pBuf
0004 EE                MOV     A,R6
0005 F0                MOVX    @DPTR,A
0006 A3                INC     DPTR
0007 EF                MOV     A,R7
0008 F0                MOVX    @DPTR,A
                                           ; SOURCE LINE # 256
                                           ; SOURCE LINE # 259
0009 90000000    E     MOV     DPTR,#PNetStation
000D E0                MOVX    A,@DPTR
000E FE                MOV     R6,A
000F A3                INC     DPTR
0010 E0                MOVX    A,@DPTR
0011 FF                MOV     R7,A
0012 8F82              MOV     DPL,R7
0014 8E83              MOV     DPH,R6
C51 COMPILER V8.06   ADAPTER                                                               03/17/2026 10:18:46 PAGE 66  

0016 759300      E     MOV     DPX,#?C?XDATASEG
0019 E582              MOV     A,DPL
001B 2414              ADD     A,#014H
001D F582              MOV     DPL,A
001F E583              MOV     A,DPH
0021 3400              ADDC    A,#00H
0023 F583              MOV     DPH,A
0025 759300      E     MOV     DPX,#?C?XDATASEG
0028 E0                MOVX    A,@DPTR
0029 FC                MOV     R4,A
002A A3                INC     DPTR
002B E0                MOVX    A,@DPTR
002C FD                MOV     R5,A
002D A3                INC     DPTR
002E E0                MOVX    A,@DPTR
002F FE                MOV     R6,A
0030 A3                INC     DPTR
0031 E0                MOVX    A,@DPTR
0032 FF                MOV     R7,A
0033 90000000    R     MOV     DPTR,#gatewayIp
0037 12000000    E     LCALL   ?C?LSTXDATA
                                           ; SOURCE LINE # 260
003B 90000000    R     MOV     DPTR,#gatewayIp
003F E0                MOVX    A,@DPTR
0040 FC                MOV     R4,A
0041 A3                INC     DPTR
0042 E0                MOVX    A,@DPTR
0043 FD                MOV     R5,A
0044 A3                INC     DPTR
0045 E0                MOVX    A,@DPTR
0046 FE                MOV     R6,A
0047 A3                INC     DPTR
0048 E0                MOVX    A,@DPTR
0049 FF                MOV     R7,A
004A EC                MOV     A,R4
004B 4D                ORL     A,R5
004C 4E                ORL     A,R6
004D 4F                ORL     A,R7
004E 7006              JNZ     ?C0036
                                           ; SOURCE LINE # 261
                                           ; SOURCE LINE # 262
0050 E4                CLR     A
0051 7E00              MOV     R6,#00H
0053 7F00              MOV     R7,#00H
0055 22                RET     
                                           ; SOURCE LINE # 263
0056         ?C0036:
                                           ; SOURCE LINE # 264
0056 90000000    R     MOV     DPTR,#pBuf
005A E0                MOVX    A,@DPTR
005B FE                MOV     R6,A
005C A3                INC     DPTR
005D E0                MOVX    A,@DPTR
005E FF                MOV     R7,A
005F 8F82              MOV     DPL,R7
0061 8E83              MOV     DPH,R6
0063 759300      E     MOV     DPX,#?C?XDATASEG
0066 E582              MOV     A,DPL
0068 241C              ADD     A,#01CH
006A F582              MOV     DPL,A
006C E583              MOV     A,DPH
006E 3400              ADDC    A,#00H
C51 COMPILER V8.06   ADAPTER                                                               03/17/2026 10:18:46 PAGE 67  

0070 F583              MOV     DPH,A
0072 759300      E     MOV     DPX,#?C?XDATASEG
0075 E0                MOVX    A,@DPTR
0076 FC                MOV     R4,A
0077 A3                INC     DPTR
0078 E0                MOVX    A,@DPTR
0079 FD                MOV     R5,A
007A A3                INC     DPTR
007B E0                MOVX    A,@DPTR
007C FE                MOV     R6,A
007D A3                INC     DPTR
007E E0                MOVX    A,@DPTR
007F FF                MOV     R7,A
0080 90000000    R     MOV     DPTR,#receiveIp
0084 12000000    E     LCALL   ?C?LSTXDATA
                                           ; SOURCE LINE # 265
0088 90000000    R     MOV     DPTR,#receiveIp
008C E0                MOVX    A,@DPTR
008D FC                MOV     R4,A
008E A3                INC     DPTR
008F E0                MOVX    A,@DPTR
0090 FD                MOV     R5,A
0091 A3                INC     DPTR
0092 E0                MOVX    A,@DPTR
0093 FE                MOV     R6,A
0094 A3                INC     DPTR
0095 E0                MOVX    A,@DPTR
0096 FF                MOV     R7,A
0097 90000000    R     MOV     DPTR,#gatewayIp
009B E0                MOVX    A,@DPTR
009C F8                MOV     R0,A
009D A3                INC     DPTR
009E E0                MOVX    A,@DPTR
009F F9                MOV     R1,A
00A0 A3                INC     DPTR
00A1 E0                MOVX    A,@DPTR
00A2 FA                MOV     R2,A
00A3 A3                INC     DPTR
00A4 E0                MOVX    A,@DPTR
00A5 FB                MOV     R3,A
00A6 C3                CLR     C
00A7 12000000    E     LCALL   ?C?ULCMP
00AB 6006              JZ      ?C0038
                                           ; SOURCE LINE # 266
                                           ; SOURCE LINE # 267
00AD E4                CLR     A
00AE 7E00              MOV     R6,#00H
00B0 7F00              MOV     R7,#00H
00B2 22                RET     
                                           ; SOURCE LINE # 268
00B3         ?C0038:
                                           ; SOURCE LINE # 269
00B3 7E00              MOV     R6,#00H
00B5 7F01              MOV     R7,#01H
                                           ; SOURCE LINE # 270
00B7         ?C0037:
00B7 22                RET     
             ; FUNCTION _eth_CheckGatewayIp (END)

             ; FUNCTION _ETH_SendArpToGateway (BEGIN)
                                           ; SOURCE LINE # 279
0000 90000000    R     MOV     DPTR,#StopSendAfterRcvReply
C51 COMPILER V8.06   ADAPTER                                                               03/17/2026 10:18:46 PAGE 68  

0004 EE                MOV     A,R6
0005 F0                MOVX    @DPTR,A
0006 A3                INC     DPTR
0007 EF                MOV     A,R7
0008 F0                MOVX    @DPTR,A
                                           ; SOURCE LINE # 280
                                           ; SOURCE LINE # 282
0009 7B00        E     MOV     R3,#MBYTE uip_buf
000B 7A00        E     MOV     R2,#HIGH uip_buf
000D 7900        E     MOV     R1,#LOW uip_buf
000F 90000000    R     MOV     DPTR,#buf
0013 EB                MOV     A,R3
0014 F0                MOVX    @DPTR,A
0015 A3                INC     DPTR
0016 EA                MOV     A,R2
0017 F0                MOVX    @DPTR,A
0018 A3                INC     DPTR
0019 E9                MOV     A,R1
001A F0                MOVX    @DPTR,A
                                           ; SOURCE LINE # 285
001B 90000000    R     MOV     DPTR,#StopSendAfterRcvReply
001F E0                MOVX    A,@DPTR
0020 FE                MOV     R6,A
0021 A3                INC     DPTR
0022 E0                MOVX    A,@DPTR
0023 FF                MOV     R7,A
0024 EF                MOV     A,R7
0025 4E                ORL     A,R6
0026 600C              JZ      ?C0039
                                           ; SOURCE LINE # 286
                                           ; SOURCE LINE # 287
0028 90000000    E     MOV     DPTR,#uip_getgatewaymacaddrflag
002C E0                MOVX    A,@DPTR
002D FF                MOV     R7,A
002E EF                MOV     A,R7
002F 6003              JZ      $ + 5H
0031 010000      R     AJMP    ?C0041
0034         ?C0040:
                                           ; SOURCE LINE # 289
0034         ?C0039:
                                           ; SOURCE LINE # 291
0034 90000000    E     MOV     DPTR,#PNetStation
0038 E0                MOVX    A,@DPTR
0039 FE                MOV     R6,A
003A A3                INC     DPTR
003B E0                MOVX    A,@DPTR
003C FF                MOV     R7,A
003D 8F82              MOV     DPL,R7
003F 8E83              MOV     DPH,R6
0041 759300      E     MOV     DPX,#?C?XDATASEG
0044 E582              MOV     A,DPL
0046 2414              ADD     A,#014H
0048 F582              MOV     DPL,A
004A E583              MOV     A,DPH
004C 3400              ADDC    A,#00H
004E F583              MOV     DPH,A
0050 759300      E     MOV     DPX,#?C?XDATASEG
0053 E0                MOVX    A,@DPTR
0054 FC                MOV     R4,A
0055 A3                INC     DPTR
0056 E0                MOVX    A,@DPTR
0057 FD                MOV     R5,A
C51 COMPILER V8.06   ADAPTER                                                               03/17/2026 10:18:46 PAGE 69  

0058 A3                INC     DPTR
0059 E0                MOVX    A,@DPTR
005A FE                MOV     R6,A
005B A3                INC     DPTR
005C E0                MOVX    A,@DPTR
005D FF                MOV     R7,A
005E 90000000    R     MOV     DPTR,#gateway
0062 12000000    E     LCALL   ?C?LSTXDATA
                                           ; SOURCE LINE # 292
0066 90000000    R     MOV     DPTR,#gateway
006A E0                MOVX    A,@DPTR
006B FC                MOV     R4,A
006C A3                INC     DPTR
006D E0                MOVX    A,@DPTR
006E FD                MOV     R5,A
006F A3                INC     DPTR
0070 E0                MOVX    A,@DPTR
0071 FE                MOV     R6,A
0072 A3                INC     DPTR
0073 E0                MOVX    A,@DPTR
0074 FF                MOV     R7,A
0075 EC                MOV     A,R4
0076 4D                ORL     A,R5
0077 4E                ORL     A,R6
0078 4F                ORL     A,R7
0079 7003              JNZ     $ + 5H
007B 010000      R     AJMP    ?C0041
007E         ?C0042:
                                           ; SOURCE LINE # 296
007E 90000000    E     MOV     DPTR,#PNetStation
0082 E0                MOVX    A,@DPTR
0083 FE                MOV     R6,A
0084 A3                INC     DPTR
0085 E0                MOVX    A,@DPTR
0086 FF                MOV     R7,A
0087 8F82              MOV     DPL,R7
0089 8E83              MOV     DPH,R6
008B 759300      E     MOV     DPX,#?C?XDATASEG
008E E582              MOV     A,DPL
0090 240C              ADD     A,#0CH
0092 F582              MOV     DPL,A
0094 E583              MOV     A,DPH
0096 3400              ADDC    A,#00H
0098 F583              MOV     DPH,A
009A 759300      E     MOV     DPX,#?C?XDATASEG
009D E0                MOVX    A,@DPTR
009E FC                MOV     R4,A
009F A3                INC     DPTR
00A0 E0                MOVX    A,@DPTR
00A1 FD                MOV     R5,A
00A2 A3                INC     DPTR
00A3 E0                MOVX    A,@DPTR
00A4 FE                MOV     R6,A
00A5 A3                INC     DPTR
00A6 E0                MOVX    A,@DPTR
00A7 FF                MOV     R7,A
00A8 90000000    R     MOV     DPTR,#ip
00AC 12000000    E     LCALL   ?C?LSTXDATA
                                           ; SOURCE LINE # 297
00B0 90000000    R     MOV     DPTR,#ip
00B4 E0                MOVX    A,@DPTR
00B5 FC                MOV     R4,A
C51 COMPILER V8.06   ADAPTER                                                               03/17/2026 10:18:46 PAGE 70  

00B6 A3                INC     DPTR
00B7 E0                MOVX    A,@DPTR
00B8 FD                MOV     R5,A
00B9 A3                INC     DPTR
00BA E0                MOVX    A,@DPTR
00BB FE                MOV     R6,A
00BC A3                INC     DPTR
00BD E0                MOVX    A,@DPTR
00BE FF                MOV     R7,A
00BF EC                MOV     A,R4
00C0 4D                ORL     A,R5
00C1 4E                ORL     A,R6
00C2 4F                ORL     A,R7
00C3 7003              JNZ     $ + 5H
00C5 010000      R     AJMP    ?C0041
00C8         ?C0043:
                                           ; SOURCE LINE # 301
00C8 12000000    E     LCALL   SWTIMER_Tick
00CC 90000000    R     MOV     DPTR,#TempTime
00D0 12000000    E     LCALL   ?C?LSTXDATA
                                           ; SOURCE LINE # 302
00D4 7F64              MOV     R7,#064H
00D6 7E00              MOV     R6,#00H
00D8 7D00              MOV     R5,#00H
00DA 7C00              MOV     R4,#00H
00DC 90000000    R     MOV     DPTR,#eth_ArpSendIntervalTime
00E0 E0                MOVX    A,@DPTR
00E1 F8                MOV     R0,A
00E2 A3                INC     DPTR
00E3 E0                MOVX    A,@DPTR
00E4 F9                MOV     R1,A
00E5 A3                INC     DPTR
00E6 E0                MOVX    A,@DPTR
00E7 FA                MOV     R2,A
00E8 A3                INC     DPTR
00E9 E0                MOVX    A,@DPTR
00EA FB                MOV     R3,A
00EB 12000000    E     LCALL   ?C?LMUL
00EF C004              PUSH    AR4
00F1 C005              PUSH    AR5
00F3 C006              PUSH    AR6
00F5 C007              PUSH    AR7
00F7 90000000    R     MOV     DPTR,#eth_ArpSendTime
00FB E0                MOVX    A,@DPTR
00FC F8                MOV     R0,A
00FD A3                INC     DPTR
00FE E0                MOVX    A,@DPTR
00FF F9                MOV     R1,A
0100 A3                INC     DPTR
0101 E0                MOVX    A,@DPTR
0102 FA                MOV     R2,A
0103 A3                INC     DPTR
0104 E0                MOVX    A,@DPTR
0105 FB                MOV     R3,A
0106 90000000    R     MOV     DPTR,#TempTime
010A E0                MOVX    A,@DPTR
010B FC                MOV     R4,A
010C A3                INC     DPTR
010D E0                MOVX    A,@DPTR
010E FD                MOV     R5,A
010F A3                INC     DPTR
0110 E0                MOVX    A,@DPTR
C51 COMPILER V8.06   ADAPTER                                                               03/17/2026 10:18:46 PAGE 71  

0111 FE                MOV     R6,A
0112 A3                INC     DPTR
0113 E0                MOVX    A,@DPTR
0114 FF                MOV     R7,A
0115 C3                CLR     C
0116 EF                MOV     A,R7
0117 9B                SUBB    A,R3
0118 FB                MOV     R3,A
0119 EE                MOV     A,R6
011A 9A                SUBB    A,R2
011B FA                MOV     R2,A
011C ED                MOV     A,R5
011D 99                SUBB    A,R1
011E F9                MOV     R1,A
011F EC                MOV     A,R4
0120 98                SUBB    A,R0
0121 F8                MOV     R0,A
0122 D007              POP     AR7
0124 D006              POP     AR6
0126 D005              POP     AR5
0128 D004              POP     AR4
012A C3                CLR     C
012B 12000000    E     LCALL   ?C?ULCMP
012F 5003              JNC     $ + 5H
0131 010000      R     AJMP    ?C0041
0134         ?C0044:
                                           ; SOURCE LINE # 306
0134 90000000    R     MOV     DPTR,#TempTime
0138 E0                MOVX    A,@DPTR
0139 FC                MOV     R4,A
013A A3                INC     DPTR
013B E0                MOVX    A,@DPTR
013C FD                MOV     R5,A
013D A3                INC     DPTR
013E E0                MOVX    A,@DPTR
013F FE                MOV     R6,A
0140 A3                INC     DPTR
0141 E0                MOVX    A,@DPTR
0142 FF                MOV     R7,A
0143 90000000    R     MOV     DPTR,#eth_ArpSendTime
0147 12000000    E     LCALL   ?C?LSTXDATA
                                           ; SOURCE LINE # 308
014B 90000000    E     MOV     DPTR,#uip_getgatewaymacaddrflag
014F E0                MOVX    A,@DPTR
0150 FF                MOV     R7,A
0151 EF                MOV     A,R7
0152 6012              JZ      ?C0045
                                           ; SOURCE LINE # 309
                                           ; SOURCE LINE # 310
0154 7FB4              MOV     R7,#0B4H
0156 7E00              MOV     R6,#00H
0158 7D00              MOV     R5,#00H
015A 7C00              MOV     R4,#00H
015C 90000000    R     MOV     DPTR,#eth_ArpSendIntervalTime
0160 12000000    E     LCALL   ?C?LSTXDATA
                                           ; SOURCE LINE # 311
0164 8010              SJMP    ?C0046
0166         ?C0045:
                                           ; SOURCE LINE # 313
                                           ; SOURCE LINE # 314
0166 7F0A              MOV     R7,#0AH
0168 7E00              MOV     R6,#00H
C51 COMPILER V8.06   ADAPTER                                                               03/17/2026 10:18:46 PAGE 72  

016A 7D00              MOV     R5,#00H
016C 7C00              MOV     R4,#00H
016E 90000000    R     MOV     DPTR,#eth_ArpSendIntervalTime
0172 12000000    E     LCALL   ?C?LSTXDATA
                                           ; SOURCE LINE # 315
0176         ?C0046:
                                           ; SOURCE LINE # 318
0176 12000000    E     LCALL   MAC_GetMacAddr
017A 90000000    R     MOV     DPTR,#point
017E EB                MOV     A,R3
017F F0                MOVX    @DPTR,A
0180 A3                INC     DPTR
0181 EA                MOV     A,R2
0182 F0                MOVX    @DPTR,A
0183 A3                INC     DPTR
0184 E9                MOV     A,R1
0185 F0                MOVX    @DPTR,A
                                           ; SOURCE LINE # 319
0186 7800        E     MOV     R0,#LOW uip_len
0188 7600              MOV     @R0,#00H
018A 08                INC     R0
018B 762A              MOV     @R0,#02AH
                                           ; SOURCE LINE # 321
018D 90000000    R     MOV     DPTR,#buf
0191 E0                MOVX    A,@DPTR
0192 FB                MOV     R3,A
0193 A3                INC     DPTR
0194 E0                MOVX    A,@DPTR
0195 FA                MOV     R2,A
0196 A3                INC     DPTR
0197 E0                MOVX    A,@DPTR
0198 F9                MOV     R1,A
0199 74FF              MOV     A,#0FFH
019B 12000000    E     LCALL   ?C?CSTPTR
                                           ; SOURCE LINE # 322
019F 90000000    R     MOV     DPTR,#buf
01A3 E0                MOVX    A,@DPTR
01A4 FB                MOV     R3,A
01A5 A3                INC     DPTR
01A6 E0                MOVX    A,@DPTR
01A7 FA                MOV     R2,A
01A8 A3                INC     DPTR
01A9 E0                MOVX    A,@DPTR
01AA F9                MOV     R1,A
01AB E9                MOV     A,R1
01AC 2401              ADD     A,#01H
01AE F9                MOV     R1,A
01AF EA                MOV     A,R2
01B0 3400              ADDC    A,#00H
01B2 FA                MOV     R2,A
01B3 74FF              MOV     A,#0FFH
01B5 12000000    E     LCALL   ?C?CSTPTR
                                           ; SOURCE LINE # 323
01B9 90000000    R     MOV     DPTR,#buf
01BD E0                MOVX    A,@DPTR
01BE FB                MOV     R3,A
01BF A3                INC     DPTR
01C0 E0                MOVX    A,@DPTR
01C1 FA                MOV     R2,A
01C2 A3                INC     DPTR
01C3 E0                MOVX    A,@DPTR
01C4 F9                MOV     R1,A
C51 COMPILER V8.06   ADAPTER                                                               03/17/2026 10:18:46 PAGE 73  

01C5 E9                MOV     A,R1
01C6 2402              ADD     A,#02H
01C8 F9                MOV     R1,A
01C9 EA                MOV     A,R2
01CA 3400              ADDC    A,#00H
01CC FA                MOV     R2,A
01CD 74FF              MOV     A,#0FFH
01CF 12000000    E     LCALL   ?C?CSTPTR
                                           ; SOURCE LINE # 324
01D3 90000000    R     MOV     DPTR,#buf
01D7 E0                MOVX    A,@DPTR
01D8 FB                MOV     R3,A
01D9 A3                INC     DPTR
01DA E0                MOVX    A,@DPTR
01DB FA                MOV     R2,A
01DC A3                INC     DPTR
01DD E0                MOVX    A,@DPTR
01DE F9                MOV     R1,A
01DF E9                MOV     A,R1
01E0 2403              ADD     A,#03H
01E2 F9                MOV     R1,A
01E3 EA                MOV     A,R2
01E4 3400              ADDC    A,#00H
01E6 FA                MOV     R2,A
01E7 74FF              MOV     A,#0FFH
01E9 12000000    E     LCALL   ?C?CSTPTR
                                           ; SOURCE LINE # 325
01ED 90000000    R     MOV     DPTR,#buf
01F1 E0                MOVX    A,@DPTR
01F2 FB                MOV     R3,A
01F3 A3                INC     DPTR
01F4 E0                MOVX    A,@DPTR
01F5 FA                MOV     R2,A
01F6 A3                INC     DPTR
01F7 E0                MOVX    A,@DPTR
01F8 F9                MOV     R1,A
01F9 E9                MOV     A,R1
01FA 2404              ADD     A,#04H
01FC F9                MOV     R1,A
01FD EA                MOV     A,R2
01FE 3400              ADDC    A,#00H
0200 FA                MOV     R2,A
0201 74FF              MOV     A,#0FFH
0203 12000000    E     LCALL   ?C?CSTPTR
                                           ; SOURCE LINE # 326
0207 90000000    R     MOV     DPTR,#buf
020B E0                MOVX    A,@DPTR
020C FB                MOV     R3,A
020D A3                INC     DPTR
020E E0                MOVX    A,@DPTR
020F FA                MOV     R2,A
0210 A3                INC     DPTR
0211 E0                MOVX    A,@DPTR
0212 F9                MOV     R1,A
0213 E9                MOV     A,R1
0214 2405              ADD     A,#05H
0216 F9                MOV     R1,A
0217 EA                MOV     A,R2
0218 3400              ADDC    A,#00H
021A FA                MOV     R2,A
021B 74FF              MOV     A,#0FFH
021D 12000000    E     LCALL   ?C?CSTPTR
C51 COMPILER V8.06   ADAPTER                                                               03/17/2026 10:18:46 PAGE 74  

                                           ; SOURCE LINE # 327
0221 90000000    R     MOV     DPTR,#point
0225 E0                MOVX    A,@DPTR
0226 FB                MOV     R3,A
0227 A3                INC     DPTR
0228 E0                MOVX    A,@DPTR
0229 FA                MOV     R2,A
022A A3                INC     DPTR
022B E0                MOVX    A,@DPTR
022C F9                MOV     R1,A
022D 12000000    E     LCALL   ?C?CLDPTR
0231 FF                MOV     R7,A
0232 90000000    R     MOV     DPTR,#buf
0236 E0                MOVX    A,@DPTR
0237 FB                MOV     R3,A
0238 A3                INC     DPTR
0239 E0                MOVX    A,@DPTR
023A FA                MOV     R2,A
023B A3                INC     DPTR
023C E0                MOVX    A,@DPTR
023D F9                MOV     R1,A
023E E9                MOV     A,R1
023F 2406              ADD     A,#06H
0241 F9                MOV     R1,A
0242 EA                MOV     A,R2
0243 3400              ADDC    A,#00H
0245 FA                MOV     R2,A
0246 EF                MOV     A,R7
0247 12000000    E     LCALL   ?C?CSTPTR
                                           ; SOURCE LINE # 328
024B 90000000    R     MOV     DPTR,#point
024F E0                MOVX    A,@DPTR
0250 FB                MOV     R3,A
0251 A3                INC     DPTR
0252 E0                MOVX    A,@DPTR
0253 FA                MOV     R2,A
0254 A3                INC     DPTR
0255 E0                MOVX    A,@DPTR
0256 F9                MOV     R1,A
0257 E9                MOV     A,R1
0258 2401              ADD     A,#01H
025A F9                MOV     R1,A
025B EA                MOV     A,R2
025C 3400              ADDC    A,#00H
025E FA                MOV     R2,A
025F 12000000    E     LCALL   ?C?CLDPTR
0263 FF                MOV     R7,A
0264 90000000    R     MOV     DPTR,#buf
0268 E0                MOVX    A,@DPTR
0269 FB                MOV     R3,A
026A A3                INC     DPTR
026B E0                MOVX    A,@DPTR
026C FA                MOV     R2,A
026D A3                INC     DPTR
026E E0                MOVX    A,@DPTR
026F F9                MOV     R1,A
0270 E9                MOV     A,R1
0271 2407              ADD     A,#07H
0273 F9                MOV     R1,A
0274 EA                MOV     A,R2
0275 3400              ADDC    A,#00H
0277 FA                MOV     R2,A
C51 COMPILER V8.06   ADAPTER                                                               03/17/2026 10:18:46 PAGE 75  

0278 EF                MOV     A,R7
0279 12000000    E     LCALL   ?C?CSTPTR
                                           ; SOURCE LINE # 329
027D 90000000    R     MOV     DPTR,#point
0281 E0                MOVX    A,@DPTR
0282 FB                MOV     R3,A
0283 A3                INC     DPTR
0284 E0                MOVX    A,@DPTR
0285 FA                MOV     R2,A
0286 A3                INC     DPTR
0287 E0                MOVX    A,@DPTR
0288 F9                MOV     R1,A
0289 E9                MOV     A,R1
028A 2402              ADD     A,#02H
028C F9                MOV     R1,A
028D EA                MOV     A,R2
028E 3400              ADDC    A,#00H
0290 FA                MOV     R2,A
0291 12000000    E     LCALL   ?C?CLDPTR
0295 FF                MOV     R7,A
0296 90000000    R     MOV     DPTR,#buf
029A E0                MOVX    A,@DPTR
029B FB                MOV     R3,A
029C A3                INC     DPTR
029D E0                MOVX    A,@DPTR
029E FA                MOV     R2,A
029F A3                INC     DPTR
02A0 E0                MOVX    A,@DPTR
02A1 F9                MOV     R1,A
02A2 E9                MOV     A,R1
02A3 2408              ADD     A,#08H
02A5 F9                MOV     R1,A
02A6 EA                MOV     A,R2
02A7 3400              ADDC    A,#00H
02A9 FA                MOV     R2,A
02AA EF                MOV     A,R7
02AB 12000000    E     LCALL   ?C?CSTPTR
                                           ; SOURCE LINE # 330
02AF 90000000    R     MOV     DPTR,#point
02B3 E0                MOVX    A,@DPTR
02B4 FB                MOV     R3,A
02B5 A3                INC     DPTR
02B6 E0                MOVX    A,@DPTR
02B7 FA                MOV     R2,A
02B8 A3                INC     DPTR
02B9 E0                MOVX    A,@DPTR
02BA F9                MOV     R1,A
02BB E9                MOV     A,R1
02BC 2403              ADD     A,#03H
02BE F9                MOV     R1,A
02BF EA                MOV     A,R2
02C0 3400              ADDC    A,#00H
02C2 FA                MOV     R2,A
02C3 12000000    E     LCALL   ?C?CLDPTR
02C7 FF                MOV     R7,A
02C8 90000000    R     MOV     DPTR,#buf
02CC E0                MOVX    A,@DPTR
02CD FB                MOV     R3,A
02CE A3                INC     DPTR
02CF E0                MOVX    A,@DPTR
02D0 FA                MOV     R2,A
02D1 A3                INC     DPTR
C51 COMPILER V8.06   ADAPTER                                                               03/17/2026 10:18:46 PAGE 76  

02D2 E0                MOVX    A,@DPTR
02D3 F9                MOV     R1,A
02D4 E9                MOV     A,R1
02D5 2409              ADD     A,#09H
02D7 F9                MOV     R1,A
02D8 EA                MOV     A,R2
02D9 3400              ADDC    A,#00H
02DB FA                MOV     R2,A
02DC EF                MOV     A,R7
02DD 12000000    E     LCALL   ?C?CSTPTR
                                           ; SOURCE LINE # 331
02E1 90000000    R     MOV     DPTR,#point
02E5 E0                MOVX    A,@DPTR
02E6 FB                MOV     R3,A
02E7 A3                INC     DPTR
02E8 E0                MOVX    A,@DPTR
02E9 FA                MOV     R2,A
02EA A3                INC     DPTR
02EB E0                MOVX    A,@DPTR
02EC F9                MOV     R1,A
02ED E9                MOV     A,R1
02EE 2404              ADD     A,#04H
02F0 F9                MOV     R1,A
02F1 EA                MOV     A,R2
02F2 3400              ADDC    A,#00H
02F4 FA                MOV     R2,A
02F5 12000000    E     LCALL   ?C?CLDPTR
02F9 FF                MOV     R7,A
02FA 90000000    R     MOV     DPTR,#buf
02FE E0                MOVX    A,@DPTR
02FF FB                MOV     R3,A
0300 A3                INC     DPTR
0301 E0                MOVX    A,@DPTR
0302 FA                MOV     R2,A
0303 A3                INC     DPTR
0304 E0                MOVX    A,@DPTR
0305 F9                MOV     R1,A
0306 E9                MOV     A,R1
0307 240A              ADD     A,#0AH
0309 F9                MOV     R1,A
030A EA                MOV     A,R2
030B 3400              ADDC    A,#00H
030D FA                MOV     R2,A
030E EF                MOV     A,R7
030F 12000000    E     LCALL   ?C?CSTPTR
                                           ; SOURCE LINE # 332
0313 90000000    R     MOV     DPTR,#point
0317 E0                MOVX    A,@DPTR
0318 FB                MOV     R3,A
0319 A3                INC     DPTR
031A E0                MOVX    A,@DPTR
031B FA                MOV     R2,A
031C A3                INC     DPTR
031D E0                MOVX    A,@DPTR
031E F9                MOV     R1,A
031F E9                MOV     A,R1
0320 2405              ADD     A,#05H
0322 F9                MOV     R1,A
0323 EA                MOV     A,R2
0324 3400              ADDC    A,#00H
0326 FA                MOV     R2,A
0327 12000000    E     LCALL   ?C?CLDPTR
C51 COMPILER V8.06   ADAPTER                                                               03/17/2026 10:18:46 PAGE 77  

032B FF                MOV     R7,A
032C 90000000    R     MOV     DPTR,#buf
0330 E0                MOVX    A,@DPTR
0331 FB                MOV     R3,A
0332 A3                INC     DPTR
0333 E0                MOVX    A,@DPTR
0334 FA                MOV     R2,A
0335 A3                INC     DPTR
0336 E0                MOVX    A,@DPTR
0337 F9                MOV     R1,A
0338 E9                MOV     A,R1
0339 240B              ADD     A,#0BH
033B F9                MOV     R1,A
033C EA                MOV     A,R2
033D 3400              ADDC    A,#00H
033F FA                MOV     R2,A
0340 EF                MOV     A,R7
0341 12000000    E     LCALL   ?C?CSTPTR
                                           ; SOURCE LINE # 333
0345 90000000    R     MOV     DPTR,#buf
0349 E0                MOVX    A,@DPTR
034A FB                MOV     R3,A
034B A3                INC     DPTR
034C E0                MOVX    A,@DPTR
034D FA                MOV     R2,A
034E A3                INC     DPTR
034F E0                MOVX    A,@DPTR
0350 F9                MOV     R1,A
0351 E9                MOV     A,R1
0352 240C              ADD     A,#0CH
0354 F9                MOV     R1,A
0355 EA                MOV     A,R2
0356 3400              ADDC    A,#00H
0358 FA                MOV     R2,A
0359 7408              MOV     A,#08H
035B 12000000    E     LCALL   ?C?CSTPTR
                                           ; SOURCE LINE # 334
035F 90000000    R     MOV     DPTR,#buf
0363 E0                MOVX    A,@DPTR
0364 FB                MOV     R3,A
0365 A3                INC     DPTR
0366 E0                MOVX    A,@DPTR
0367 FA                MOV     R2,A
0368 A3                INC     DPTR
0369 E0                MOVX    A,@DPTR
036A F9                MOV     R1,A
036B E9                MOV     A,R1
036C 240D              ADD     A,#0DH
036E F9                MOV     R1,A
036F EA                MOV     A,R2
0370 3400              ADDC    A,#00H
0372 FA                MOV     R2,A
0373 7406              MOV     A,#06H
0375 12000000    E     LCALL   ?C?CSTPTR
                                           ; SOURCE LINE # 336
0379 90000000    R     MOV     DPTR,#buf
037D E0                MOVX    A,@DPTR
037E FB                MOV     R3,A
037F A3                INC     DPTR
0380 E0                MOVX    A,@DPTR
0381 FA                MOV     R2,A
0382 A3                INC     DPTR
C51 COMPILER V8.06   ADAPTER                                                               03/17/2026 10:18:46 PAGE 78  

0383 E0                MOVX    A,@DPTR
0384 F9                MOV     R1,A
0385 E9                MOV     A,R1
0386 240E              ADD     A,#0EH
0388 F9                MOV     R1,A
0389 EA                MOV     A,R2
038A 3400              ADDC    A,#00H
038C FA                MOV     R2,A
038D E4                CLR     A
038E 12000000    E     LCALL   ?C?CSTPTR
                                           ; SOURCE LINE # 337
0392 90000000    R     MOV     DPTR,#buf
0396 E0                MOVX    A,@DPTR
0397 FB                MOV     R3,A
0398 A3                INC     DPTR
0399 E0                MOVX    A,@DPTR
039A FA                MOV     R2,A
039B A3                INC     DPTR
039C E0                MOVX    A,@DPTR
039D F9                MOV     R1,A
039E E9                MOV     A,R1
039F 240F              ADD     A,#0FH
03A1 F9                MOV     R1,A
03A2 EA                MOV     A,R2
03A3 3400              ADDC    A,#00H
03A5 FA                MOV     R2,A
03A6 7401              MOV     A,#01H
03A8 12000000    E     LCALL   ?C?CSTPTR
                                           ; SOURCE LINE # 338
03AC 90000000    R     MOV     DPTR,#buf
03B0 E0                MOVX    A,@DPTR
03B1 FB                MOV     R3,A
03B2 A3                INC     DPTR
03B3 E0                MOVX    A,@DPTR
03B4 FA                MOV     R2,A
03B5 A3                INC     DPTR
03B6 E0                MOVX    A,@DPTR
03B7 F9                MOV     R1,A
03B8 E9                MOV     A,R1
03B9 2410              ADD     A,#010H
03BB F9                MOV     R1,A
03BC EA                MOV     A,R2
03BD 3400              ADDC    A,#00H
03BF FA                MOV     R2,A
03C0 7408              MOV     A,#08H
03C2 12000000    E     LCALL   ?C?CSTPTR
                                           ; SOURCE LINE # 339
03C6 90000000    R     MOV     DPTR,#buf
03CA E0                MOVX    A,@DPTR
03CB FB                MOV     R3,A
03CC A3                INC     DPTR
03CD E0                MOVX    A,@DPTR
03CE FA                MOV     R2,A
03CF A3                INC     DPTR
03D0 E0                MOVX    A,@DPTR
03D1 F9                MOV     R1,A
03D2 E9                MOV     A,R1
03D3 2411              ADD     A,#011H
03D5 F9                MOV     R1,A
03D6 EA                MOV     A,R2
03D7 3400              ADDC    A,#00H
03D9 FA                MOV     R2,A
C51 COMPILER V8.06   ADAPTER                                                               03/17/2026 10:18:46 PAGE 79  

03DA E4                CLR     A
03DB 12000000    E     LCALL   ?C?CSTPTR
                                           ; SOURCE LINE # 340
03DF 90000000    R     MOV     DPTR,#buf
03E3 E0                MOVX    A,@DPTR
03E4 FB                MOV     R3,A
03E5 A3                INC     DPTR
03E6 E0                MOVX    A,@DPTR
03E7 FA                MOV     R2,A
03E8 A3                INC     DPTR
03E9 E0                MOVX    A,@DPTR
03EA F9                MOV     R1,A
03EB E9                MOV     A,R1
03EC 2412              ADD     A,#012H
03EE F9                MOV     R1,A
03EF EA                MOV     A,R2
03F0 3400              ADDC    A,#00H
03F2 FA                MOV     R2,A
03F3 7406              MOV     A,#06H
03F5 12000000    E     LCALL   ?C?CSTPTR
                                           ; SOURCE LINE # 341
03F9 90000000    R     MOV     DPTR,#buf
03FD E0                MOVX    A,@DPTR
03FE FB                MOV     R3,A
03FF A3                INC     DPTR
0400 E0                MOVX    A,@DPTR
0401 FA                MOV     R2,A
0402 A3                INC     DPTR
0403 E0                MOVX    A,@DPTR
0404 F9                MOV     R1,A
0405 E9                MOV     A,R1
0406 2413              ADD     A,#013H
0408 F9                MOV     R1,A
0409 EA                MOV     A,R2
040A 3400              ADDC    A,#00H
040C FA                MOV     R2,A
040D 7404              MOV     A,#04H
040F 12000000    E     LCALL   ?C?CSTPTR
                                           ; SOURCE LINE # 342
0413 90000000    R     MOV     DPTR,#buf
0417 E0                MOVX    A,@DPTR
0418 FB                MOV     R3,A
0419 A3                INC     DPTR
041A E0                MOVX    A,@DPTR
041B FA                MOV     R2,A
041C A3                INC     DPTR
041D E0                MOVX    A,@DPTR
041E F9                MOV     R1,A
041F E9                MOV     A,R1
0420 2414              ADD     A,#014H
0422 F9                MOV     R1,A
0423 EA                MOV     A,R2
0424 3400              ADDC    A,#00H
0426 FA                MOV     R2,A
0427 E4                CLR     A
0428 12000000    E     LCALL   ?C?CSTPTR
                                           ; SOURCE LINE # 343
042C 90000000    R     MOV     DPTR,#buf
0430 E0                MOVX    A,@DPTR
0431 FB                MOV     R3,A
0432 A3                INC     DPTR
0433 E0                MOVX    A,@DPTR
C51 COMPILER V8.06   ADAPTER                                                               03/17/2026 10:18:46 PAGE 80  

0434 FA                MOV     R2,A
0435 A3                INC     DPTR
0436 E0                MOVX    A,@DPTR
0437 F9                MOV     R1,A
0438 E9                MOV     A,R1
0439 2415              ADD     A,#015H
043B F9                MOV     R1,A
043C EA                MOV     A,R2
043D 3400              ADDC    A,#00H
043F FA                MOV     R2,A
0440 7401              MOV     A,#01H
0442 12000000    E     LCALL   ?C?CSTPTR
                                           ; SOURCE LINE # 345
0446 90000000    R     MOV     DPTR,#point
044A E0                MOVX    A,@DPTR
044B FB                MOV     R3,A
044C A3                INC     DPTR
044D E0                MOVX    A,@DPTR
044E FA                MOV     R2,A
044F A3                INC     DPTR
0450 E0                MOVX    A,@DPTR
0451 F9                MOV     R1,A
0452 12000000    E     LCALL   ?C?CLDPTR
0456 FF                MOV     R7,A
0457 90000000    R     MOV     DPTR,#buf
045B E0                MOVX    A,@DPTR
045C FB                MOV     R3,A
045D A3                INC     DPTR
045E E0                MOVX    A,@DPTR
045F FA                MOV     R2,A
0460 A3                INC     DPTR
0461 E0                MOVX    A,@DPTR
0462 F9                MOV     R1,A
0463 E9                MOV     A,R1
0464 2416              ADD     A,#016H
0466 F9                MOV     R1,A
0467 EA                MOV     A,R2
0468 3400              ADDC    A,#00H
046A FA                MOV     R2,A
046B EF                MOV     A,R7
046C 12000000    E     LCALL   ?C?CSTPTR
                                           ; SOURCE LINE # 346
0470 90000000    R     MOV     DPTR,#point
0474 E0                MOVX    A,@DPTR
0475 FB                MOV     R3,A
0476 A3                INC     DPTR
0477 E0                MOVX    A,@DPTR
0478 FA                MOV     R2,A
0479 A3                INC     DPTR
047A E0                MOVX    A,@DPTR
047B F9                MOV     R1,A
047C E9                MOV     A,R1
047D 2401              ADD     A,#01H
047F F9                MOV     R1,A
0480 EA                MOV     A,R2
0481 3400              ADDC    A,#00H
0483 FA                MOV     R2,A
0484 12000000    E     LCALL   ?C?CLDPTR
0488 FF                MOV     R7,A
0489 90000000    R     MOV     DPTR,#buf
048D E0                MOVX    A,@DPTR
048E FB                MOV     R3,A
C51 COMPILER V8.06   ADAPTER                                                               03/17/2026 10:18:46 PAGE 81  

048F A3                INC     DPTR
0490 E0                MOVX    A,@DPTR
0491 FA                MOV     R2,A
0492 A3                INC     DPTR
0493 E0                MOVX    A,@DPTR
0494 F9                MOV     R1,A
0495 E9                MOV     A,R1
0496 2417              ADD     A,#017H
0498 F9                MOV     R1,A
0499 EA                MOV     A,R2
049A 3400              ADDC    A,#00H
049C FA                MOV     R2,A
049D EF                MOV     A,R7
049E 12000000    E     LCALL   ?C?CSTPTR
                                           ; SOURCE LINE # 347
04A2 90000000    R     MOV     DPTR,#point
04A6 E0                MOVX    A,@DPTR
04A7 FB                MOV     R3,A
04A8 A3                INC     DPTR
04A9 E0                MOVX    A,@DPTR
04AA FA                MOV     R2,A
04AB A3                INC     DPTR
04AC E0                MOVX    A,@DPTR
04AD F9                MOV     R1,A
04AE E9                MOV     A,R1
04AF 2402              ADD     A,#02H
04B1 F9                MOV     R1,A
04B2 EA                MOV     A,R2
04B3 3400              ADDC    A,#00H
04B5 FA                MOV     R2,A
04B6 12000000    E     LCALL   ?C?CLDPTR
04BA FF                MOV     R7,A
04BB 90000000    R     MOV     DPTR,#buf
04BF E0                MOVX    A,@DPTR
04C0 FB                MOV     R3,A
04C1 A3                INC     DPTR
04C2 E0                MOVX    A,@DPTR
04C3 FA                MOV     R2,A
04C4 A3                INC     DPTR
04C5 E0                MOVX    A,@DPTR
04C6 F9                MOV     R1,A
04C7 E9                MOV     A,R1
04C8 2418              ADD     A,#018H
04CA F9                MOV     R1,A
04CB EA                MOV     A,R2
04CC 3400              ADDC    A,#00H
04CE FA                MOV     R2,A
04CF EF                MOV     A,R7
04D0 12000000    E     LCALL   ?C?CSTPTR
                                           ; SOURCE LINE # 348
04D4 90000000    R     MOV     DPTR,#point
04D8 E0                MOVX    A,@DPTR
04D9 FB                MOV     R3,A
04DA A3                INC     DPTR
04DB E0                MOVX    A,@DPTR
04DC FA                MOV     R2,A
04DD A3                INC     DPTR
04DE E0                MOVX    A,@DPTR
04DF F9                MOV     R1,A
04E0 E9                MOV     A,R1
04E1 2403              ADD     A,#03H
04E3 F9                MOV     R1,A
C51 COMPILER V8.06   ADAPTER                                                               03/17/2026 10:18:46 PAGE 82  

04E4 EA                MOV     A,R2
04E5 3400              ADDC    A,#00H
04E7 FA                MOV     R2,A
04E8 12000000    E     LCALL   ?C?CLDPTR
04EC FF                MOV     R7,A
04ED 90000000    R     MOV     DPTR,#buf
04F1 E0                MOVX    A,@DPTR
04F2 FB                MOV     R3,A
04F3 A3                INC     DPTR
04F4 E0                MOVX    A,@DPTR
04F5 FA                MOV     R2,A
04F6 A3                INC     DPTR
04F7 E0                MOVX    A,@DPTR
04F8 F9                MOV     R1,A
04F9 E9                MOV     A,R1
04FA 2419              ADD     A,#019H
04FC F9                MOV     R1,A
04FD EA                MOV     A,R2
04FE 3400              ADDC    A,#00H
0500 FA                MOV     R2,A
0501 EF                MOV     A,R7
0502 12000000    E     LCALL   ?C?CSTPTR
                                           ; SOURCE LINE # 349
0506 90000000    R     MOV     DPTR,#point
050A E0                MOVX    A,@DPTR
050B FB                MOV     R3,A
050C A3                INC     DPTR
050D E0                MOVX    A,@DPTR
050E FA                MOV     R2,A
050F A3                INC     DPTR
0510 E0                MOVX    A,@DPTR
0511 F9                MOV     R1,A
0512 E9                MOV     A,R1
0513 2404              ADD     A,#04H
0515 F9                MOV     R1,A
0516 EA                MOV     A,R2
0517 3400              ADDC    A,#00H
0519 FA                MOV     R2,A
051A 12000000    E     LCALL   ?C?CLDPTR
051E FF                MOV     R7,A
051F 90000000    R     MOV     DPTR,#buf
0523 E0                MOVX    A,@DPTR
0524 FB                MOV     R3,A
0525 A3                INC     DPTR
0526 E0                MOVX    A,@DPTR
0527 FA                MOV     R2,A
0528 A3                INC     DPTR
0529 E0                MOVX    A,@DPTR
052A F9                MOV     R1,A
052B E9                MOV     A,R1
052C 241A              ADD     A,#01AH
052E F9                MOV     R1,A
052F EA                MOV     A,R2
0530 3400              ADDC    A,#00H
0532 FA                MOV     R2,A
0533 EF                MOV     A,R7
0534 12000000    E     LCALL   ?C?CSTPTR
                                           ; SOURCE LINE # 350
0538 90000000    R     MOV     DPTR,#point
053C E0                MOVX    A,@DPTR
053D FB                MOV     R3,A
053E A3                INC     DPTR
C51 COMPILER V8.06   ADAPTER                                                               03/17/2026 10:18:46 PAGE 83  

053F E0                MOVX    A,@DPTR
0540 FA                MOV     R2,A
0541 A3                INC     DPTR
0542 E0                MOVX    A,@DPTR
0543 F9                MOV     R1,A
0544 E9                MOV     A,R1
0545 2405              ADD     A,#05H
0547 F9                MOV     R1,A
0548 EA                MOV     A,R2
0549 3400              ADDC    A,#00H
054B FA                MOV     R2,A
054C 12000000    E     LCALL   ?C?CLDPTR
0550 FF                MOV     R7,A
0551 90000000    R     MOV     DPTR,#buf
0555 E0                MOVX    A,@DPTR
0556 FB                MOV     R3,A
0557 A3                INC     DPTR
0558 E0                MOVX    A,@DPTR
0559 FA                MOV     R2,A
055A A3                INC     DPTR
055B E0                MOVX    A,@DPTR
055C F9                MOV     R1,A
055D E9                MOV     A,R1
055E 241B              ADD     A,#01BH
0560 F9                MOV     R1,A
0561 EA                MOV     A,R2
0562 3400              ADDC    A,#00H
0564 FA                MOV     R2,A
0565 EF                MOV     A,R7
0566 12000000    E     LCALL   ?C?CSTPTR
                                           ; SOURCE LINE # 351
056A 90000000    E     MOV     DPTR,#PNetStation
056E E0                MOVX    A,@DPTR
056F FE                MOV     R6,A
0570 A3                INC     DPTR
0571 E0                MOVX    A,@DPTR
0572 FF                MOV     R7,A
0573 8F82              MOV     DPL,R7
0575 8E83              MOV     DPH,R6
0577 759300      E     MOV     DPX,#?C?XDATASEG
057A E582              MOV     A,DPL
057C 240C              ADD     A,#0CH
057E F582              MOV     DPL,A
0580 E583              MOV     A,DPH
0582 3400              ADDC    A,#00H
0584 F583              MOV     DPH,A
0586 759300      E     MOV     DPX,#?C?XDATASEG
0589 E0                MOVX    A,@DPTR
058A FC                MOV     R4,A
058B A3                INC     DPTR
058C E0                MOVX    A,@DPTR
058D FD                MOV     R5,A
058E A3                INC     DPTR
058F E0                MOVX    A,@DPTR
0590 FE                MOV     R6,A
0591 A3                INC     DPTR
0592 E0                MOVX    A,@DPTR
0593 FF                MOV     R7,A
0594 90000000    R     MOV     DPTR,#buf
0598 E0                MOVX    A,@DPTR
0599 FB                MOV     R3,A
059A A3                INC     DPTR
C51 COMPILER V8.06   ADAPTER                                                               03/17/2026 10:18:46 PAGE 84  

059B E0                MOVX    A,@DPTR
059C FA                MOV     R2,A
059D A3                INC     DPTR
059E E0                MOVX    A,@DPTR
059F F9                MOV     R1,A
05A0 E9                MOV     A,R1
05A1 241C              ADD     A,#01CH
05A3 F9                MOV     R1,A
05A4 EA                MOV     A,R2
05A5 3400              ADDC    A,#00H
05A7 FA                MOV     R2,A
05A8 12000000    E     LCALL   ?C?LSTPTR
                                           ; SOURCE LINE # 353
05AC 90000000    R     MOV     DPTR,#buf
05B0 E0                MOVX    A,@DPTR
05B1 FB                MOV     R3,A
05B2 A3                INC     DPTR
05B3 E0                MOVX    A,@DPTR
05B4 FA                MOV     R2,A
05B5 A3                INC     DPTR
05B6 E0                MOVX    A,@DPTR
05B7 F9                MOV     R1,A
05B8 E9                MOV     A,R1
05B9 2420              ADD     A,#020H
05BB F9                MOV     R1,A
05BC EA                MOV     A,R2
05BD 3400              ADDC    A,#00H
05BF FA                MOV     R2,A
05C0 E4                CLR     A
05C1 12000000    E     LCALL   ?C?CSTPTR
                                           ; SOURCE LINE # 354
05C5 90000000    R     MOV     DPTR,#buf
05C9 E0                MOVX    A,@DPTR
05CA FB                MOV     R3,A
05CB A3                INC     DPTR
05CC E0                MOVX    A,@DPTR
05CD FA                MOV     R2,A
05CE A3                INC     DPTR
05CF E0                MOVX    A,@DPTR
05D0 F9                MOV     R1,A
05D1 E9                MOV     A,R1
05D2 2421              ADD     A,#021H
05D4 F9                MOV     R1,A
05D5 EA                MOV     A,R2
05D6 3400              ADDC    A,#00H
05D8 FA                MOV     R2,A
05D9 E4                CLR     A
05DA 12000000    E     LCALL   ?C?CSTPTR
                                           ; SOURCE LINE # 355
05DE 90000000    R     MOV     DPTR,#buf
05E2 E0                MOVX    A,@DPTR
05E3 FB                MOV     R3,A
05E4 A3                INC     DPTR
05E5 E0                MOVX    A,@DPTR
05E6 FA                MOV     R2,A
05E7 A3                INC     DPTR
05E8 E0                MOVX    A,@DPTR
05E9 F9                MOV     R1,A
05EA E9                MOV     A,R1
05EB 2422              ADD     A,#022H
05ED F9                MOV     R1,A
05EE EA                MOV     A,R2
C51 COMPILER V8.06   ADAPTER                                                               03/17/2026 10:18:46 PAGE 85  

05EF 3400              ADDC    A,#00H
05F1 FA                MOV     R2,A
05F2 E4                CLR     A
05F3 12000000    E     LCALL   ?C?CSTPTR
                                           ; SOURCE LINE # 356
05F7 90000000    R     MOV     DPTR,#buf
05FB E0                MOVX    A,@DPTR
05FC FB                MOV     R3,A
05FD A3                INC     DPTR
05FE E0                MOVX    A,@DPTR
05FF FA                MOV     R2,A
0600 A3                INC     DPTR
0601 E0                MOVX    A,@DPTR
0602 F9                MOV     R1,A
0603 E9                MOV     A,R1
0604 2423              ADD     A,#023H
0606 F9                MOV     R1,A
0607 EA                MOV     A,R2
0608 3400              ADDC    A,#00H
060A FA                MOV     R2,A
060B E4                CLR     A
060C 12000000    E     LCALL   ?C?CSTPTR
                                           ; SOURCE LINE # 357
0610 90000000    R     MOV     DPTR,#buf
0614 E0                MOVX    A,@DPTR
0615 FB                MOV     R3,A
0616 A3                INC     DPTR
0617 E0                MOVX    A,@DPTR
0618 FA                MOV     R2,A
0619 A3                INC     DPTR
061A E0                MOVX    A,@DPTR
061B F9                MOV     R1,A
061C E9                MOV     A,R1
061D 2424              ADD     A,#024H
061F F9                MOV     R1,A
0620 EA                MOV     A,R2
0621 3400              ADDC    A,#00H
0623 FA                MOV     R2,A
0624 E4                CLR     A
0625 12000000    E     LCALL   ?C?CSTPTR
                                           ; SOURCE LINE # 358
0629 90000000    R     MOV     DPTR,#buf
062D E0                MOVX    A,@DPTR
062E FB                MOV     R3,A
062F A3                INC     DPTR
0630 E0                MOVX    A,@DPTR
0631 FA                MOV     R2,A
0632 A3                INC     DPTR
0633 E0                MOVX    A,@DPTR
0634 F9                MOV     R1,A
0635 E9                MOV     A,R1
0636 2425              ADD     A,#025H
0638 F9                MOV     R1,A
0639 EA                MOV     A,R2
063A 3400              ADDC    A,#00H
063C FA                MOV     R2,A
063D E4                CLR     A
063E 12000000    E     LCALL   ?C?CSTPTR
                                           ; SOURCE LINE # 359
0642 90000000    R     MOV     DPTR,#gateway
0646 E0                MOVX    A,@DPTR
0647 FC                MOV     R4,A
C51 COMPILER V8.06   ADAPTER                                                               03/17/2026 10:18:46 PAGE 86  

0648 A3                INC     DPTR
0649 E0                MOVX    A,@DPTR
064A FD                MOV     R5,A
064B A3                INC     DPTR
064C E0                MOVX    A,@DPTR
064D FE                MOV     R6,A
064E A3                INC     DPTR
064F E0                MOVX    A,@DPTR
0650 FF                MOV     R7,A
0651 90000000    R     MOV     DPTR,#buf
0655 E0                MOVX    A,@DPTR
0656 FB                MOV     R3,A
0657 A3                INC     DPTR
0658 E0                MOVX    A,@DPTR
0659 FA                MOV     R2,A
065A A3                INC     DPTR
065B E0                MOVX    A,@DPTR
065C F9                MOV     R1,A
065D E9                MOV     A,R1
065E 2426              ADD     A,#026H
0660 F9                MOV     R1,A
0661 EA                MOV     A,R2
0662 3400              ADDC    A,#00H
0664 FA                MOV     R2,A
0665 12000000    E     LCALL   ?C?LSTPTR
                                           ; SOURCE LINE # 361
0669 7F00              MOV     R7,#00H
066B 7E00              MOV     R6,#00H
066D 12000000    R     LCALL   _ETH_Send
                                           ; SOURCE LINE # 364
0671         ?C0041:
0671 22                RET     
             ; FUNCTION _ETH_SendArpToGateway (END)

             ; FUNCTION _ETH_SendArpRequest (BEGIN)
                                           ; SOURCE LINE # 375
0000 90000000    R     MOV     DPTR,#dstIp
0004 12000000    E     LCALL   ?C?LSTXDATA
                                           ; SOURCE LINE # 376
                                           ; SOURCE LINE # 377
0008 7B00        E     MOV     R3,#MBYTE uip_buf
000A 7A00        E     MOV     R2,#HIGH uip_buf
000C 7900        E     MOV     R1,#LOW uip_buf
000E 90000000    R     MOV     DPTR,#buf
0012 EB                MOV     A,R3
0013 F0                MOVX    @DPTR,A
0014 A3                INC     DPTR
0015 EA                MOV     A,R2
0016 F0                MOVX    @DPTR,A
0017 A3                INC     DPTR
0018 E9                MOV     A,R1
0019 F0                MOVX    @DPTR,A
                                           ; SOURCE LINE # 381
001A 12000000    E     LCALL   MAC_GetMacAddr
001E 90000000    R     MOV     DPTR,#point
0022 EB                MOV     A,R3
0023 F0                MOVX    @DPTR,A
0024 A3                INC     DPTR
0025 EA                MOV     A,R2
0026 F0                MOVX    @DPTR,A
0027 A3                INC     DPTR
0028 E9                MOV     A,R1
C51 COMPILER V8.06   ADAPTER                                                               03/17/2026 10:18:46 PAGE 87  

0029 F0                MOVX    @DPTR,A
                                           ; SOURCE LINE # 382
002A 7800        E     MOV     R0,#LOW uip_len
002C 7600              MOV     @R0,#00H
002E 08                INC     R0
002F 762A              MOV     @R0,#02AH
                                           ; SOURCE LINE # 384
0031 90000000    R     MOV     DPTR,#buf
0035 E0                MOVX    A,@DPTR
0036 FB                MOV     R3,A
0037 A3                INC     DPTR
0038 E0                MOVX    A,@DPTR
0039 FA                MOV     R2,A
003A A3                INC     DPTR
003B E0                MOVX    A,@DPTR
003C F9                MOV     R1,A
003D 74FF              MOV     A,#0FFH
003F 12000000    E     LCALL   ?C?CSTPTR
                                           ; SOURCE LINE # 385
0043 90000000    R     MOV     DPTR,#buf
0047 E0                MOVX    A,@DPTR
0048 FB                MOV     R3,A
0049 A3                INC     DPTR
004A E0                MOVX    A,@DPTR
004B FA                MOV     R2,A
004C A3                INC     DPTR
004D E0                MOVX    A,@DPTR
004E F9                MOV     R1,A
004F E9                MOV     A,R1
0050 2401              ADD     A,#01H
0052 F9                MOV     R1,A
0053 EA                MOV     A,R2
0054 3400              ADDC    A,#00H
0056 FA                MOV     R2,A
0057 74FF              MOV     A,#0FFH
0059 12000000    E     LCALL   ?C?CSTPTR
                                           ; SOURCE LINE # 386
005D 90000000    R     MOV     DPTR,#buf
0061 E0                MOVX    A,@DPTR
0062 FB                MOV     R3,A
0063 A3                INC     DPTR
0064 E0                MOVX    A,@DPTR
0065 FA                MOV     R2,A
0066 A3                INC     DPTR
0067 E0                MOVX    A,@DPTR
0068 F9                MOV     R1,A
0069 E9                MOV     A,R1
006A 2402              ADD     A,#02H
006C F9                MOV     R1,A
006D EA                MOV     A,R2
006E 3400              ADDC    A,#00H
0070 FA                MOV     R2,A
0071 74FF              MOV     A,#0FFH
0073 12000000    E     LCALL   ?C?CSTPTR
                                           ; SOURCE LINE # 387
0077 90000000    R     MOV     DPTR,#buf
007B E0                MOVX    A,@DPTR
007C FB                MOV     R3,A
007D A3                INC     DPTR
007E E0                MOVX    A,@DPTR
007F FA                MOV     R2,A
0080 A3                INC     DPTR
C51 COMPILER V8.06   ADAPTER                                                               03/17/2026 10:18:46 PAGE 88  

0081 E0                MOVX    A,@DPTR
0082 F9                MOV     R1,A
0083 E9                MOV     A,R1
0084 2403              ADD     A,#03H
0086 F9                MOV     R1,A
0087 EA                MOV     A,R2
0088 3400              ADDC    A,#00H
008A FA                MOV     R2,A
008B 74FF              MOV     A,#0FFH
008D 12000000    E     LCALL   ?C?CSTPTR
                                           ; SOURCE LINE # 388
0091 90000000    R     MOV     DPTR,#buf
0095 E0                MOVX    A,@DPTR
0096 FB                MOV     R3,A
0097 A3                INC     DPTR
0098 E0                MOVX    A,@DPTR
0099 FA                MOV     R2,A
009A A3                INC     DPTR
009B E0                MOVX    A,@DPTR
009C F9                MOV     R1,A
009D E9                MOV     A,R1
009E 2404              ADD     A,#04H
00A0 F9                MOV     R1,A
00A1 EA                MOV     A,R2
00A2 3400              ADDC    A,#00H
00A4 FA                MOV     R2,A
00A5 74FF              MOV     A,#0FFH
00A7 12000000    E     LCALL   ?C?CSTPTR
                                           ; SOURCE LINE # 389
00AB 90000000    R     MOV     DPTR,#buf
00AF E0                MOVX    A,@DPTR
00B0 FB                MOV     R3,A
00B1 A3                INC     DPTR
00B2 E0                MOVX    A,@DPTR
00B3 FA                MOV     R2,A
00B4 A3                INC     DPTR
00B5 E0                MOVX    A,@DPTR
00B6 F9                MOV     R1,A
00B7 E9                MOV     A,R1
00B8 2405              ADD     A,#05H
00BA F9                MOV     R1,A
00BB EA                MOV     A,R2
00BC 3400              ADDC    A,#00H
00BE FA                MOV     R2,A
00BF 74FF              MOV     A,#0FFH
00C1 12000000    E     LCALL   ?C?CSTPTR
                                           ; SOURCE LINE # 390
00C5 90000000    R     MOV     DPTR,#point
00C9 E0                MOVX    A,@DPTR
00CA FB                MOV     R3,A
00CB A3                INC     DPTR
00CC E0                MOVX    A,@DPTR
00CD FA                MOV     R2,A
00CE A3                INC     DPTR
00CF E0                MOVX    A,@DPTR
00D0 F9                MOV     R1,A
00D1 12000000    E     LCALL   ?C?CLDPTR
00D5 FF                MOV     R7,A
00D6 90000000    R     MOV     DPTR,#buf
00DA E0                MOVX    A,@DPTR
00DB FB                MOV     R3,A
00DC A3                INC     DPTR
C51 COMPILER V8.06   ADAPTER                                                               03/17/2026 10:18:46 PAGE 89  

00DD E0                MOVX    A,@DPTR
00DE FA                MOV     R2,A
00DF A3                INC     DPTR
00E0 E0                MOVX    A,@DPTR
00E1 F9                MOV     R1,A
00E2 E9                MOV     A,R1
00E3 2406              ADD     A,#06H
00E5 F9                MOV     R1,A
00E6 EA                MOV     A,R2
00E7 3400              ADDC    A,#00H
00E9 FA                MOV     R2,A
00EA EF                MOV     A,R7
00EB 12000000    E     LCALL   ?C?CSTPTR
                                           ; SOURCE LINE # 391
00EF 90000000    R     MOV     DPTR,#point
00F3 E0                MOVX    A,@DPTR
00F4 FB                MOV     R3,A
00F5 A3                INC     DPTR
00F6 E0                MOVX    A,@DPTR
00F7 FA                MOV     R2,A
00F8 A3                INC     DPTR
00F9 E0                MOVX    A,@DPTR
00FA F9                MOV     R1,A
00FB E9                MOV     A,R1
00FC 2401              ADD     A,#01H
00FE F9                MOV     R1,A
00FF EA                MOV     A,R2
0100 3400              ADDC    A,#00H
0102 FA                MOV     R2,A
0103 12000000    E     LCALL   ?C?CLDPTR
0107 FF                MOV     R7,A
0108 90000000    R     MOV     DPTR,#buf
010C E0                MOVX    A,@DPTR
010D FB                MOV     R3,A
010E A3                INC     DPTR
010F E0                MOVX    A,@DPTR
0110 FA                MOV     R2,A
0111 A3                INC     DPTR
0112 E0                MOVX    A,@DPTR
0113 F9                MOV     R1,A
0114 E9                MOV     A,R1
0115 2407              ADD     A,#07H
0117 F9                MOV     R1,A
0118 EA                MOV     A,R2
0119 3400              ADDC    A,#00H
011B FA                MOV     R2,A
011C EF                MOV     A,R7
011D 12000000    E     LCALL   ?C?CSTPTR
                                           ; SOURCE LINE # 392
0121 90000000    R     MOV     DPTR,#point
0125 E0                MOVX    A,@DPTR
0126 FB                MOV     R3,A
0127 A3                INC     DPTR
0128 E0                MOVX    A,@DPTR
0129 FA                MOV     R2,A
012A A3                INC     DPTR
012B E0                MOVX    A,@DPTR
012C F9                MOV     R1,A
012D E9                MOV     A,R1
012E 2402              ADD     A,#02H
0130 F9                MOV     R1,A
0131 EA                MOV     A,R2
C51 COMPILER V8.06   ADAPTER                                                               03/17/2026 10:18:46 PAGE 90  

0132 3400              ADDC    A,#00H
0134 FA                MOV     R2,A
0135 12000000    E     LCALL   ?C?CLDPTR
0139 FF                MOV     R7,A
013A 90000000    R     MOV     DPTR,#buf
013E E0                MOVX    A,@DPTR
013F FB                MOV     R3,A
0140 A3                INC     DPTR
0141 E0                MOVX    A,@DPTR
0142 FA                MOV     R2,A
0143 A3                INC     DPTR
0144 E0                MOVX    A,@DPTR
0145 F9                MOV     R1,A
0146 E9                MOV     A,R1
0147 2408              ADD     A,#08H
0149 F9                MOV     R1,A
014A EA                MOV     A,R2
014B 3400              ADDC    A,#00H
014D FA                MOV     R2,A
014E EF                MOV     A,R7
014F 12000000    E     LCALL   ?C?CSTPTR
                                           ; SOURCE LINE # 393
0153 90000000    R     MOV     DPTR,#point
0157 E0                MOVX    A,@DPTR
0158 FB                MOV     R3,A
0159 A3                INC     DPTR
015A E0                MOVX    A,@DPTR
015B FA                MOV     R2,A
015C A3                INC     DPTR
015D E0                MOVX    A,@DPTR
015E F9                MOV     R1,A
015F E9                MOV     A,R1
0160 2403              ADD     A,#03H
0162 F9                MOV     R1,A
0163 EA                MOV     A,R2
0164 3400              ADDC    A,#00H
0166 FA                MOV     R2,A
0167 12000000    E     LCALL   ?C?CLDPTR
016B FF                MOV     R7,A
016C 90000000    R     MOV     DPTR,#buf
0170 E0                MOVX    A,@DPTR
0171 FB                MOV     R3,A
0172 A3                INC     DPTR
0173 E0                MOVX    A,@DPTR
0174 FA                MOV     R2,A
0175 A3                INC     DPTR
0176 E0                MOVX    A,@DPTR
0177 F9                MOV     R1,A
0178 E9                MOV     A,R1
0179 2409              ADD     A,#09H
017B F9                MOV     R1,A
017C EA                MOV     A,R2
017D 3400              ADDC    A,#00H
017F FA                MOV     R2,A
0180 EF                MOV     A,R7
0181 12000000    E     LCALL   ?C?CSTPTR
                                           ; SOURCE LINE # 394
0185 90000000    R     MOV     DPTR,#point
0189 E0                MOVX    A,@DPTR
018A FB                MOV     R3,A
018B A3                INC     DPTR
018C E0                MOVX    A,@DPTR
C51 COMPILER V8.06   ADAPTER                                                               03/17/2026 10:18:46 PAGE 91  

018D FA                MOV     R2,A
018E A3                INC     DPTR
018F E0                MOVX    A,@DPTR
0190 F9                MOV     R1,A
0191 E9                MOV     A,R1
0192 2404              ADD     A,#04H
0194 F9                MOV     R1,A
0195 EA                MOV     A,R2
0196 3400              ADDC    A,#00H
0198 FA                MOV     R2,A
0199 12000000    E     LCALL   ?C?CLDPTR
019D FF                MOV     R7,A
019E 90000000    R     MOV     DPTR,#buf
01A2 E0                MOVX    A,@DPTR
01A3 FB                MOV     R3,A
01A4 A3                INC     DPTR
01A5 E0                MOVX    A,@DPTR
01A6 FA                MOV     R2,A
01A7 A3                INC     DPTR
01A8 E0                MOVX    A,@DPTR
01A9 F9                MOV     R1,A
01AA E9                MOV     A,R1
01AB 240A              ADD     A,#0AH
01AD F9                MOV     R1,A
01AE EA                MOV     A,R2
01AF 3400              ADDC    A,#00H
01B1 FA                MOV     R2,A
01B2 EF                MOV     A,R7
01B3 12000000    E     LCALL   ?C?CSTPTR
                                           ; SOURCE LINE # 395
01B7 90000000    R     MOV     DPTR,#point
01BB E0                MOVX    A,@DPTR
01BC FB                MOV     R3,A
01BD A3                INC     DPTR
01BE E0                MOVX    A,@DPTR
01BF FA                MOV     R2,A
01C0 A3                INC     DPTR
01C1 E0                MOVX    A,@DPTR
01C2 F9                MOV     R1,A
01C3 E9                MOV     A,R1
01C4 2405              ADD     A,#05H
01C6 F9                MOV     R1,A
01C7 EA                MOV     A,R2
01C8 3400              ADDC    A,#00H
01CA FA                MOV     R2,A
01CB 12000000    E     LCALL   ?C?CLDPTR
01CF FF                MOV     R7,A
01D0 90000000    R     MOV     DPTR,#buf
01D4 E0                MOVX    A,@DPTR
01D5 FB                MOV     R3,A
01D6 A3                INC     DPTR
01D7 E0                MOVX    A,@DPTR
01D8 FA                MOV     R2,A
01D9 A3                INC     DPTR
01DA E0                MOVX    A,@DPTR
01DB F9                MOV     R1,A
01DC E9                MOV     A,R1
01DD 240B              ADD     A,#0BH
01DF F9                MOV     R1,A
01E0 EA                MOV     A,R2
01E1 3400              ADDC    A,#00H
01E3 FA                MOV     R2,A
C51 COMPILER V8.06   ADAPTER                                                               03/17/2026 10:18:46 PAGE 92  

01E4 EF                MOV     A,R7
01E5 12000000    E     LCALL   ?C?CSTPTR
                                           ; SOURCE LINE # 396
01E9 90000000    R     MOV     DPTR,#buf
01ED E0                MOVX    A,@DPTR
01EE FB                MOV     R3,A
01EF A3                INC     DPTR
01F0 E0                MOVX    A,@DPTR
01F1 FA                MOV     R2,A
01F2 A3                INC     DPTR
01F3 E0                MOVX    A,@DPTR
01F4 F9                MOV     R1,A
01F5 E9                MOV     A,R1
01F6 240C              ADD     A,#0CH
01F8 F9                MOV     R1,A
01F9 EA                MOV     A,R2
01FA 3400              ADDC    A,#00H
01FC FA                MOV     R2,A
01FD 7408              MOV     A,#08H
01FF 12000000    E     LCALL   ?C?CSTPTR
                                           ; SOURCE LINE # 397
0203 90000000    R     MOV     DPTR,#buf
0207 E0                MOVX    A,@DPTR
0208 FB                MOV     R3,A
0209 A3                INC     DPTR
020A E0                MOVX    A,@DPTR
020B FA                MOV     R2,A
020C A3                INC     DPTR
020D E0                MOVX    A,@DPTR
020E F9                MOV     R1,A
020F E9                MOV     A,R1
0210 240D              ADD     A,#0DH
0212 F9                MOV     R1,A
0213 EA                MOV     A,R2
0214 3400              ADDC    A,#00H
0216 FA                MOV     R2,A
0217 7406              MOV     A,#06H
0219 12000000    E     LCALL   ?C?CSTPTR
                                           ; SOURCE LINE # 399
021D 90000000    R     MOV     DPTR,#buf
0221 E0                MOVX    A,@DPTR
0222 FB                MOV     R3,A
0223 A3                INC     DPTR
0224 E0                MOVX    A,@DPTR
0225 FA                MOV     R2,A
0226 A3                INC     DPTR
0227 E0                MOVX    A,@DPTR
0228 F9                MOV     R1,A
0229 E9                MOV     A,R1
022A 240E              ADD     A,#0EH
022C F9                MOV     R1,A
022D EA                MOV     A,R2
022E 3400              ADDC    A,#00H
0230 FA                MOV     R2,A
0231 E4                CLR     A
0232 12000000    E     LCALL   ?C?CSTPTR
                                           ; SOURCE LINE # 400
0236 90000000    R     MOV     DPTR,#buf
023A E0                MOVX    A,@DPTR
023B FB                MOV     R3,A
023C A3                INC     DPTR
023D E0                MOVX    A,@DPTR
C51 COMPILER V8.06   ADAPTER                                                               03/17/2026 10:18:46 PAGE 93  

023E FA                MOV     R2,A
023F A3                INC     DPTR
0240 E0                MOVX    A,@DPTR
0241 F9                MOV     R1,A
0242 E9                MOV     A,R1
0243 240F              ADD     A,#0FH
0245 F9                MOV     R1,A
0246 EA                MOV     A,R2
0247 3400              ADDC    A,#00H
0249 FA                MOV     R2,A
024A 7401              MOV     A,#01H
024C 12000000    E     LCALL   ?C?CSTPTR
                                           ; SOURCE LINE # 401
0250 90000000    R     MOV     DPTR,#buf
0254 E0                MOVX    A,@DPTR
0255 FB                MOV     R3,A
0256 A3                INC     DPTR
0257 E0                MOVX    A,@DPTR
0258 FA                MOV     R2,A
0259 A3                INC     DPTR
025A E0                MOVX    A,@DPTR
025B F9                MOV     R1,A
025C E9                MOV     A,R1
025D 2410              ADD     A,#010H
025F F9                MOV     R1,A
0260 EA                MOV     A,R2
0261 3400              ADDC    A,#00H
0263 FA                MOV     R2,A
0264 7408              MOV     A,#08H
0266 12000000    E     LCALL   ?C?CSTPTR
                                           ; SOURCE LINE # 402
026A 90000000    R     MOV     DPTR,#buf
026E E0                MOVX    A,@DPTR
026F FB                MOV     R3,A
0270 A3                INC     DPTR
0271 E0                MOVX    A,@DPTR
0272 FA                MOV     R2,A
0273 A3                INC     DPTR
0274 E0                MOVX    A,@DPTR
0275 F9                MOV     R1,A
0276 E9                MOV     A,R1
0277 2411              ADD     A,#011H
0279 F9                MOV     R1,A
027A EA                MOV     A,R2
027B 3400              ADDC    A,#00H
027D FA                MOV     R2,A
027E E4                CLR     A
027F 12000000    E     LCALL   ?C?CSTPTR
                                           ; SOURCE LINE # 403
0283 90000000    R     MOV     DPTR,#buf
0287 E0                MOVX    A,@DPTR
0288 FB                MOV     R3,A
0289 A3                INC     DPTR
028A E0                MOVX    A,@DPTR
028B FA                MOV     R2,A
028C A3                INC     DPTR
028D E0                MOVX    A,@DPTR
028E F9                MOV     R1,A
028F E9                MOV     A,R1
0290 2412              ADD     A,#012H
0292 F9                MOV     R1,A
0293 EA                MOV     A,R2
C51 COMPILER V8.06   ADAPTER                                                               03/17/2026 10:18:46 PAGE 94  

0294 3400              ADDC    A,#00H
0296 FA                MOV     R2,A
0297 7406              MOV     A,#06H
0299 12000000    E     LCALL   ?C?CSTPTR
                                           ; SOURCE LINE # 404
029D 90000000    R     MOV     DPTR,#buf
02A1 E0                MOVX    A,@DPTR
02A2 FB                MOV     R3,A
02A3 A3                INC     DPTR
02A4 E0                MOVX    A,@DPTR
02A5 FA                MOV     R2,A
02A6 A3                INC     DPTR
02A7 E0                MOVX    A,@DPTR
02A8 F9                MOV     R1,A
02A9 E9                MOV     A,R1
02AA 2413              ADD     A,#013H
02AC F9                MOV     R1,A
02AD EA                MOV     A,R2
02AE 3400              ADDC    A,#00H
02B0 FA                MOV     R2,A
02B1 7404              MOV     A,#04H
02B3 12000000    E     LCALL   ?C?CSTPTR
                                           ; SOURCE LINE # 405
02B7 90000000    R     MOV     DPTR,#buf
02BB E0                MOVX    A,@DPTR
02BC FB                MOV     R3,A
02BD A3                INC     DPTR
02BE E0                MOVX    A,@DPTR
02BF FA                MOV     R2,A
02C0 A3                INC     DPTR
02C1 E0                MOVX    A,@DPTR
02C2 F9                MOV     R1,A
02C3 E9                MOV     A,R1
02C4 2414              ADD     A,#014H
02C6 F9                MOV     R1,A
02C7 EA                MOV     A,R2
02C8 3400              ADDC    A,#00H
02CA FA                MOV     R2,A
02CB E4                CLR     A
02CC 12000000    E     LCALL   ?C?CSTPTR
                                           ; SOURCE LINE # 406
02D0 90000000    R     MOV     DPTR,#buf
02D4 E0                MOVX    A,@DPTR
02D5 FB                MOV     R3,A
02D6 A3                INC     DPTR
02D7 E0                MOVX    A,@DPTR
02D8 FA                MOV     R2,A
02D9 A3                INC     DPTR
02DA E0                MOVX    A,@DPTR
02DB F9                MOV     R1,A
02DC E9                MOV     A,R1
02DD 2415              ADD     A,#015H
02DF F9                MOV     R1,A
02E0 EA                MOV     A,R2
02E1 3400              ADDC    A,#00H
02E3 FA                MOV     R2,A
02E4 7401              MOV     A,#01H
02E6 12000000    E     LCALL   ?C?CSTPTR
                                           ; SOURCE LINE # 408
02EA 90000000    R     MOV     DPTR,#point
02EE E0                MOVX    A,@DPTR
02EF FB                MOV     R3,A
C51 COMPILER V8.06   ADAPTER                                                               03/17/2026 10:18:46 PAGE 95  

02F0 A3                INC     DPTR
02F1 E0                MOVX    A,@DPTR
02F2 FA                MOV     R2,A
02F3 A3                INC     DPTR
02F4 E0                MOVX    A,@DPTR
02F5 F9                MOV     R1,A
02F6 12000000    E     LCALL   ?C?CLDPTR
02FA FF                MOV     R7,A
02FB 90000000    R     MOV     DPTR,#buf
02FF E0                MOVX    A,@DPTR
0300 FB                MOV     R3,A
0301 A3                INC     DPTR
0302 E0                MOVX    A,@DPTR
0303 FA                MOV     R2,A
0304 A3                INC     DPTR
0305 E0                MOVX    A,@DPTR
0306 F9                MOV     R1,A
0307 E9                MOV     A,R1
0308 2416              ADD     A,#016H
030A F9                MOV     R1,A
030B EA                MOV     A,R2
030C 3400              ADDC    A,#00H
030E FA                MOV     R2,A
030F EF                MOV     A,R7
0310 12000000    E     LCALL   ?C?CSTPTR
                                           ; SOURCE LINE # 409
0314 90000000    R     MOV     DPTR,#point
0318 E0                MOVX    A,@DPTR
0319 FB                MOV     R3,A
031A A3                INC     DPTR
031B E0                MOVX    A,@DPTR
031C FA                MOV     R2,A
031D A3                INC     DPTR
031E E0                MOVX    A,@DPTR
031F F9                MOV     R1,A
0320 E9                MOV     A,R1
0321 2401              ADD     A,#01H
0323 F9                MOV     R1,A
0324 EA                MOV     A,R2
0325 3400              ADDC    A,#00H
0327 FA                MOV     R2,A
0328 12000000    E     LCALL   ?C?CLDPTR
032C FF                MOV     R7,A
032D 90000000    R     MOV     DPTR,#buf
0331 E0                MOVX    A,@DPTR
0332 FB                MOV     R3,A
0333 A3                INC     DPTR
0334 E0                MOVX    A,@DPTR
0335 FA                MOV     R2,A
0336 A3                INC     DPTR
0337 E0                MOVX    A,@DPTR
0338 F9                MOV     R1,A
0339 E9                MOV     A,R1
033A 2417              ADD     A,#017H
033C F9                MOV     R1,A
033D EA                MOV     A,R2
033E 3400              ADDC    A,#00H
0340 FA                MOV     R2,A
0341 EF                MOV     A,R7
0342 12000000    E     LCALL   ?C?CSTPTR
                                           ; SOURCE LINE # 410
0346 90000000    R     MOV     DPTR,#point
C51 COMPILER V8.06   ADAPTER                                                               03/17/2026 10:18:46 PAGE 96  

034A E0                MOVX    A,@DPTR
034B FB                MOV     R3,A
034C A3                INC     DPTR
034D E0                MOVX    A,@DPTR
034E FA                MOV     R2,A
034F A3                INC     DPTR
0350 E0                MOVX    A,@DPTR
0351 F9                MOV     R1,A
0352 E9                MOV     A,R1
0353 2402              ADD     A,#02H
0355 F9                MOV     R1,A
0356 EA                MOV     A,R2
0357 3400              ADDC    A,#00H
0359 FA                MOV     R2,A
035A 12000000    E     LCALL   ?C?CLDPTR
035E FF                MOV     R7,A
035F 90000000    R     MOV     DPTR,#buf
0363 E0                MOVX    A,@DPTR
0364 FB                MOV     R3,A
0365 A3                INC     DPTR
0366 E0                MOVX    A,@DPTR
0367 FA                MOV     R2,A
0368 A3                INC     DPTR
0369 E0                MOVX    A,@DPTR
036A F9                MOV     R1,A
036B E9                MOV     A,R1
036C 2418              ADD     A,#018H
036E F9                MOV     R1,A
036F EA                MOV     A,R2
0370 3400              ADDC    A,#00H
0372 FA                MOV     R2,A
0373 EF                MOV     A,R7
0374 12000000    E     LCALL   ?C?CSTPTR
                                           ; SOURCE LINE # 411
0378 90000000    R     MOV     DPTR,#point
037C E0                MOVX    A,@DPTR
037D FB                MOV     R3,A
037E A3                INC     DPTR
037F E0                MOVX    A,@DPTR
0380 FA                MOV     R2,A
0381 A3                INC     DPTR
0382 E0                MOVX    A,@DPTR
0383 F9                MOV     R1,A
0384 E9                MOV     A,R1
0385 2403              ADD     A,#03H
0387 F9                MOV     R1,A
0388 EA                MOV     A,R2
0389 3400              ADDC    A,#00H
038B FA                MOV     R2,A
038C 12000000    E     LCALL   ?C?CLDPTR
0390 FF                MOV     R7,A
0391 90000000    R     MOV     DPTR,#buf
0395 E0                MOVX    A,@DPTR
0396 FB                MOV     R3,A
0397 A3                INC     DPTR
0398 E0                MOVX    A,@DPTR
0399 FA                MOV     R2,A
039A A3                INC     DPTR
039B E0                MOVX    A,@DPTR
039C F9                MOV     R1,A
039D E9                MOV     A,R1
039E 2419              ADD     A,#019H
C51 COMPILER V8.06   ADAPTER                                                               03/17/2026 10:18:46 PAGE 97  

03A0 F9                MOV     R1,A
03A1 EA                MOV     A,R2
03A2 3400              ADDC    A,#00H
03A4 FA                MOV     R2,A
03A5 EF                MOV     A,R7
03A6 12000000    E     LCALL   ?C?CSTPTR
                                           ; SOURCE LINE # 412
03AA 90000000    R     MOV     DPTR,#point
03AE E0                MOVX    A,@DPTR
03AF FB                MOV     R3,A
03B0 A3                INC     DPTR
03B1 E0                MOVX    A,@DPTR
03B2 FA                MOV     R2,A
03B3 A3                INC     DPTR
03B4 E0                MOVX    A,@DPTR
03B5 F9                MOV     R1,A
03B6 E9                MOV     A,R1
03B7 2404              ADD     A,#04H
03B9 F9                MOV     R1,A
03BA EA                MOV     A,R2
03BB 3400              ADDC    A,#00H
03BD FA                MOV     R2,A
03BE 12000000    E     LCALL   ?C?CLDPTR
03C2 FF                MOV     R7,A
03C3 90000000    R     MOV     DPTR,#buf
03C7 E0                MOVX    A,@DPTR
03C8 FB                MOV     R3,A
03C9 A3                INC     DPTR
03CA E0                MOVX    A,@DPTR
03CB FA                MOV     R2,A
03CC A3                INC     DPTR
03CD E0                MOVX    A,@DPTR
03CE F9                MOV     R1,A
03CF E9                MOV     A,R1
03D0 241A              ADD     A,#01AH
03D2 F9                MOV     R1,A
03D3 EA                MOV     A,R2
03D4 3400              ADDC    A,#00H
03D6 FA                MOV     R2,A
03D7 EF                MOV     A,R7
03D8 12000000    E     LCALL   ?C?CSTPTR
                                           ; SOURCE LINE # 413
03DC 90000000    R     MOV     DPTR,#point
03E0 E0                MOVX    A,@DPTR
03E1 FB                MOV     R3,A
03E2 A3                INC     DPTR
03E3 E0                MOVX    A,@DPTR
03E4 FA                MOV     R2,A
03E5 A3                INC     DPTR
03E6 E0                MOVX    A,@DPTR
03E7 F9                MOV     R1,A
03E8 E9                MOV     A,R1
03E9 2405              ADD     A,#05H
03EB F9                MOV     R1,A
03EC EA                MOV     A,R2
03ED 3400              ADDC    A,#00H
03EF FA                MOV     R2,A
03F0 12000000    E     LCALL   ?C?CLDPTR
03F4 FF                MOV     R7,A
03F5 90000000    R     MOV     DPTR,#buf
03F9 E0                MOVX    A,@DPTR
03FA FB                MOV     R3,A
C51 COMPILER V8.06   ADAPTER                                                               03/17/2026 10:18:46 PAGE 98  

03FB A3                INC     DPTR
03FC E0                MOVX    A,@DPTR
03FD FA                MOV     R2,A
03FE A3                INC     DPTR
03FF E0                MOVX    A,@DPTR
0400 F9                MOV     R1,A
0401 E9                MOV     A,R1
0402 241B              ADD     A,#01BH
0404 F9                MOV     R1,A
0405 EA                MOV     A,R2
0406 3400              ADDC    A,#00H
0408 FA                MOV     R2,A
0409 EF                MOV     A,R7
040A 12000000    E     LCALL   ?C?CSTPTR
                                           ; SOURCE LINE # 414
040E 90000000    E     MOV     DPTR,#PNetStation
0412 E0                MOVX    A,@DPTR
0413 FE                MOV     R6,A
0414 A3                INC     DPTR
0415 E0                MOVX    A,@DPTR
0416 FF                MOV     R7,A
0417 8F82              MOV     DPL,R7
0419 8E83              MOV     DPH,R6
041B 759300      E     MOV     DPX,#?C?XDATASEG
041E E582              MOV     A,DPL
0420 240C              ADD     A,#0CH
0422 F582              MOV     DPL,A
0424 E583              MOV     A,DPH
0426 3400              ADDC    A,#00H
0428 F583              MOV     DPH,A
042A 759300      E     MOV     DPX,#?C?XDATASEG
042D E0                MOVX    A,@DPTR
042E FC                MOV     R4,A
042F A3                INC     DPTR
0430 E0                MOVX    A,@DPTR
0431 FD                MOV     R5,A
0432 A3                INC     DPTR
0433 E0                MOVX    A,@DPTR
0434 FE                MOV     R6,A
0435 A3                INC     DPTR
0436 E0                MOVX    A,@DPTR
0437 FF                MOV     R7,A
0438 90000000    R     MOV     DPTR,#buf
043C E0                MOVX    A,@DPTR
043D FB                MOV     R3,A
043E A3                INC     DPTR
043F E0                MOVX    A,@DPTR
0440 FA                MOV     R2,A
0441 A3                INC     DPTR
0442 E0                MOVX    A,@DPTR
0443 F9                MOV     R1,A
0444 E9                MOV     A,R1
0445 241C              ADD     A,#01CH
0447 F9                MOV     R1,A
0448 EA                MOV     A,R2
0449 3400              ADDC    A,#00H
044B FA                MOV     R2,A
044C 12000000    E     LCALL   ?C?LSTPTR
                                           ; SOURCE LINE # 416
0450 90000000    R     MOV     DPTR,#buf
0454 E0                MOVX    A,@DPTR
0455 FB                MOV     R3,A
C51 COMPILER V8.06   ADAPTER                                                               03/17/2026 10:18:46 PAGE 99  

0456 A3                INC     DPTR
0457 E0                MOVX    A,@DPTR
0458 FA                MOV     R2,A
0459 A3                INC     DPTR
045A E0                MOVX    A,@DPTR
045B F9                MOV     R1,A
045C E9                MOV     A,R1
045D 2420              ADD     A,#020H
045F F9                MOV     R1,A
0460 EA                MOV     A,R2
0461 3400              ADDC    A,#00H
0463 FA                MOV     R2,A
0464 E4                CLR     A
0465 12000000    E     LCALL   ?C?CSTPTR
                                           ; SOURCE LINE # 417
0469 90000000    R     MOV     DPTR,#buf
046D E0                MOVX    A,@DPTR
046E FB                MOV     R3,A
046F A3                INC     DPTR
0470 E0                MOVX    A,@DPTR
0471 FA                MOV     R2,A
0472 A3                INC     DPTR
0473 E0                MOVX    A,@DPTR
0474 F9                MOV     R1,A
0475 E9                MOV     A,R1
0476 2421              ADD     A,#021H
0478 F9                MOV     R1,A
0479 EA                MOV     A,R2
047A 3400              ADDC    A,#00H
047C FA                MOV     R2,A
047D E4                CLR     A
047E 12000000    E     LCALL   ?C?CSTPTR
                                           ; SOURCE LINE # 418
0482 90000000    R     MOV     DPTR,#buf
0486 E0                MOVX    A,@DPTR
0487 FB                MOV     R3,A
0488 A3                INC     DPTR
0489 E0                MOVX    A,@DPTR
048A FA                MOV     R2,A
048B A3                INC     DPTR
048C E0                MOVX    A,@DPTR
048D F9                MOV     R1,A
048E E9                MOV     A,R1
048F 2422              ADD     A,#022H
0491 F9                MOV     R1,A
0492 EA                MOV     A,R2
0493 3400              ADDC    A,#00H
0495 FA                MOV     R2,A
0496 E4                CLR     A
0497 12000000    E     LCALL   ?C?CSTPTR
                                           ; SOURCE LINE # 419
049B 90000000    R     MOV     DPTR,#buf
049F E0                MOVX    A,@DPTR
04A0 FB                MOV     R3,A
04A1 A3                INC     DPTR
04A2 E0                MOVX    A,@DPTR
04A3 FA                MOV     R2,A
04A4 A3                INC     DPTR
04A5 E0                MOVX    A,@DPTR
04A6 F9                MOV     R1,A
04A7 E9                MOV     A,R1
04A8 2423              ADD     A,#023H
C51 COMPILER V8.06   ADAPTER                                                               03/17/2026 10:18:46 PAGE 100 

04AA F9                MOV     R1,A
04AB EA                MOV     A,R2
04AC 3400              ADDC    A,#00H
04AE FA                MOV     R2,A
04AF E4                CLR     A
04B0 12000000    E     LCALL   ?C?CSTPTR
                                           ; SOURCE LINE # 420
04B4 90000000    R     MOV     DPTR,#buf
04B8 E0                MOVX    A,@DPTR
04B9 FB                MOV     R3,A
04BA A3                INC     DPTR
04BB E0                MOVX    A,@DPTR
04BC FA                MOV     R2,A
04BD A3                INC     DPTR
04BE E0                MOVX    A,@DPTR
04BF F9                MOV     R1,A
04C0 E9                MOV     A,R1
04C1 2424              ADD     A,#024H
04C3 F9                MOV     R1,A
04C4 EA                MOV     A,R2
04C5 3400              ADDC    A,#00H
04C7 FA                MOV     R2,A
04C8 E4                CLR     A
04C9 12000000    E     LCALL   ?C?CSTPTR
                                           ; SOURCE LINE # 421
04CD 90000000    R     MOV     DPTR,#buf
04D1 E0                MOVX    A,@DPTR
04D2 FB                MOV     R3,A
04D3 A3                INC     DPTR
04D4 E0                MOVX    A,@DPTR
04D5 FA                MOV     R2,A
04D6 A3                INC     DPTR
04D7 E0                MOVX    A,@DPTR
04D8 F9                MOV     R1,A
04D9 E9                MOV     A,R1
04DA 2425              ADD     A,#025H
04DC F9                MOV     R1,A
04DD EA                MOV     A,R2
04DE 3400              ADDC    A,#00H
04E0 FA                MOV     R2,A
04E1 E4                CLR     A
04E2 12000000    E     LCALL   ?C?CSTPTR
                                           ; SOURCE LINE # 422
04E6 90000000    R     MOV     DPTR,#dstIp
04EA E0                MOVX    A,@DPTR
04EB FC                MOV     R4,A
04EC A3                INC     DPTR
04ED E0                MOVX    A,@DPTR
04EE FD                MOV     R5,A
04EF A3                INC     DPTR
04F0 E0                MOVX    A,@DPTR
04F1 FE                MOV     R6,A
04F2 A3                INC     DPTR
04F3 E0                MOVX    A,@DPTR
04F4 FF                MOV     R7,A
04F5 90000000    R     MOV     DPTR,#buf
04F9 E0                MOVX    A,@DPTR
04FA FB                MOV     R3,A
04FB A3                INC     DPTR
04FC E0                MOVX    A,@DPTR
04FD FA                MOV     R2,A
04FE A3                INC     DPTR
C51 COMPILER V8.06   ADAPTER                                                               03/17/2026 10:18:46 PAGE 101 

04FF E0                MOVX    A,@DPTR
0500 F9                MOV     R1,A
0501 E9                MOV     A,R1
0502 2426              ADD     A,#026H
0504 F9                MOV     R1,A
0505 EA                MOV     A,R2
0506 3400              ADDC    A,#00H
0508 FA                MOV     R2,A
0509 12000000    E     LCALL   ?C?LSTPTR
                                           ; SOURCE LINE # 424
050D 7F00              MOV     R7,#00H
050F 7E00              MOV     R6,#00H
0511 12000000    R     LCALL   _ETH_Send
                                           ; SOURCE LINE # 427
0515         ?C0047:
0515 22                RET     
             ; FUNCTION _ETH_SendArpRequest (END)

             ; FUNCTION ETH_RestartSendArpToGateway (BEGIN)
                                           ; SOURCE LINE # 438
                                           ; SOURCE LINE # 439
                                           ; SOURCE LINE # 440
0000 90000000    E     MOV     DPTR,#uip_getgatewaymacaddrflag
0004 E4                CLR     A
0005 F0                MOVX    @DPTR,A
                                           ; SOURCE LINE # 441
0006 7F03              MOV     R7,#03H
0008 7E00              MOV     R6,#00H
000A 7D00              MOV     R5,#00H
000C 7C00              MOV     R4,#00H
000E 90000000    R     MOV     DPTR,#eth_ArpSendIntervalTime
0012 12000000    E     LCALL   ?C?LSTXDATA
                                           ; SOURCE LINE # 442
0016         ?C0048:
0016 22                RET     
             ; FUNCTION ETH_RestartSendArpToGateway (END)

             ; FUNCTION ETH_SendDhcpArpRequest (BEGIN)
                                           ; SOURCE LINE # 453
                                           ; SOURCE LINE # 454
                                           ; SOURCE LINE # 455
0000 7B00        E     MOV     R3,#MBYTE uip_buf
0002 7A00        E     MOV     R2,#HIGH uip_buf
0004 7900        E     MOV     R1,#LOW uip_buf
0006 90000000    R     MOV     DPTR,#buf
000A EB                MOV     A,R3
000B F0                MOVX    @DPTR,A
000C A3                INC     DPTR
000D EA                MOV     A,R2
000E F0                MOVX    @DPTR,A
000F A3                INC     DPTR
0010 E9                MOV     A,R1
0011 F0                MOVX    @DPTR,A
                                           ; SOURCE LINE # 458
0012 7F05              MOV     R7,#05H
0014 7E00              MOV     R6,#00H
0016 7D00              MOV     R5,#00H
0018 7C00              MOV     R4,#00H
001A 90000000    R     MOV     DPTR,#eth_ArpSendIntervalTime
001E 12000000    E     LCALL   ?C?LSTXDATA
                                           ; SOURCE LINE # 460
0022 12000000    E     LCALL   MAC_GetMacAddr
C51 COMPILER V8.06   ADAPTER                                                               03/17/2026 10:18:46 PAGE 102 

0026 90000000    R     MOV     DPTR,#point
002A EB                MOV     A,R3
002B F0                MOVX    @DPTR,A
002C A3                INC     DPTR
002D EA                MOV     A,R2
002E F0                MOVX    @DPTR,A
002F A3                INC     DPTR
0030 E9                MOV     A,R1
0031 F0                MOVX    @DPTR,A
                                           ; SOURCE LINE # 461
0032 7800        E     MOV     R0,#LOW uip_len
0034 7600              MOV     @R0,#00H
0036 08                INC     R0
0037 762A              MOV     @R0,#02AH
                                           ; SOURCE LINE # 463
0039 90000000    R     MOV     DPTR,#buf
003D E0                MOVX    A,@DPTR
003E FB                MOV     R3,A
003F A3                INC     DPTR
0040 E0                MOVX    A,@DPTR
0041 FA                MOV     R2,A
0042 A3                INC     DPTR
0043 E0                MOVX    A,@DPTR
0044 F9                MOV     R1,A
0045 74FF              MOV     A,#0FFH
0047 12000000    E     LCALL   ?C?CSTPTR
                                           ; SOURCE LINE # 464
004B 90000000    R     MOV     DPTR,#buf
004F E0                MOVX    A,@DPTR
0050 FB                MOV     R3,A
0051 A3                INC     DPTR
0052 E0                MOVX    A,@DPTR
0053 FA                MOV     R2,A
0054 A3                INC     DPTR
0055 E0                MOVX    A,@DPTR
0056 F9                MOV     R1,A
0057 E9                MOV     A,R1
0058 2401              ADD     A,#01H
005A F9                MOV     R1,A
005B EA                MOV     A,R2
005C 3400              ADDC    A,#00H
005E FA                MOV     R2,A
005F 74FF              MOV     A,#0FFH
0061 12000000    E     LCALL   ?C?CSTPTR
                                           ; SOURCE LINE # 465
0065 90000000    R     MOV     DPTR,#buf
0069 E0                MOVX    A,@DPTR
006A FB                MOV     R3,A
006B A3                INC     DPTR
006C E0                MOVX    A,@DPTR
006D FA                MOV     R2,A
006E A3                INC     DPTR
006F E0                MOVX    A,@DPTR
0070 F9                MOV     R1,A
0071 E9                MOV     A,R1
0072 2402              ADD     A,#02H
0074 F9                MOV     R1,A
0075 EA                MOV     A,R2
0076 3400              ADDC    A,#00H
0078 FA                MOV     R2,A
0079 74FF              MOV     A,#0FFH
007B 12000000    E     LCALL   ?C?CSTPTR
C51 COMPILER V8.06   ADAPTER                                                               03/17/2026 10:18:46 PAGE 103 

                                           ; SOURCE LINE # 466
007F 90000000    R     MOV     DPTR,#buf
0083 E0                MOVX    A,@DPTR
0084 FB                MOV     R3,A
0085 A3                INC     DPTR
0086 E0                MOVX    A,@DPTR
0087 FA                MOV     R2,A
0088 A3                INC     DPTR
0089 E0                MOVX    A,@DPTR
008A F9                MOV     R1,A
008B E9                MOV     A,R1
008C 2403              ADD     A,#03H
008E F9                MOV     R1,A
008F EA                MOV     A,R2
0090 3400              ADDC    A,#00H
0092 FA                MOV     R2,A
0093 74FF              MOV     A,#0FFH
0095 12000000    E     LCALL   ?C?CSTPTR
                                           ; SOURCE LINE # 467
0099 90000000    R     MOV     DPTR,#buf
009D E0                MOVX    A,@DPTR
009E FB                MOV     R3,A
009F A3                INC     DPTR
00A0 E0                MOVX    A,@DPTR
00A1 FA                MOV     R2,A
00A2 A3                INC     DPTR
00A3 E0                MOVX    A,@DPTR
00A4 F9                MOV     R1,A
00A5 E9                MOV     A,R1
00A6 2404              ADD     A,#04H
00A8 F9                MOV     R1,A
00A9 EA                MOV     A,R2
00AA 3400              ADDC    A,#00H
00AC FA                MOV     R2,A
00AD 74FF              MOV     A,#0FFH
00AF 12000000    E     LCALL   ?C?CSTPTR
                                           ; SOURCE LINE # 468
00B3 90000000    R     MOV     DPTR,#buf
00B7 E0                MOVX    A,@DPTR
00B8 FB                MOV     R3,A
00B9 A3                INC     DPTR
00BA E0                MOVX    A,@DPTR
00BB FA                MOV     R2,A
00BC A3                INC     DPTR
00BD E0                MOVX    A,@DPTR
00BE F9                MOV     R1,A
00BF E9                MOV     A,R1
00C0 2405              ADD     A,#05H
00C2 F9                MOV     R1,A
00C3 EA                MOV     A,R2
00C4 3400              ADDC    A,#00H
00C6 FA                MOV     R2,A
00C7 74FF              MOV     A,#0FFH
00C9 12000000    E     LCALL   ?C?CSTPTR
                                           ; SOURCE LINE # 469
00CD 90000000    R     MOV     DPTR,#point
00D1 E0                MOVX    A,@DPTR
00D2 FB                MOV     R3,A
00D3 A3                INC     DPTR
00D4 E0                MOVX    A,@DPTR
00D5 FA                MOV     R2,A
00D6 A3                INC     DPTR
C51 COMPILER V8.06   ADAPTER                                                               03/17/2026 10:18:46 PAGE 104 

00D7 E0                MOVX    A,@DPTR
00D8 F9                MOV     R1,A
00D9 12000000    E     LCALL   ?C?CLDPTR
00DD FF                MOV     R7,A
00DE 90000000    R     MOV     DPTR,#buf
00E2 E0                MOVX    A,@DPTR
00E3 FB                MOV     R3,A
00E4 A3                INC     DPTR
00E5 E0                MOVX    A,@DPTR
00E6 FA                MOV     R2,A
00E7 A3                INC     DPTR
00E8 E0                MOVX    A,@DPTR
00E9 F9                MOV     R1,A
00EA E9                MOV     A,R1
00EB 2406              ADD     A,#06H
00ED F9                MOV     R1,A
00EE EA                MOV     A,R2
00EF 3400              ADDC    A,#00H
00F1 FA                MOV     R2,A
00F2 EF                MOV     A,R7
00F3 12000000    E     LCALL   ?C?CSTPTR
                                           ; SOURCE LINE # 470
00F7 90000000    R     MOV     DPTR,#point
00FB E0                MOVX    A,@DPTR
00FC FB                MOV     R3,A
00FD A3                INC     DPTR
00FE E0                MOVX    A,@DPTR
00FF FA                MOV     R2,A
0100 A3                INC     DPTR
0101 E0                MOVX    A,@DPTR
0102 F9                MOV     R1,A
0103 E9                MOV     A,R1
0104 2401              ADD     A,#01H
0106 F9                MOV     R1,A
0107 EA                MOV     A,R2
0108 3400              ADDC    A,#00H
010A FA                MOV     R2,A
010B 12000000    E     LCALL   ?C?CLDPTR
010F FF                MOV     R7,A
0110 90000000    R     MOV     DPTR,#buf
0114 E0                MOVX    A,@DPTR
0115 FB                MOV     R3,A
0116 A3                INC     DPTR
0117 E0                MOVX    A,@DPTR
0118 FA                MOV     R2,A
0119 A3                INC     DPTR
011A E0                MOVX    A,@DPTR
011B F9                MOV     R1,A
011C E9                MOV     A,R1
011D 2407              ADD     A,#07H
011F F9                MOV     R1,A
0120 EA                MOV     A,R2
0121 3400              ADDC    A,#00H
0123 FA                MOV     R2,A
0124 EF                MOV     A,R7
0125 12000000    E     LCALL   ?C?CSTPTR
                                           ; SOURCE LINE # 471
0129 90000000    R     MOV     DPTR,#point
012D E0                MOVX    A,@DPTR
012E FB                MOV     R3,A
012F A3                INC     DPTR
0130 E0                MOVX    A,@DPTR
C51 COMPILER V8.06   ADAPTER                                                               03/17/2026 10:18:46 PAGE 105 

0131 FA                MOV     R2,A
0132 A3                INC     DPTR
0133 E0                MOVX    A,@DPTR
0134 F9                MOV     R1,A
0135 E9                MOV     A,R1
0136 2402              ADD     A,#02H
0138 F9                MOV     R1,A
0139 EA                MOV     A,R2
013A 3400              ADDC    A,#00H
013C FA                MOV     R2,A
013D 12000000    E     LCALL   ?C?CLDPTR
0141 FF                MOV     R7,A
0142 90000000    R     MOV     DPTR,#buf
0146 E0                MOVX    A,@DPTR
0147 FB                MOV     R3,A
0148 A3                INC     DPTR
0149 E0                MOVX    A,@DPTR
014A FA                MOV     R2,A
014B A3                INC     DPTR
014C E0                MOVX    A,@DPTR
014D F9                MOV     R1,A
014E E9                MOV     A,R1
014F 2408              ADD     A,#08H
0151 F9                MOV     R1,A
0152 EA                MOV     A,R2
0153 3400              ADDC    A,#00H
0155 FA                MOV     R2,A
0156 EF                MOV     A,R7
0157 12000000    E     LCALL   ?C?CSTPTR
                                           ; SOURCE LINE # 472
015B 90000000    R     MOV     DPTR,#point
015F E0                MOVX    A,@DPTR
0160 FB                MOV     R3,A
0161 A3                INC     DPTR
0162 E0                MOVX    A,@DPTR
0163 FA                MOV     R2,A
0164 A3                INC     DPTR
0165 E0                MOVX    A,@DPTR
0166 F9                MOV     R1,A
0167 E9                MOV     A,R1
0168 2403              ADD     A,#03H
016A F9                MOV     R1,A
016B EA                MOV     A,R2
016C 3400              ADDC    A,#00H
016E FA                MOV     R2,A
016F 12000000    E     LCALL   ?C?CLDPTR
0173 FF                MOV     R7,A
0174 90000000    R     MOV     DPTR,#buf
0178 E0                MOVX    A,@DPTR
0179 FB                MOV     R3,A
017A A3                INC     DPTR
017B E0                MOVX    A,@DPTR
017C FA                MOV     R2,A
017D A3                INC     DPTR
017E E0                MOVX    A,@DPTR
017F F9                MOV     R1,A
0180 E9                MOV     A,R1
0181 2409              ADD     A,#09H
0183 F9                MOV     R1,A
0184 EA                MOV     A,R2
0185 3400              ADDC    A,#00H
0187 FA                MOV     R2,A
C51 COMPILER V8.06   ADAPTER                                                               03/17/2026 10:18:46 PAGE 106 

0188 EF                MOV     A,R7
0189 12000000    E     LCALL   ?C?CSTPTR
                                           ; SOURCE LINE # 473
018D 90000000    R     MOV     DPTR,#point
0191 E0                MOVX    A,@DPTR
0192 FB                MOV     R3,A
0193 A3                INC     DPTR
0194 E0                MOVX    A,@DPTR
0195 FA                MOV     R2,A
0196 A3                INC     DPTR
0197 E0                MOVX    A,@DPTR
0198 F9                MOV     R1,A
0199 E9                MOV     A,R1
019A 2404              ADD     A,#04H
019C F9                MOV     R1,A
019D EA                MOV     A,R2
019E 3400              ADDC    A,#00H
01A0 FA                MOV     R2,A
01A1 12000000    E     LCALL   ?C?CLDPTR
01A5 FF                MOV     R7,A
01A6 90000000    R     MOV     DPTR,#buf
01AA E0                MOVX    A,@DPTR
01AB FB                MOV     R3,A
01AC A3                INC     DPTR
01AD E0                MOVX    A,@DPTR
01AE FA                MOV     R2,A
01AF A3                INC     DPTR
01B0 E0                MOVX    A,@DPTR
01B1 F9                MOV     R1,A
01B2 E9                MOV     A,R1
01B3 240A              ADD     A,#0AH
01B5 F9                MOV     R1,A
01B6 EA                MOV     A,R2
01B7 3400              ADDC    A,#00H
01B9 FA                MOV     R2,A
01BA EF                MOV     A,R7
01BB 12000000    E     LCALL   ?C?CSTPTR
                                           ; SOURCE LINE # 474
01BF 90000000    R     MOV     DPTR,#point
01C3 E0                MOVX    A,@DPTR
01C4 FB                MOV     R3,A
01C5 A3                INC     DPTR
01C6 E0                MOVX    A,@DPTR
01C7 FA                MOV     R2,A
01C8 A3                INC     DPTR
01C9 E0                MOVX    A,@DPTR
01CA F9                MOV     R1,A
01CB E9                MOV     A,R1
01CC 2405              ADD     A,#05H
01CE F9                MOV     R1,A
01CF EA                MOV     A,R2
01D0 3400              ADDC    A,#00H
01D2 FA                MOV     R2,A
01D3 12000000    E     LCALL   ?C?CLDPTR
01D7 FF                MOV     R7,A
01D8 90000000    R     MOV     DPTR,#buf
01DC E0                MOVX    A,@DPTR
01DD FB                MOV     R3,A
01DE A3                INC     DPTR
01DF E0                MOVX    A,@DPTR
01E0 FA                MOV     R2,A
01E1 A3                INC     DPTR
C51 COMPILER V8.06   ADAPTER                                                               03/17/2026 10:18:46 PAGE 107 

01E2 E0                MOVX    A,@DPTR
01E3 F9                MOV     R1,A
01E4 E9                MOV     A,R1
01E5 240B              ADD     A,#0BH
01E7 F9                MOV     R1,A
01E8 EA                MOV     A,R2
01E9 3400              ADDC    A,#00H
01EB FA                MOV     R2,A
01EC EF                MOV     A,R7
01ED 12000000    E     LCALL   ?C?CSTPTR
                                           ; SOURCE LINE # 475
01F1 90000000    R     MOV     DPTR,#buf
01F5 E0                MOVX    A,@DPTR
01F6 FB                MOV     R3,A
01F7 A3                INC     DPTR
01F8 E0                MOVX    A,@DPTR
01F9 FA                MOV     R2,A
01FA A3                INC     DPTR
01FB E0                MOVX    A,@DPTR
01FC F9                MOV     R1,A
01FD E9                MOV     A,R1
01FE 240C              ADD     A,#0CH
0200 F9                MOV     R1,A
0201 EA                MOV     A,R2
0202 3400              ADDC    A,#00H
0204 FA                MOV     R2,A
0205 7408              MOV     A,#08H
0207 12000000    E     LCALL   ?C?CSTPTR
                                           ; SOURCE LINE # 476
020B 90000000    R     MOV     DPTR,#buf
020F E0                MOVX    A,@DPTR
0210 FB                MOV     R3,A
0211 A3                INC     DPTR
0212 E0                MOVX    A,@DPTR
0213 FA                MOV     R2,A
0214 A3                INC     DPTR
0215 E0                MOVX    A,@DPTR
0216 F9                MOV     R1,A
0217 E9                MOV     A,R1
0218 240D              ADD     A,#0DH
021A F9                MOV     R1,A
021B EA                MOV     A,R2
021C 3400              ADDC    A,#00H
021E FA                MOV     R2,A
021F 7406              MOV     A,#06H
0221 12000000    E     LCALL   ?C?CSTPTR
                                           ; SOURCE LINE # 478
0225 90000000    R     MOV     DPTR,#buf
0229 E0                MOVX    A,@DPTR
022A FB                MOV     R3,A
022B A3                INC     DPTR
022C E0                MOVX    A,@DPTR
022D FA                MOV     R2,A
022E A3                INC     DPTR
022F E0                MOVX    A,@DPTR
0230 F9                MOV     R1,A
0231 E9                MOV     A,R1
0232 240E              ADD     A,#0EH
0234 F9                MOV     R1,A
0235 EA                MOV     A,R2
0236 3400              ADDC    A,#00H
0238 FA                MOV     R2,A
C51 COMPILER V8.06   ADAPTER                                                               03/17/2026 10:18:46 PAGE 108 

0239 E4                CLR     A
023A 12000000    E     LCALL   ?C?CSTPTR
                                           ; SOURCE LINE # 479
023E 90000000    R     MOV     DPTR,#buf
0242 E0                MOVX    A,@DPTR
0243 FB                MOV     R3,A
0244 A3                INC     DPTR
0245 E0                MOVX    A,@DPTR
0246 FA                MOV     R2,A
0247 A3                INC     DPTR
0248 E0                MOVX    A,@DPTR
0249 F9                MOV     R1,A
024A E9                MOV     A,R1
024B 240F              ADD     A,#0FH
024D F9                MOV     R1,A
024E EA                MOV     A,R2
024F 3400              ADDC    A,#00H
0251 FA                MOV     R2,A
0252 7401              MOV     A,#01H
0254 12000000    E     LCALL   ?C?CSTPTR
                                           ; SOURCE LINE # 480
0258 90000000    R     MOV     DPTR,#buf
025C E0                MOVX    A,@DPTR
025D FB                MOV     R3,A
025E A3                INC     DPTR
025F E0                MOVX    A,@DPTR
0260 FA                MOV     R2,A
0261 A3                INC     DPTR
0262 E0                MOVX    A,@DPTR
0263 F9                MOV     R1,A
0264 E9                MOV     A,R1
0265 2410              ADD     A,#010H
0267 F9                MOV     R1,A
0268 EA                MOV     A,R2
0269 3400              ADDC    A,#00H
026B FA                MOV     R2,A
026C 7408              MOV     A,#08H
026E 12000000    E     LCALL   ?C?CSTPTR
                                           ; SOURCE LINE # 481
0272 90000000    R     MOV     DPTR,#buf
0276 E0                MOVX    A,@DPTR
0277 FB                MOV     R3,A
0278 A3                INC     DPTR
0279 E0                MOVX    A,@DPTR
027A FA                MOV     R2,A
027B A3                INC     DPTR
027C E0                MOVX    A,@DPTR
027D F9                MOV     R1,A
027E E9                MOV     A,R1
027F 2411              ADD     A,#011H
0281 F9                MOV     R1,A
0282 EA                MOV     A,R2
0283 3400              ADDC    A,#00H
0285 FA                MOV     R2,A
0286 E4                CLR     A
0287 12000000    E     LCALL   ?C?CSTPTR
                                           ; SOURCE LINE # 482
028B 90000000    R     MOV     DPTR,#buf
028F E0                MOVX    A,@DPTR
0290 FB                MOV     R3,A
0291 A3                INC     DPTR
0292 E0                MOVX    A,@DPTR
C51 COMPILER V8.06   ADAPTER                                                               03/17/2026 10:18:46 PAGE 109 

0293 FA                MOV     R2,A
0294 A3                INC     DPTR
0295 E0                MOVX    A,@DPTR
0296 F9                MOV     R1,A
0297 E9                MOV     A,R1
0298 2412              ADD     A,#012H
029A F9                MOV     R1,A
029B EA                MOV     A,R2
029C 3400              ADDC    A,#00H
029E FA                MOV     R2,A
029F 7406              MOV     A,#06H
02A1 12000000    E     LCALL   ?C?CSTPTR
                                           ; SOURCE LINE # 483
02A5 90000000    R     MOV     DPTR,#buf
02A9 E0                MOVX    A,@DPTR
02AA FB                MOV     R3,A
02AB A3                INC     DPTR
02AC E0                MOVX    A,@DPTR
02AD FA                MOV     R2,A
02AE A3                INC     DPTR
02AF E0                MOVX    A,@DPTR
02B0 F9                MOV     R1,A
02B1 E9                MOV     A,R1
02B2 2413              ADD     A,#013H
02B4 F9                MOV     R1,A
02B5 EA                MOV     A,R2
02B6 3400              ADDC    A,#00H
02B8 FA                MOV     R2,A
02B9 7404              MOV     A,#04H
02BB 12000000    E     LCALL   ?C?CSTPTR
                                           ; SOURCE LINE # 484
02BF 90000000    R     MOV     DPTR,#buf
02C3 E0                MOVX    A,@DPTR
02C4 FB                MOV     R3,A
02C5 A3                INC     DPTR
02C6 E0                MOVX    A,@DPTR
02C7 FA                MOV     R2,A
02C8 A3                INC     DPTR
02C9 E0                MOVX    A,@DPTR
02CA F9                MOV     R1,A
02CB E9                MOV     A,R1
02CC 2414              ADD     A,#014H
02CE F9                MOV     R1,A
02CF EA                MOV     A,R2
02D0 3400              ADDC    A,#00H
02D2 FA                MOV     R2,A
02D3 E4                CLR     A
02D4 12000000    E     LCALL   ?C?CSTPTR
                                           ; SOURCE LINE # 485
02D8 90000000    R     MOV     DPTR,#buf
02DC E0                MOVX    A,@DPTR
02DD FB                MOV     R3,A
02DE A3                INC     DPTR
02DF E0                MOVX    A,@DPTR
02E0 FA                MOV     R2,A
02E1 A3                INC     DPTR
02E2 E0                MOVX    A,@DPTR
02E3 F9                MOV     R1,A
02E4 E9                MOV     A,R1
02E5 2415              ADD     A,#015H
02E7 F9                MOV     R1,A
02E8 EA                MOV     A,R2
C51 COMPILER V8.06   ADAPTER                                                               03/17/2026 10:18:46 PAGE 110 

02E9 3400              ADDC    A,#00H
02EB FA                MOV     R2,A
02EC 7401              MOV     A,#01H
02EE 12000000    E     LCALL   ?C?CSTPTR
                                           ; SOURCE LINE # 487
02F2 90000000    R     MOV     DPTR,#point
02F6 E0                MOVX    A,@DPTR
02F7 FB                MOV     R3,A
02F8 A3                INC     DPTR
02F9 E0                MOVX    A,@DPTR
02FA FA                MOV     R2,A
02FB A3                INC     DPTR
02FC E0                MOVX    A,@DPTR
02FD F9                MOV     R1,A
02FE 12000000    E     LCALL   ?C?CLDPTR
0302 FF                MOV     R7,A
0303 90000000    R     MOV     DPTR,#buf
0307 E0                MOVX    A,@DPTR
0308 FB                MOV     R3,A
0309 A3                INC     DPTR
030A E0                MOVX    A,@DPTR
030B FA                MOV     R2,A
030C A3                INC     DPTR
030D E0                MOVX    A,@DPTR
030E F9                MOV     R1,A
030F E9                MOV     A,R1
0310 2416              ADD     A,#016H
0312 F9                MOV     R1,A
0313 EA                MOV     A,R2
0314 3400              ADDC    A,#00H
0316 FA                MOV     R2,A
0317 EF                MOV     A,R7
0318 12000000    E     LCALL   ?C?CSTPTR
                                           ; SOURCE LINE # 488
031C 90000000    R     MOV     DPTR,#point
0320 E0                MOVX    A,@DPTR
0321 FB                MOV     R3,A
0322 A3                INC     DPTR
0323 E0                MOVX    A,@DPTR
0324 FA                MOV     R2,A
0325 A3                INC     DPTR
0326 E0                MOVX    A,@DPTR
0327 F9                MOV     R1,A
0328 E9                MOV     A,R1
0329 2401              ADD     A,#01H
032B F9                MOV     R1,A
032C EA                MOV     A,R2
032D 3400              ADDC    A,#00H
032F FA                MOV     R2,A
0330 12000000    E     LCALL   ?C?CLDPTR
0334 FF                MOV     R7,A
0335 90000000    R     MOV     DPTR,#buf
0339 E0                MOVX    A,@DPTR
033A FB                MOV     R3,A
033B A3                INC     DPTR
033C E0                MOVX    A,@DPTR
033D FA                MOV     R2,A
033E A3                INC     DPTR
033F E0                MOVX    A,@DPTR
0340 F9                MOV     R1,A
0341 E9                MOV     A,R1
0342 2417              ADD     A,#017H
C51 COMPILER V8.06   ADAPTER                                                               03/17/2026 10:18:46 PAGE 111 

0344 F9                MOV     R1,A
0345 EA                MOV     A,R2
0346 3400              ADDC    A,#00H
0348 FA                MOV     R2,A
0349 EF                MOV     A,R7
034A 12000000    E     LCALL   ?C?CSTPTR
                                           ; SOURCE LINE # 489
034E 90000000    R     MOV     DPTR,#point
0352 E0                MOVX    A,@DPTR
0353 FB                MOV     R3,A
0354 A3                INC     DPTR
0355 E0                MOVX    A,@DPTR
0356 FA                MOV     R2,A
0357 A3                INC     DPTR
0358 E0                MOVX    A,@DPTR
0359 F9                MOV     R1,A
035A E9                MOV     A,R1
035B 2402              ADD     A,#02H
035D F9                MOV     R1,A
035E EA                MOV     A,R2
035F 3400              ADDC    A,#00H
0361 FA                MOV     R2,A
0362 12000000    E     LCALL   ?C?CLDPTR
0366 FF                MOV     R7,A
0367 90000000    R     MOV     DPTR,#buf
036B E0                MOVX    A,@DPTR
036C FB                MOV     R3,A
036D A3                INC     DPTR
036E E0                MOVX    A,@DPTR
036F FA                MOV     R2,A
0370 A3                INC     DPTR
0371 E0                MOVX    A,@DPTR
0372 F9                MOV     R1,A
0373 E9                MOV     A,R1
0374 2418              ADD     A,#018H
0376 F9                MOV     R1,A
0377 EA                MOV     A,R2
0378 3400              ADDC    A,#00H
037A FA                MOV     R2,A
037B EF                MOV     A,R7
037C 12000000    E     LCALL   ?C?CSTPTR
                                           ; SOURCE LINE # 490
0380 90000000    R     MOV     DPTR,#point
0384 E0                MOVX    A,@DPTR
0385 FB                MOV     R3,A
0386 A3                INC     DPTR
0387 E0                MOVX    A,@DPTR
0388 FA                MOV     R2,A
0389 A3                INC     DPTR
038A E0                MOVX    A,@DPTR
038B F9                MOV     R1,A
038C E9                MOV     A,R1
038D 2403              ADD     A,#03H
038F F9                MOV     R1,A
0390 EA                MOV     A,R2
0391 3400              ADDC    A,#00H
0393 FA                MOV     R2,A
0394 12000000    E     LCALL   ?C?CLDPTR
0398 FF                MOV     R7,A
0399 90000000    R     MOV     DPTR,#buf
039D E0                MOVX    A,@DPTR
039E FB                MOV     R3,A
C51 COMPILER V8.06   ADAPTER                                                               03/17/2026 10:18:46 PAGE 112 

039F A3                INC     DPTR
03A0 E0                MOVX    A,@DPTR
03A1 FA                MOV     R2,A
03A2 A3                INC     DPTR
03A3 E0                MOVX    A,@DPTR
03A4 F9                MOV     R1,A
03A5 E9                MOV     A,R1
03A6 2419              ADD     A,#019H
03A8 F9                MOV     R1,A
03A9 EA                MOV     A,R2
03AA 3400              ADDC    A,#00H
03AC FA                MOV     R2,A
03AD EF                MOV     A,R7
03AE 12000000    E     LCALL   ?C?CSTPTR
                                           ; SOURCE LINE # 491
03B2 90000000    R     MOV     DPTR,#point
03B6 E0                MOVX    A,@DPTR
03B7 FB                MOV     R3,A
03B8 A3                INC     DPTR
03B9 E0                MOVX    A,@DPTR
03BA FA                MOV     R2,A
03BB A3                INC     DPTR
03BC E0                MOVX    A,@DPTR
03BD F9                MOV     R1,A
03BE E9                MOV     A,R1
03BF 2404              ADD     A,#04H
03C1 F9                MOV     R1,A
03C2 EA                MOV     A,R2
03C3 3400              ADDC    A,#00H
03C5 FA                MOV     R2,A
03C6 12000000    E     LCALL   ?C?CLDPTR
03CA FF                MOV     R7,A
03CB 90000000    R     MOV     DPTR,#buf
03CF E0                MOVX    A,@DPTR
03D0 FB                MOV     R3,A
03D1 A3                INC     DPTR
03D2 E0                MOVX    A,@DPTR
03D3 FA                MOV     R2,A
03D4 A3                INC     DPTR
03D5 E0                MOVX    A,@DPTR
03D6 F9                MOV     R1,A
03D7 E9                MOV     A,R1
03D8 241A              ADD     A,#01AH
03DA F9                MOV     R1,A
03DB EA                MOV     A,R2
03DC 3400              ADDC    A,#00H
03DE FA                MOV     R2,A
03DF EF                MOV     A,R7
03E0 12000000    E     LCALL   ?C?CSTPTR
                                           ; SOURCE LINE # 492
03E4 90000000    R     MOV     DPTR,#point
03E8 E0                MOVX    A,@DPTR
03E9 FB                MOV     R3,A
03EA A3                INC     DPTR
03EB E0                MOVX    A,@DPTR
03EC FA                MOV     R2,A
03ED A3                INC     DPTR
03EE E0                MOVX    A,@DPTR
03EF F9                MOV     R1,A
03F0 E9                MOV     A,R1
03F1 2405              ADD     A,#05H
03F3 F9                MOV     R1,A
C51 COMPILER V8.06   ADAPTER                                                               03/17/2026 10:18:46 PAGE 113 

03F4 EA                MOV     A,R2
03F5 3400              ADDC    A,#00H
03F7 FA                MOV     R2,A
03F8 12000000    E     LCALL   ?C?CLDPTR
03FC FF                MOV     R7,A
03FD 90000000    R     MOV     DPTR,#buf
0401 E0                MOVX    A,@DPTR
0402 FB                MOV     R3,A
0403 A3                INC     DPTR
0404 E0                MOVX    A,@DPTR
0405 FA                MOV     R2,A
0406 A3                INC     DPTR
0407 E0                MOVX    A,@DPTR
0408 F9                MOV     R1,A
0409 E9                MOV     A,R1
040A 241B              ADD     A,#01BH
040C F9                MOV     R1,A
040D EA                MOV     A,R2
040E 3400              ADDC    A,#00H
0410 FA                MOV     R2,A
0411 EF                MOV     A,R7
0412 12000000    E     LCALL   ?C?CSTPTR
                                           ; SOURCE LINE # 493
0416 90000000    E     MOV     DPTR,#PNetStation
041A E0                MOVX    A,@DPTR
041B FE                MOV     R6,A
041C A3                INC     DPTR
041D E0                MOVX    A,@DPTR
041E FF                MOV     R7,A
041F 8F82              MOV     DPL,R7
0421 8E83              MOV     DPH,R6
0423 759300      E     MOV     DPX,#?C?XDATASEG
0426 E582              MOV     A,DPL
0428 240C              ADD     A,#0CH
042A F582              MOV     DPL,A
042C E583              MOV     A,DPH
042E 3400              ADDC    A,#00H
0430 F583              MOV     DPH,A
0432 759300      E     MOV     DPX,#?C?XDATASEG
0435 E0                MOVX    A,@DPTR
0436 FC                MOV     R4,A
0437 A3                INC     DPTR
0438 E0                MOVX    A,@DPTR
0439 FD                MOV     R5,A
043A A3                INC     DPTR
043B E0                MOVX    A,@DPTR
043C FE                MOV     R6,A
043D A3                INC     DPTR
043E E0                MOVX    A,@DPTR
043F FF                MOV     R7,A
0440 90000000    R     MOV     DPTR,#buf
0444 E0                MOVX    A,@DPTR
0445 FB                MOV     R3,A
0446 A3                INC     DPTR
0447 E0                MOVX    A,@DPTR
0448 FA                MOV     R2,A
0449 A3                INC     DPTR
044A E0                MOVX    A,@DPTR
044B F9                MOV     R1,A
044C E9                MOV     A,R1
044D 241C              ADD     A,#01CH
044F F9                MOV     R1,A
C51 COMPILER V8.06   ADAPTER                                                               03/17/2026 10:18:46 PAGE 114 

0450 EA                MOV     A,R2
0451 3400              ADDC    A,#00H
0453 FA                MOV     R2,A
0454 12000000    E     LCALL   ?C?LSTPTR
                                           ; SOURCE LINE # 495
0458 90000000    R     MOV     DPTR,#buf
045C E0                MOVX    A,@DPTR
045D FB                MOV     R3,A
045E A3                INC     DPTR
045F E0                MOVX    A,@DPTR
0460 FA                MOV     R2,A
0461 A3                INC     DPTR
0462 E0                MOVX    A,@DPTR
0463 F9                MOV     R1,A
0464 E9                MOV     A,R1
0465 2420              ADD     A,#020H
0467 F9                MOV     R1,A
0468 EA                MOV     A,R2
0469 3400              ADDC    A,#00H
046B FA                MOV     R2,A
046C E4                CLR     A
046D 12000000    E     LCALL   ?C?CSTPTR
                                           ; SOURCE LINE # 496
0471 90000000    R     MOV     DPTR,#buf
0475 E0                MOVX    A,@DPTR
0476 FB                MOV     R3,A
0477 A3                INC     DPTR
0478 E0                MOVX    A,@DPTR
0479 FA                MOV     R2,A
047A A3                INC     DPTR
047B E0                MOVX    A,@DPTR
047C F9                MOV     R1,A
047D E9                MOV     A,R1
047E 2421              ADD     A,#021H
0480 F9                MOV     R1,A
0481 EA                MOV     A,R2
0482 3400              ADDC    A,#00H
0484 FA                MOV     R2,A
0485 E4                CLR     A
0486 12000000    E     LCALL   ?C?CSTPTR
                                           ; SOURCE LINE # 497
048A 90000000    R     MOV     DPTR,#buf
048E E0                MOVX    A,@DPTR
048F FB                MOV     R3,A
0490 A3                INC     DPTR
0491 E0                MOVX    A,@DPTR
0492 FA                MOV     R2,A
0493 A3                INC     DPTR
0494 E0                MOVX    A,@DPTR
0495 F9                MOV     R1,A
0496 E9                MOV     A,R1
0497 2422              ADD     A,#022H
0499 F9                MOV     R1,A
049A EA                MOV     A,R2
049B 3400              ADDC    A,#00H
049D FA                MOV     R2,A
049E E4                CLR     A
049F 12000000    E     LCALL   ?C?CSTPTR
                                           ; SOURCE LINE # 498
04A3 90000000    R     MOV     DPTR,#buf
04A7 E0                MOVX    A,@DPTR
04A8 FB                MOV     R3,A
C51 COMPILER V8.06   ADAPTER                                                               03/17/2026 10:18:46 PAGE 115 

04A9 A3                INC     DPTR
04AA E0                MOVX    A,@DPTR
04AB FA                MOV     R2,A
04AC A3                INC     DPTR
04AD E0                MOVX    A,@DPTR
04AE F9                MOV     R1,A
04AF E9                MOV     A,R1
04B0 2423              ADD     A,#023H
04B2 F9                MOV     R1,A
04B3 EA                MOV     A,R2
04B4 3400              ADDC    A,#00H
04B6 FA                MOV     R2,A
04B7 E4                CLR     A
04B8 12000000    E     LCALL   ?C?CSTPTR
                                           ; SOURCE LINE # 499
04BC 90000000    R     MOV     DPTR,#buf
04C0 E0                MOVX    A,@DPTR
04C1 FB                MOV     R3,A
04C2 A3                INC     DPTR
04C3 E0                MOVX    A,@DPTR
04C4 FA                MOV     R2,A
04C5 A3                INC     DPTR
04C6 E0                MOVX    A,@DPTR
04C7 F9                MOV     R1,A
04C8 E9                MOV     A,R1
04C9 2424              ADD     A,#024H
04CB F9                MOV     R1,A
04CC EA                MOV     A,R2
04CD 3400              ADDC    A,#00H
04CF FA                MOV     R2,A
04D0 E4                CLR     A
04D1 12000000    E     LCALL   ?C?CSTPTR
                                           ; SOURCE LINE # 500
04D5 90000000    R     MOV     DPTR,#buf
04D9 E0                MOVX    A,@DPTR
04DA FB                MOV     R3,A
04DB A3                INC     DPTR
04DC E0                MOVX    A,@DPTR
04DD FA                MOV     R2,A
04DE A3                INC     DPTR
04DF E0                MOVX    A,@DPTR
04E0 F9                MOV     R1,A
04E1 E9                MOV     A,R1
04E2 2425              ADD     A,#025H
04E4 F9                MOV     R1,A
04E5 EA                MOV     A,R2
04E6 3400              ADDC    A,#00H
04E8 FA                MOV     R2,A
04E9 E4                CLR     A
04EA 12000000    E     LCALL   ?C?CSTPTR
                                           ; SOURCE LINE # 501
04EE 90000000    E     MOV     DPTR,#PNetStation
04F2 E0                MOVX    A,@DPTR
04F3 FE                MOV     R6,A
04F4 A3                INC     DPTR
04F5 E0                MOVX    A,@DPTR
04F6 FF                MOV     R7,A
04F7 8F82              MOV     DPL,R7
04F9 8E83              MOV     DPH,R6
04FB 759300      E     MOV     DPX,#?C?XDATASEG
04FE E582              MOV     A,DPL
0500 240C              ADD     A,#0CH
C51 COMPILER V8.06   ADAPTER                                                               03/17/2026 10:18:46 PAGE 116 

0502 F582              MOV     DPL,A
0504 E583              MOV     A,DPH
0506 3400              ADDC    A,#00H
0508 F583              MOV     DPH,A
050A 759300      E     MOV     DPX,#?C?XDATASEG
050D E0                MOVX    A,@DPTR
050E FC                MOV     R4,A
050F A3                INC     DPTR
0510 E0                MOVX    A,@DPTR
0511 FD                MOV     R5,A
0512 A3                INC     DPTR
0513 E0                MOVX    A,@DPTR
0514 FE                MOV     R6,A
0515 A3                INC     DPTR
0516 E0                MOVX    A,@DPTR
0517 FF                MOV     R7,A
0518 90000000    R     MOV     DPTR,#buf
051C E0                MOVX    A,@DPTR
051D FB                MOV     R3,A
051E A3                INC     DPTR
051F E0                MOVX    A,@DPTR
0520 FA                MOV     R2,A
0521 A3                INC     DPTR
0522 E0                MOVX    A,@DPTR
0523 F9                MOV     R1,A
0524 E9                MOV     A,R1
0525 2426              ADD     A,#026H
0527 F9                MOV     R1,A
0528 EA                MOV     A,R2
0529 3400              ADDC    A,#00H
052B FA                MOV     R2,A
052C 12000000    E     LCALL   ?C?LSTPTR
                                           ; SOURCE LINE # 503
0530 90000000    R     MOV     DPTR,#ETH_DhcpArpReply
0534 E4                CLR     A
0535 F0                MOVX    @DPTR,A
                                           ; SOURCE LINE # 505
0536 7F00              MOV     R7,#00H
0538 7E00              MOV     R6,#00H
053A 12000000    R     LCALL   _ETH_Send
                                           ; SOURCE LINE # 508
053E         ?C0049:
053E 22                RET     
             ; FUNCTION ETH_SendDhcpArpRequest (END)

C51 COMPILER V8.06   ADAPTER                                                               03/17/2026 10:18:46 PAGE 117 

NAME                                    CLASS   MSPACE  TYPE    OFFSET  SIZE
====                                    =====   ======  ====    ======  ====


PHY_INFO . . . . . . . . . . . . . . .  TYPEDEF  -----  STRUCT   -----  2
  PhyAddr. . . . . . . . . . . . . . .  MEMBER   -----  U_CHAR   0000H  1
  PhyType. . . . . . . . . . . . . . .  MEMBER   -----  U_CHAR   0001H  1
_ETH_SendPkt . . . . . . . . . . . . .  PUBLIC   CODE   PROC     0000H  -----
  psour. . . . . . . . . . . . . . . .  AUTO     XDATA  PTR      0000H  2
  length . . . . . . . . . . . . . . .  AUTO     XDATA  U_INT    0002H  2
  pBuf . . . . . . . . . . . . . . . .  AUTO     XDATA  PTR      0004H  2
  point. . . . . . . . . . . . . . . .  AUTO     XDATA  PTR      0006H  2
  len. . . . . . . . . . . . . . . . .  AUTO     XDATA  U_INT    0008H  2
  addr . . . . . . . . . . . . . . . .  AUTO     XDATA  U_INT    000AH  2
  isPppoeIp. . . . . . . . . . . . . .  AUTO     XDATA  U_CHAR   000CH  1
  totalLen . . . . . . . . . . . . . .  AUTO     XDATA  U_INT    000DH  2
  sourIp . . . . . . . . . . . . . . .  AUTO     XDATA  U_LONG   000FH  4
  destIp . . . . . . . . . . . . . . .  AUTO     XDATA  U_LONG   0013H  4
  mode . . . . . . . . . . . . . . . .  AUTO     XDATA  U_CHAR   0017H  1
uip_arp_ipin . . . . . . . . . . . . .  EXTERN   CODE   PROC     -----  -----
_dhcp_info . . . . . . . . . . . . . .  * TAG *  -----  STRUCT   -----  39
  State. . . . . . . . . . . . . . . .  MEMBER   -----  CHAR     0000H  1
  AppId. . . . . . . . . . . . . . . .  MEMBER   -----  U_CHAR   0001H  1
  SocketId . . . . . . . . . . . . . .  MEMBER   -----  U_CHAR   0002H  1
  dhcpPktPtr . . . . . . . . . . . . .  MEMBER   -----  PTR      0003H  3
  pOpt . . . . . . . . . . . . . . . .  MEMBER   -----  PTR      0006H  3
  OptionsCounter . . . . . . . . . . .  MEMBER   -----  U_INT    0009H  2
  Secs . . . . . . . . . . . . . . . .  MEMBER   -----  U_INT    000BH  2
  TimeoutInterval. . . . . . . . . . .  MEMBER   -----  U_INT    000DH  2
  ServerId . . . . . . . . . . . . . .  MEMBER   -----  ARRAY    000FH  4
  ClientOfferedIp. . . . . . . . . . .  MEMBER   -----  ARRAY    0013H  4
  IpAddr . . . . . . . . . . . . . . .  MEMBER   -----  U_LONG   0017H  4
  NetMask. . . . . . . . . . . . . . .  MEMBER   -----  U_LONG   001BH  4
  DnsAddr. . . . . . . . . . . . . . .  MEMBER   -----  U_LONG   001FH  4
  DefaultRouter. . . . . . . . . . . .  MEMBER   -----  U_LONG   0023H  4
uip_appdata. . . . . . . . . . . . . .  EXTERN   XDATA  PTR      -----  3
_ETH_SendArpToGateway. . . . . . . . .  PUBLIC   CODE   PROC     0000H  -----
  StopSendAfterRcvReply. . . . . . . .  AUTO     XDATA  U_INT    0000H  2
  gateway. . . . . . . . . . . . . . .  AUTO     XDATA  U_LONG   0002H  4
  ip . . . . . . . . . . . . . . . . .  AUTO     XDATA  U_LONG   0006H  4
  TempTime . . . . . . . . . . . . . .  AUTO     XDATA  U_LONG   000AH  4
  buf. . . . . . . . . . . . . . . . .  AUTO     XDATA  PTR      000EH  3
  point. . . . . . . . . . . . . . . .  AUTO     XDATA  PTR      0011H  3
PPPOE_INFO . . . . . . . . . . . . . .  TYPEDEF  -----  STRUCT   -----  7
  state. . . . . . . . . . . . . . . .  MEMBER   -----  U_CHAR   0000H  1
  identifier . . . . . . . . . . . . .  MEMBER   -----  U_CHAR   0001H  1
  wait_count_master. . . . . . . . . .  MEMBER   -----  U_CHAR   0002H  1
  wait_count_slave . . . . . . . . . .  MEMBER   -----  U_INT    0003H  2
  lcp_length . . . . . . . . . . . . .  MEMBER   -----  U_INT    0005H  2
_eth_CheckGatewayIp. . . . . . . . . .  PUBLIC   CODE   PROC     0000H  -----
  pBuf . . . . . . . . . . . . . . . .  AUTO     XDATA  PTR      0000H  2
  gatewayIp. . . . . . . . . . . . . .  AUTO     XDATA  U_LONG   0002H  4
  receiveIp. . . . . . . . . . . . . .  AUTO     XDATA  U_LONG   0006H  4
_pppoe_info. . . . . . . . . . . . . .  * TAG *  -----  STRUCT   -----  7
  state. . . . . . . . . . . . . . . .  MEMBER   -----  U_CHAR   0000H  1
  identifier . . . . . . . . . . . . .  MEMBER   -----  U_CHAR   0001H  1
  wait_count_master. . . . . . . . . .  MEMBER   -----  U_CHAR   0002H  1
  wait_count_slave . . . . . . . . . .  MEMBER   -----  U_INT    0003H  2
  lcp_length . . . . . . . . . . . . .  MEMBER   -----  U_INT    0005H  2
STOE_FRAME_HEADER. . . . . . . . . . .  TYPEDEF  -----  STRUCT   -----  7
  NPR. . . . . . . . . . . . . . . . .  MEMBER   -----  U_INT    0000H  2
C51 COMPILER V8.06   ADAPTER                                                               03/17/2026 10:18:46 PAGE 118 

NAME                                    CLASS   MSPACE  TYPE    OFFSET  SIZE
====                                    =====   ======  ====    ======  ====


  Length . . . . . . . . . . . . . . .  MEMBER   -----  U_INT    0002H  2
  Protocol . . . . . . . . . . . . . .  MEMBER   -----  U_CHAR   0004H  1
  DataOffset . . . . . . . . . . . . .  MEMBER   -----  U_CHAR   0005H  1
  Packet . . . . . . . . . . . . . . .  MEMBER   -----  U_CHAR   0006H  1
SWTIMER_Tick . . . . . . . . . . . . .  EXTERN   CODE   PROC     -----  -----
_tag . . . . . . . . . . . . . . . . .  * TAG *  -----  STRUCT   -----  1492
  name . . . . . . . . . . . . . . . .  MEMBER   -----  U_INT    0000H  2
  length . . . . . . . . . . . . . . .  MEMBER   -----  U_INT    0002H  2
  value. . . . . . . . . . . . . . . .  MEMBER   -----  ARRAY    0004H  1488
_eth_RcvHandle . . . . . . . . . . . .  STATIC   CODE   PROC     0000H  -----
  pbuf . . . . . . . . . . . . . . . .  AUTO     XDATA  PTR      0000H  2
  length . . . . . . . . . . . . . . .  AUTO     XDATA  U_INT    0002H  2
  protocol . . . . . . . . . . . . . .  AUTO     XDATA  U_CHAR   0004H  1
_TCPIP_SetMacAddr. . . . . . . . . . .  EXTERN   CODE   PROC     -----  -----
_STOE_CopyCode2TPBR. . . . . . . . . .  EXTERN   CODE   PROC     -----  -----
MAC_WUF. . . . . . . . . . . . . . . .  TYPEDEF  -----  STRUCT   -----  15
  Mode . . . . . . . . . . . . . . . .  MEMBER   -----  U_CHAR   0000H  1
  Offset0. . . . . . . . . . . . . . .  MEMBER   -----  U_CHAR   0001H  1
  Offset1. . . . . . . . . . . . . . .  MEMBER   -----  U_CHAR   0002H  1
  Mask0. . . . . . . . . . . . . . . .  MEMBER   -----  U_LONG   0003H  4
  Mask1. . . . . . . . . . . . . . . .  MEMBER   -----  U_LONG   0007H  4
  Pframe . . . . . . . . . . . . . . .  MEMBER   -----  PTR      000BH  3
  Length . . . . . . . . . . . . . . .  MEMBER   -----  U_CHAR   000EH  1
_pppoe_hdr . . . . . . . . . . . . . .  * TAG *  -----  STRUCT   -----  1512
  dest_addr. . . . . . . . . . . . . .  MEMBER   -----  ARRAY    0000H  6
  src_addr . . . . . . . . . . . . . .  MEMBER   -----  ARRAY    0006H  6
  ether_type . . . . . . . . . . . . .  MEMBER   -----  U_INT    000CH  2
  vhl. . . . . . . . . . . . . . . . .  MEMBER   -----  U_CHAR   000EH  1
  pppoe_code . . . . . . . . . . . . .  MEMBER   -----  U_CHAR   000FH  1
  session_id . . . . . . . . . . . . .  MEMBER   -----  U_INT    0010H  2
  payload_length . . . . . . . . . . .  MEMBER   -----  U_INT    0012H  2
  payload_data . . . . . . . . . . . .  MEMBER   -----  ARRAY    0014H  1492
PBDP . . . . . . . . . . . . . . . . .  EXTERN   XDATA  PTR      -----  2
_DMA_GrantXdata. . . . . . . . . . . .  EXTERN   CODE   PROC     -----  -----
ulong. . . . . . . . . . . . . . . . .  TYPEDEF  -----  U_LONG   -----  4
_ppp_handshake_session . . . . . . . .  * TAG *  -----  STRUCT   -----  1488
  protocol . . . . . . . . . . . . . .  MEMBER   -----  U_INT    0000H  2
  ppp_code . . . . . . . . . . . . . .  MEMBER   -----  U_CHAR   0002H  1
  ppp_id . . . . . . . . . . . . . . .  MEMBER   -----  U_CHAR   0003H  1
  length . . . . . . . . . . . . . . .  MEMBER   -----  U_INT    0004H  2
  option . . . . . . . . . . . . . . .  MEMBER   -----  ARRAY    0006H  1482
_STOE_Send . . . . . . . . . . . . . .  EXTERN   CODE   PROC     -----  -----
TCPIP_Receive. . . . . . . . . . . . .  EXTERN   CODE   PROC     -----  -----
DHCP_HEADER. . . . . . . . . . . . . .  TYPEDEF  -----  STRUCT   -----  548
  Op . . . . . . . . . . . . . . . . .  MEMBER   -----  U_CHAR   0000H  1
  Htype. . . . . . . . . . . . . . . .  MEMBER   -----  U_CHAR   0001H  1
  Hlen . . . . . . . . . . . . . . . .  MEMBER   -----  U_CHAR   0002H  1
  Hops . . . . . . . . . . . . . . . .  MEMBER   -----  U_CHAR   0003H  1
  Xid. . . . . . . . . . . . . . . . .  MEMBER   -----  U_LONG   0004H  4
  Seconds. . . . . . . . . . . . . . .  MEMBER   -----  U_INT    0008H  2
  Flags. . . . . . . . . . . . . . . .  MEMBER   -----  U_INT    000AH  2
  CiAddr . . . . . . . . . . . . . . .  MEMBER   -----  U_LONG   000CH  4
  YiAddr . . . . . . . . . . . . . . .  MEMBER   -----  U_LONG   0010H  4
  SiAddr . . . . . . . . . . . . . . .  MEMBER   -----  U_LONG   0014H  4
  GiAddr . . . . . . . . . . . . . . .  MEMBER   -----  U_LONG   0018H  4
  ChAddr . . . . . . . . . . . . . . .  MEMBER   -----  ARRAY    001CH  16
  Sname. . . . . . . . . . . . . . . .  MEMBER   -----  ARRAY    002CH  64
C51 COMPILER V8.06   ADAPTER                                                               03/17/2026 10:18:46 PAGE 119 

NAME                                    CLASS   MSPACE  TYPE    OFFSET  SIZE
====                                    =====   ======  ====    ======  ====


  File . . . . . . . . . . . . . . . .  MEMBER   -----  ARRAY    006CH  128
  Options. . . . . . . . . . . . . . .  MEMBER   -----  ARRAY    00ECH  312
DHCP_INFO. . . . . . . . . . . . . . .  TYPEDEF  -----  STRUCT   -----  39
  State. . . . . . . . . . . . . . . .  MEMBER   -----  CHAR     0000H  1
  AppId. . . . . . . . . . . . . . . .  MEMBER   -----  U_CHAR   0001H  1
  SocketId . . . . . . . . . . . . . .  MEMBER   -----  U_CHAR   0002H  1
  dhcpPktPtr . . . . . . . . . . . . .  MEMBER   -----  PTR      0003H  3
  pOpt . . . . . . . . . . . . . . . .  MEMBER   -----  PTR      0006H  3
  OptionsCounter . . . . . . . . . . .  MEMBER   -----  U_INT    0009H  2
  Secs . . . . . . . . . . . . . . . .  MEMBER   -----  U_INT    000BH  2
  TimeoutInterval. . . . . . . . . . .  MEMBER   -----  U_INT    000DH  2
  ServerId . . . . . . . . . . . . . .  MEMBER   -----  ARRAY    000FH  4
  ClientOfferedIp. . . . . . . . . . .  MEMBER   -----  ARRAY    0013H  4
  IpAddr . . . . . . . . . . . . . . .  MEMBER   -----  U_LONG   0017H  4
  NetMask. . . . . . . . . . . . . . .  MEMBER   -----  U_LONG   001BH  4
  DnsAddr. . . . . . . . . . . . . . .  MEMBER   -----  U_LONG   001FH  4
  DefaultRouter. . . . . . . . . . . .  MEMBER   -----  U_LONG   0023H  4
STOE_Start . . . . . . . . . . . . . .  EXTERN   CODE   PROC     -----  -----
bool . . . . . . . . . . . . . . . . .  TYPEDEF  -----  U_INT    -----  2
uip_arp_out. . . . . . . . . . . . . .  EXTERN   CODE   PROC     -----  -----
_MAC_WAKEUP_FRAME. . . . . . . . . . .  * TAG *  -----  STRUCT   -----  15
  Mode . . . . . . . . . . . . . . . .  MEMBER   -----  U_CHAR   0000H  1
  Offset0. . . . . . . . . . . . . . .  MEMBER   -----  U_CHAR   0001H  1
  Offset1. . . . . . . . . . . . . . .  MEMBER   -----  U_CHAR   0002H  1
  Mask0. . . . . . . . . . . . . . . .  MEMBER   -----  U_LONG   0003H  4
  Mask1. . . . . . . . . . . . . . . .  MEMBER   -----  U_LONG   0007H  4
  Pframe . . . . . . . . . . . . . . .  MEMBER   -----  PTR      000BH  3
  Length . . . . . . . . . . . . . . .  MEMBER   -----  U_CHAR   000EH  1
eth_ArpSendIntervalTime. . . . . . . .  STATIC   XDATA  U_LONG   0000H  4
_DMA_Grant . . . . . . . . . . . . . .  EXTERN   CODE   PROC     -----  -----
_STOE_AssignSendBuf. . . . . . . . . .  EXTERN   CODE   PROC     -----  -----
_STOE_Init . . . . . . . . . . . . . .  EXTERN   CODE   PROC     -----  -----
byte . . . . . . . . . . . . . . . . .  TYPEDEF  -----  U_CHAR   -----  1
eth_PayLoadOffset. . . . . . . . . . .  STATIC   XDATA  U_INT    0004H  2
tag. . . . . . . . . . . . . . . . . .  TYPEDEF  -----  STRUCT   -----  1492
  name . . . . . . . . . . . . . . . .  MEMBER   -----  U_INT    0000H  2
  length . . . . . . . . . . . . . . .  MEMBER   -----  U_INT    0002H  2
  value. . . . . . . . . . . . . . . .  MEMBER   -----  ARRAY    0004H  1488
_BUF_DESC_PAGE . . . . . . . . . . . .  * TAG *  -----  STRUCT   -----  190
  BDP_ID . . . . . . . . . . . . . . .  MEMBER   -----  U_CHAR   0000H  1
  Pad0 . . . . . . . . . . . . . . . .  MEMBER   -----  U_CHAR   0001H  1
  RSPP . . . . . . . . . . . . . . . .  MEMBER   -----  U_INT    0002H  2
  REPP . . . . . . . . . . . . . . . .  MEMBER   -----  U_INT    0004H  2
  RHPR . . . . . . . . . . . . . . . .  MEMBER   -----  U_INT    0006H  2
  RTPR . . . . . . . . . . . . . . . .  MEMBER   -----  U_INT    0008H  2
  RFP. . . . . . . . . . . . . . . . .  MEMBER   -----  U_CHAR   000AH  1
  Pad1 . . . . . . . . . . . . . . . .  MEMBER   -----  U_CHAR   000BH  1
  NetStation . . . . . . . . . . . . .  MEMBER   -----  STRUCT   000CH  36
  PhyInfo. . . . . . . . . . . . . . .  MEMBER   -----  STRUCT   0030H  2
  MacInfo. . . . . . . . . . . . . . .  MEMBER   -----  STRUCT   0032H  5
  RcvReserved. . . . . . . . . . . . .  MEMBER   -----  ARRAY    0037H  73
  TSPP . . . . . . . . . . . . . . . .  MEMBER   -----  U_INT    0080H  2
  TEPP . . . . . . . . . . . . . . . .  MEMBER   -----  U_INT    0082H  2
  THPR . . . . . . . . . . . . . . . .  MEMBER   -----  U_INT    0084H  2
  TTPR . . . . . . . . . . . . . . . .  MEMBER   -----  U_INT    0086H  2
  TFP. . . . . . . . . . . . . . . . .  MEMBER   -----  U_CHAR   0088H  1
  Pad2 . . . . . . . . . . . . . . . .  MEMBER   -----  U_CHAR   0089H  1
C51 COMPILER V8.06   ADAPTER                                                               03/17/2026 10:18:46 PAGE 120 

NAME                                    CLASS   MSPACE  TYPE    OFFSET  SIZE
====                                    =====   ======  ====    ======  ====


  VSPP . . . . . . . . . . . . . . . .  MEMBER   -----  U_INT    008AH  2
  RcvStartAddr . . . . . . . . . . . .  MEMBER   -----  PTR      008CH  2
  RcvEndAddr . . . . . . . . . . . . .  MEMBER   -----  PTR      008EH  2
  XmtStartAddr . . . . . . . . . . . .  MEMBER   -----  PTR      0090H  2
  XmtEndAddr . . . . . . . . . . . . .  MEMBER   -----  PTR      0092H  2
  STOE_TxInform. . . . . . . . . . . .  MEMBER   -----  STRUCT   0094H  21
  STOE_RxInform. . . . . . . . . . . .  MEMBER   -----  STRUCT   00A9H  21
word . . . . . . . . . . . . . . . . .  TYPEDEF  -----  U_INT    -----  2
sint . . . . . . . . . . . . . . . . .  TYPEDEF  -----  INT      -----  2
uint . . . . . . . . . . . . . . . . .  TYPEDEF  -----  U_INT    -----  2
_PACKET_INFORMATION. . . . . . . . . .  * TAG *  -----  STRUCT   -----  21
  PBuf . . . . . . . . . . . . . . . .  MEMBER   -----  PTR      0000H  2
  PIpHeader. . . . . . . . . . . . . .  MEMBER   -----  PTR      0002H  2
  PTUIHeader . . . . . . . . . . . . .  MEMBER   -----  PTR      0004H  2
  PData. . . . . . . . . . . . . . . .  MEMBER   -----  PTR      0006H  2
  TotalLen . . . . . . . . . . . . . .  MEMBER   -----  U_INT    0008H  2
  IpTotalLen . . . . . . . . . . . . .  MEMBER   -----  U_INT    000AH  2
  TUITotalLen. . . . . . . . . . . . .  MEMBER   -----  U_INT    000CH  2
  DataLen. . . . . . . . . . . . . . .  MEMBER   -----  U_INT    000EH  2
  Protocol . . . . . . . . . . . . . .  MEMBER   -----  U_CHAR   0010H  1
  IpHeaderLen. . . . . . . . . . . . .  MEMBER   -----  U_CHAR   0011H  1
  TcpHeaderLen . . . . . . . . . . . .  MEMBER   -----  U_CHAR   0012H  1
  SocketId . . . . . . . . . . . . . .  MEMBER   -----  U_CHAR   0013H  1
  Pages. . . . . . . . . . . . . . . .  MEMBER   -----  U_CHAR   0014H  1
pppoe_hdr. . . . . . . . . . . . . . .  TYPEDEF  -----  STRUCT   -----  1512
  dest_addr. . . . . . . . . . . . . .  MEMBER   -----  ARRAY    0000H  6
  src_addr . . . . . . . . . . . . . .  MEMBER   -----  ARRAY    0006H  6
  ether_type . . . . . . . . . . . . .  MEMBER   -----  U_INT    000CH  2
  vhl. . . . . . . . . . . . . . . . .  MEMBER   -----  U_CHAR   000EH  1
  pppoe_code . . . . . . . . . . . . .  MEMBER   -----  U_CHAR   000FH  1
  session_id . . . . . . . . . . . . .  MEMBER   -----  U_INT    0010H  2
  payload_length . . . . . . . . . . .  MEMBER   -----  U_INT    0012H  2
  payload_data . . . . . . . . . . . .  MEMBER   -----  ARRAY    0014H  1492
ppp_handshake_session. . . . . . . . .  TYPEDEF  -----  STRUCT   -----  1488
  protocol . . . . . . . . . . . . . .  MEMBER   -----  U_INT    0000H  2
  ppp_code . . . . . . . . . . . . . .  MEMBER   -----  U_CHAR   0002H  1
  ppp_id . . . . . . . . . . . . . . .  MEMBER   -----  U_CHAR   0003H  1
  length . . . . . . . . . . . . . . .  MEMBER   -----  U_INT    0004H  2
  option . . . . . . . . . . . . . . .  MEMBER   -----  ARRAY    0006H  1482
_dhcp_header . . . . . . . . . . . . .  * TAG *  -----  STRUCT   -----  548
  Op . . . . . . . . . . . . . . . . .  MEMBER   -----  U_CHAR   0000H  1
  Htype. . . . . . . . . . . . . . . .  MEMBER   -----  U_CHAR   0001H  1
  Hlen . . . . . . . . . . . . . . . .  MEMBER   -----  U_CHAR   0002H  1
  Hops . . . . . . . . . . . . . . . .  MEMBER   -----  U_CHAR   0003H  1
  Xid. . . . . . . . . . . . . . . . .  MEMBER   -----  U_LONG   0004H  4
  Seconds. . . . . . . . . . . . . . .  MEMBER   -----  U_INT    0008H  2
  Flags. . . . . . . . . . . . . . . .  MEMBER   -----  U_INT    000AH  2
  CiAddr . . . . . . . . . . . . . . .  MEMBER   -----  U_LONG   000CH  4
  YiAddr . . . . . . . . . . . . . . .  MEMBER   -----  U_LONG   0010H  4
  SiAddr . . . . . . . . . . . . . . .  MEMBER   -----  U_LONG   0014H  4
  GiAddr . . . . . . . . . . . . . . .  MEMBER   -----  U_LONG   0018H  4
  ChAddr . . . . . . . . . . . . . . .  MEMBER   -----  ARRAY    001CH  16
  Sname. . . . . . . . . . . . . . . .  MEMBER   -----  ARRAY    002CH  64
  File . . . . . . . . . . . . . . . .  MEMBER   -----  ARRAY    006CH  128
  Options. . . . . . . . . . . . . . .  MEMBER   -----  ARRAY    00ECH  312
_ETH_Send. . . . . . . . . . . . . . .  PUBLIC   CODE   PROC     0000H  -----
  payloadOffset. . . . . . . . . . . .  AUTO     XDATA  U_INT    0000H  2
C51 COMPILER V8.06   ADAPTER                                                               03/17/2026 10:18:46 PAGE 121 

NAME                                    CLASS   MSPACE  TYPE    OFFSET  SIZE
====                                    =====   ======  ====    ======  ====


  length . . . . . . . . . . . . . . .  AUTO     XDATA  U_INT    0002H  2
_LOCAL_STATION . . . . . . . . . . . .  * TAG *  -----  STRUCT   -----  36
  PermStaAddr. . . . . . . . . . . . .  MEMBER   -----  ARRAY    0000H  6
  CurrStaAddr. . . . . . . . . . . . .  MEMBER   -----  ARRAY    0006H  6
  StationIP. . . . . . . . . . . . . .  MEMBER   -----  U_LONG   000CH  4
  SubnetMask . . . . . . . . . . . . .  MEMBER   -----  U_LONG   0010H  4
  Gateway. . . . . . . . . . . . . . .  MEMBER   -----  U_LONG   0014H  4
  DefaultIP. . . . . . . . . . . . . .  MEMBER   -----  U_LONG   0018H  4
  DefaultMask. . . . . . . . . . . . .  MEMBER   -----  U_LONG   001CH  4
  DefaultGateway . . . . . . . . . . .  MEMBER   -----  U_LONG   0020H  4
ETH_Start. . . . . . . . . . . . . . .  PUBLIC   CODE   PROC     0000H  -----
_TCPIP_AssignLowlayerXmitFunc. . . . .  EXTERN   CODE   PROC     -----  -----
uip_getgatewaymacaddrflag. . . . . . .  EXTERN   XDATA  U_CHAR   -----  1
ETH_Init . . . . . . . . . . . . . . .  PUBLIC   CODE   PROC     0000H  -----
  point. . . . . . . . . . . . . . . .  AUTO     XDATA  PTR      0000H  3
eth_EthHeadLen . . . . . . . . . . . .  STATIC   XDATA  U_CHAR   0006H  1
_STOE_RcvCallback. . . . . . . . . . .  EXTERN   XDATA  PTR      -----  3
BUF_DESC_PAGE. . . . . . . . . . . . .  TYPEDEF  -----  STRUCT   -----  190
  BDP_ID . . . . . . . . . . . . . . .  MEMBER   -----  U_CHAR   0000H  1
  Pad0 . . . . . . . . . . . . . . . .  MEMBER   -----  U_CHAR   0001H  1
  RSPP . . . . . . . . . . . . . . . .  MEMBER   -----  U_INT    0002H  2
  REPP . . . . . . . . . . . . . . . .  MEMBER   -----  U_INT    0004H  2
  RHPR . . . . . . . . . . . . . . . .  MEMBER   -----  U_INT    0006H  2
  RTPR . . . . . . . . . . . . . . . .  MEMBER   -----  U_INT    0008H  2
  RFP. . . . . . . . . . . . . . . . .  MEMBER   -----  U_CHAR   000AH  1
  Pad1 . . . . . . . . . . . . . . . .  MEMBER   -----  U_CHAR   000BH  1
  NetStation . . . . . . . . . . . . .  MEMBER   -----  STRUCT   000CH  36
  PhyInfo. . . . . . . . . . . . . . .  MEMBER   -----  STRUCT   0030H  2
  MacInfo. . . . . . . . . . . . . . .  MEMBER   -----  STRUCT   0032H  5
  RcvReserved. . . . . . . . . . . . .  MEMBER   -----  ARRAY    0037H  73
  TSPP . . . . . . . . . . . . . . . .  MEMBER   -----  U_INT    0080H  2
  TEPP . . . . . . . . . . . . . . . .  MEMBER   -----  U_INT    0082H  2
  THPR . . . . . . . . . . . . . . . .  MEMBER   -----  U_INT    0084H  2
  TTPR . . . . . . . . . . . . . . . .  MEMBER   -----  U_INT    0086H  2
  TFP. . . . . . . . . . . . . . . . .  MEMBER   -----  U_CHAR   0088H  1
  Pad2 . . . . . . . . . . . . . . . .  MEMBER   -----  U_CHAR   0089H  1
  VSPP . . . . . . . . . . . . . . . .  MEMBER   -----  U_INT    008AH  2
  RcvStartAddr . . . . . . . . . . . .  MEMBER   -----  PTR      008CH  2
  RcvEndAddr . . . . . . . . . . . . .  MEMBER   -----  PTR      008EH  2
  XmtStartAddr . . . . . . . . . . . .  MEMBER   -----  PTR      0090H  2
  XmtEndAddr . . . . . . . . . . . . .  MEMBER   -----  PTR      0092H  2
  STOE_TxInform. . . . . . . . . . . .  MEMBER   -----  STRUCT   0094H  21
  STOE_RxInform. . . . . . . . . . . .  MEMBER   -----  STRUCT   00A9H  21
_MAC_INFORMATION . . . . . . . . . . .  * TAG *  -----  STRUCT   -----  5
  LinkSpeed. . . . . . . . . . . . . .  MEMBER   -----  U_CHAR   0000H  1
  FullDuplex . . . . . . . . . . . . .  MEMBER   -----  U_CHAR   0001H  1
  MediumLinkType . . . . . . . . . . .  MEMBER   -----  U_CHAR   0002H  1
  NetworkType. . . . . . . . . . . . .  MEMBER   -----  U_CHAR   0003H  1
  InterruptMask. . . . . . . . . . . .  MEMBER   -----  U_CHAR   0004H  1
MAC_INFO . . . . . . . . . . . . . . .  TYPEDEF  -----  STRUCT   -----  5
  LinkSpeed. . . . . . . . . . . . . .  MEMBER   -----  U_CHAR   0000H  1
  FullDuplex . . . . . . . . . . . . .  MEMBER   -----  U_CHAR   0001H  1
  MediumLinkType . . . . . . . . . . .  MEMBER   -----  U_CHAR   0002H  1
  NetworkType. . . . . . . . . . . . .  MEMBER   -----  U_CHAR   0003H  1
  InterruptMask. . . . . . . . . . . .  MEMBER   -----  U_CHAR   0004H  1
PNetStation. . . . . . . . . . . . . .  EXTERN   XDATA  PTR      -----  2
_ETH_SendArpRequest. . . . . . . . . .  PUBLIC   CODE   PROC     0000H  -----
C51 COMPILER V8.06   ADAPTER                                                               03/17/2026 10:18:46 PAGE 122 

NAME                                    CLASS   MSPACE  TYPE    OFFSET  SIZE
====                                    =====   ======  ====    ======  ====


  dstIp. . . . . . . . . . . . . . . .  AUTO     XDATA  U_LONG   0000H  4
  buf. . . . . . . . . . . . . . . . .  AUTO     XDATA  PTR      0004H  3
  point. . . . . . . . . . . . . . . .  AUTO     XDATA  PTR      0007H  3
MAC_GetMacAddr . . . . . . . . . . . .  EXTERN   CODE   PROC     -----  -----
ETH_SendDhcpArpRequest . . . . . . . .  PUBLIC   CODE   PROC     0000H  -----
  buf. . . . . . . . . . . . . . . . .  AUTO     XDATA  PTR      0000H  3
  point. . . . . . . . . . . . . . . .  AUTO     XDATA  PTR      0003H  3
eth_ArpSendTime. . . . . . . . . . . .  STATIC   XDATA  U_LONG   0007H  4
PACKET_INFORMATION . . . . . . . . . .  TYPEDEF  -----  STRUCT   -----  21
  PBuf . . . . . . . . . . . . . . . .  MEMBER   -----  PTR      0000H  2
  PIpHeader. . . . . . . . . . . . . .  MEMBER   -----  PTR      0002H  2
  PTUIHeader . . . . . . . . . . . . .  MEMBER   -----  PTR      0004H  2
  PData. . . . . . . . . . . . . . . .  MEMBER   -----  PTR      0006H  2
  TotalLen . . . . . . . . . . . . . .  MEMBER   -----  U_INT    0008H  2
  IpTotalLen . . . . . . . . . . . . .  MEMBER   -----  U_INT    000AH  2
  TUITotalLen. . . . . . . . . . . . .  MEMBER   -----  U_INT    000CH  2
  DataLen. . . . . . . . . . . . . . .  MEMBER   -----  U_INT    000EH  2
  Protocol . . . . . . . . . . . . . .  MEMBER   -----  U_CHAR   0010H  1
  IpHeaderLen. . . . . . . . . . . . .  MEMBER   -----  U_CHAR   0011H  1
  TcpHeaderLen . . . . . . . . . . . .  MEMBER   -----  U_CHAR   0012H  1
  SocketId . . . . . . . . . . . . . .  MEMBER   -----  U_CHAR   0013H  1
  Pages. . . . . . . . . . . . . . . .  MEMBER   -----  U_CHAR   0014H  1
uip_buf. . . . . . . . . . . . . . . .  EXTERN   XDATA  ARRAY    -----  -----
uip_len. . . . . . . . . . . . . . . .  EXTERN   IDATA  U_INT    -----  2
uip_arp_arpin. . . . . . . . . . . . .  EXTERN   CODE   PROC     -----  -----
LOCAL_STATION. . . . . . . . . . . . .  TYPEDEF  -----  STRUCT   -----  36
  PermStaAddr. . . . . . . . . . . . .  MEMBER   -----  ARRAY    0000H  6
  CurrStaAddr. . . . . . . . . . . . .  MEMBER   -----  ARRAY    0006H  6
  StationIP. . . . . . . . . . . . . .  MEMBER   -----  U_LONG   000CH  4
  SubnetMask . . . . . . . . . . . . .  MEMBER   -----  U_LONG   0010H  4
  Gateway. . . . . . . . . . . . . . .  MEMBER   -----  U_LONG   0014H  4
  DefaultIP. . . . . . . . . . . . . .  MEMBER   -----  U_LONG   0018H  4
  DefaultMask. . . . . . . . . . . . .  MEMBER   -----  U_LONG   001CH  4
  DefaultGateway . . . . . . . . . . .  MEMBER   -----  U_LONG   0020H  4
_STOE_FRAME_HEADER . . . . . . . . . .  * TAG *  -----  STRUCT   -----  7
  NPR. . . . . . . . . . . . . . . . .  MEMBER   -----  U_INT    0000H  2
  Length . . . . . . . . . . . . . . .  MEMBER   -----  U_INT    0002H  2
  Protocol . . . . . . . . . . . . . .  MEMBER   -----  U_CHAR   0004H  1
  DataOffset . . . . . . . . . . . . .  MEMBER   -----  U_CHAR   0005H  1
  Packet . . . . . . . . . . . . . . .  MEMBER   -----  U_CHAR   0006H  1
ETH_DoDhcp . . . . . . . . . . . . . .  PUBLIC   XDATA  U_CHAR   000BH  1
_TCPIP_Init. . . . . . . . . . . . . .  EXTERN   CODE   PROC     -----  -----
ETH_DhcpArpReply . . . . . . . . . . .  PUBLIC   XDATA  U_CHAR   000CH  1
ETH_RestartSendArpToGateway. . . . . .  PUBLIC   CODE   PROC     0000H  -----
_PHY_INFORMATION . . . . . . . . . . .  * TAG *  -----  STRUCT   -----  2
  PhyAddr. . . . . . . . . . . . . . .  MEMBER   -----  U_CHAR   0000H  1
  PhyType. . . . . . . . . . . . . . .  MEMBER   -----  U_CHAR   0001H  1


MODULE INFORMATION:   STATIC OVERLAYABLE
   CODE SIZE        =   6094    ----
   CONSTANT SIZE    =   ----    ----
   XDATA SIZE       =     95    ----
   PDATA SIZE       =   ----    ----
   DATA SIZE        =   ----    ----
   IDATA SIZE       =   ----    ----
   BIT SIZE         =   ----    ----
   EDATA SIZE       =   ----    ----
C51 COMPILER V8.06   ADAPTER                                                               03/17/2026 10:18:46 PAGE 123 

   HDATA SIZE       =   ----    ----
   XDATA CONST SIZE =   ----    ----
   FAR CONST SIZE   =   ----    ----
END OF MODULE INFORMATION.


C51 COMPILATION COMPLETE.  0 WARNING(S),  0 ERROR(S)
