C51 COMPILER V8.06   UIP_ARP                                                               03/17/2026 10:18:44 PAGE 1   


C51 COMPILER V8.06, COMPILATION OF MODULE UIP_ARP
OBJECT MODULE PLACED IN uip_arp.obj
COMPILER INVOKED BY: C:\Keil\C51\BIN\C51.EXE src\tcpip\uip_arp.c LARGE OMF2 ROM(D16M) OPTIMIZE(0,SPEED) BROWSE INTVECTOR
                    -(0X6020) INCDIR(.\src\cpu\;.\src\ethernet;.\src\swdma\;.\src\mstimer\;.\src\uart\;.\src\main\;.\src\tcpip\;.\src\hsur\;.
                    -\src\gs2e\;.\src\debug\;.\src\dhcp;.\src\dns\;.\src\adapter\;.\src\pppoe\;.\src\console;.\src\telnet;.\src\smtp;.\src\ht
                    -tp;.\src\web_page;.\src\si2c;.\src\eeprom;.\src\ping;.\src\fpga;.\src\menu;.\src\spi) DEFINE(RuntimeCodeAt24KH) VARBANKI
                    -NG DEBUG CODE LISTINCLUDE SYMBOLS PRINT(.\uip_arp.lst) OBJECT(uip_arp.obj)

line level    source

   1          /**
   2           * \addtogroup uip
   3           * @{
   4           */
   5          
   6          /**
   7           * \defgroup uiparp uIP Address Resolution Protocol
   8           * @{
   9           * 
  10           * The Address Resolution Protocol ARP is used for mapping between IP
  11           * addresses and link level addresses such as the Ethernet MAC
  12           * addresses. ARP uses broadcast queries to ask for the link level
  13           * address of a known IP address and the host which is configured with
  14           * the IP address for which the query was meant, will respond with its
  15           * link level address.
  16           *
  17           * \note This ARP implementation only supports Ethernet.
  18           */
  19           
  20          /**
  21           * \file
  22           * Implementation of the ARP Address Resolution Protocol.
  23           * \author Adam Dunkels <adam@dunkels.com>
  24           *
  25           */
  26          
  27          /*
  28           * Copyright (c) 2001-2003, Adam Dunkels.
  29           * All rights reserved. 
  30           *
  31           * Redistribution and use in source and binary forms, with or without 
  32           * modification, are permitted provided that the following conditions 
  33           * are met: 
  34           * 1. Redistributions of source code must retain the above copyright 
  35           *    notice, this list of conditions and the following disclaimer. 
  36           * 2. Redistributions in binary form must reproduce the above copyright 
  37           *    notice, this list of conditions and the following disclaimer in the 
  38           *    documentation and/or other materials provided with the distribution. 
  39           * 3. The name of the author may not be used to endorse or promote
  40           *    products derived from this software without specific prior
  41           *    written permission.  
  42           *
  43           * THIS SOFTWARE IS PROVIDED BY THE AUTHOR ``AS IS'' AND ANY EXPRESS
  44           * OR IMPLIED WARRANTIES, INCLUDING, BUT NOT LIMITED TO, THE IMPLIED
  45           * WARRANTIES OF MERCHANTABILITY AND FITNESS FOR A PARTICULAR PURPOSE
  46           * ARE DISCLAIMED.  IN NO EVENT SHALL THE AUTHOR BE LIABLE FOR ANY
  47           * DIRECT, INDIRECT, INCIDENTAL, SPECIAL, EXEMPLARY, OR CONSEQUENTIAL
  48           * DAMAGES (INCLUDING, BUT NOT LIMITED TO, PROCUREMENT OF SUBSTITUTE
  49           * GOODS OR SERVICES; LOSS OF USE, DATA, OR PROFITS; OR BUSINESS
  50           * INTERRUPTION) HOWEVER CAUSED AND ON ANY THEORY OF LIABILITY,
  51           * WHETHER IN CONTRACT, STRICT LIABILITY, OR TORT (INCLUDING
C51 COMPILER V8.06   UIP_ARP                                                               03/17/2026 10:18:44 PAGE 2   

  52           * NEGLIGENCE OR OTHERWISE) ARISING IN ANY WAY OUT OF THE USE OF THIS
  53           * SOFTWARE, EVEN IF ADVISED OF THE POSSIBILITY OF SUCH DAMAGE.  
  54           *
  55           * This file is part of the uIP TCP/IP stack.
  56           *
  57           * $Id: uip_arp.c,v$
  58           *
  59           */
  60          
  61          /*       ÉÍÍÍÍÍÍÍÍÍÍÍÍÍÍÍÍÍÍÍÍÍÍÍÍÍÍÍÍÍÍÍÍÍÍÍÍÍÍÍÍÍÍÍÍÍÍÍÍÍÍÍÍÍÍÍÍÍÍ»
  62                   ?   TITLE:  Keil C51 v7.00 port of Adam Dunkels' uIP v0.9 
  63                   ?REVISION:  VER 0.0                                       
  64                   ?REV.DATE:  30-01-05                                      
  65                   ? ARCHIVE:                                                
  66                   ?  AUTHOR:  Murray R. Van Luyn, 2005.                     
  67                   ČÍÍÍÍÍÍÍÍÍÍÍÍÍÍÍÍÍÍÍÍÍÍÍÍÍÍÍÍÍÍÍÍÍÍÍÍÍÍÍÍÍÍÍÍÍÍÍÍÍÍÍÍÍÍÍÍÍÍĽ        */
  68          
  69          #include "uip_arp.h"
   1      =1  //
   2      =1  // \addtogroup uip
   3      =1  // @{
   4      =1  //
   5      =1  
   6      =1  //
   7      =1  // \addtogroup uiparp 
   8      =1  // @{
   9      =1  //
  10      =1   
  11      =1  //
  12      =1  // \file
  13      =1  // Macros and definitions for the ARP module.
  14      =1  // \author Adam Dunkels <adam@dunkels.com>
  15      =1  //
  16      =1    
  17      =1  
  18      =1  //
  19      =1  // Copyright (c) 2001-2003, Adam Dunkels.
  20      =1  // All rights reserved. 
  21      =1  //
  22      =1  // Redistribution and use in source and binary forms, with or without 
  23      =1  // modification, are permitted provided that the following conditions 
  24      =1  // are met: 
  25      =1  // 1. Redistributions of source code must retain the above copyright 
  26      =1  //    notice, this list of conditions and the following disclaimer. 
  27      =1  // 2. Redistributions in binary form must reproduce the above copyright 
  28      =1  //    notice, this list of conditions and the following disclaimer in the 
  29      =1  //    documentation and/or other materials provided with the distribution. 
  30      =1  // 3. The name of the author may not be used to endorse or promote
  31      =1  //    products derived from this software without specific prior
  32      =1  //    written permission.  
  33      =1  //
  34      =1  // THIS SOFTWARE IS PROVIDED BY THE AUTHOR ``AS IS'' AND ANY EXPRESS
  35      =1  // OR IMPLIED WARRANTIES, INCLUDING, BUT NOT LIMITED TO, THE IMPLIED
  36      =1  // WARRANTIES OF MERCHANTABILITY AND FITNESS FOR A PARTICULAR PURPOSE
  37      =1  // ARE DISCLAIMED.  IN NO EVENT SHALL THE AUTHOR BE LIABLE FOR ANY
  38      =1  // DIRECT, INDIRECT, INCIDENTAL, SPECIAL, EXEMPLARY, OR CONSEQUENTIAL
  39      =1  // DAMAGES (INCLUDING, BUT NOT LIMITED TO, PROCUREMENT OF SUBSTITUTE
  40      =1  // GOODS OR SERVICES; LOSS OF USE, DATA, OR PROFITS; OR BUSINESS
  41      =1  // INTERRUPTION) HOWEVER CAUSED AND ON ANY THEORY OF LIABILITY,
  42      =1  // WHETHER IN CONTRACT, STRICT LIABILITY, OR TORT (INCLUDING
  43      =1  // NEGLIGENCE OR OTHERWISE) ARISING IN ANY WAY OUT OF THE USE OF THIS
  44      =1  // SOFTWARE, EVEN IF ADVISED OF THE POSSIBILITY OF SUCH DAMAGE.  
C51 COMPILER V8.06   UIP_ARP                                                               03/17/2026 10:18:44 PAGE 3   

  45      =1  //
  46      =1  // This file is part of the uIP TCP/IP stack.
  47      =1  //
  48      =1  // $Id: uip_arp.h,v$
  49      =1  //
  50      =1  //
  51      =1  
  52      =1  //       ÉÍÍÍÍÍÍÍÍÍÍÍÍÍÍÍÍÍÍÍÍÍÍÍÍÍÍÍÍÍÍÍÍÍÍÍÍÍÍÍÍÍÍÍÍÍÍÍÍÍÍÍÍÍÍÍÍÍÍ»
  53      =1  //       ?   TITLE:  Keil C51 v7.00 port of Adam Dunkels' uIP v0.9 
  54      =1  //       ?REVISION:  VER 0.0                                       
  55      =1  //       ?REV.DATE:  30-01-05                                      
  56      =1  //       ? ARCHIVE:                                                
  57      =1  //       ?  AUTHOR:  Murray R. Van Luyn, 2005.                     
  58      =1  //       ČÍÍÍÍÍÍÍÍÍÍÍÍÍÍÍÍÍÍÍÍÍÍÍÍÍÍÍÍÍÍÍÍÍÍÍÍÍÍÍÍÍÍÍÍÍÍÍÍÍÍÍÍÍÍÍÍÍÍĽ
  59      =1  
  60      =1  #ifndef __UIP_ARP_H__
  61      =1  #define __UIP_ARP_H__
  62      =1  
  63      =1  #include "uip.h"
   1      =2  //
   2      =2  // \addtogroup uip
   3      =2  // @{
   4      =2  //
   5      =2  
   6      =2  //
   7      =2  // \file
   8      =2  // Header file for the uIP TCP/IP stack.
   9      =2  // \author Adam Dunkels <adam@dunkels.com>
  10      =2  //
  11      =2  // The uIP TCP/IP stack header file contains definitions for a number
  12      =2  // of C macros that are used by uIP programs as well as internal uIP
  13      =2  // structures, TCP/IP header structures and function declarations.
  14      =2  //
  15      =2  //
  16      =2  // Copyright (c) 2001-2003, Adam Dunkels.
  17      =2  // All rights reserved. 
  18      =2  //
  19      =2  // Redistribution and use in source and binary forms, with or without 
  20      =2  // modification, are permitted provided that the following conditions 
  21      =2  // are met: 
  22      =2  // 1. Redistributions of source code must retain the above copyright 
  23      =2  //    notice, this list of conditions and the following disclaimer. 
  24      =2  // 2. Redistributions in binary form must reproduce the above copyright 
  25      =2  //    notice, this list of conditions and the following disclaimer in the 
  26      =2  //    documentation and/or other materials provided with the distribution. 
  27      =2  // 3. The name of the author may not be used to endorse or promote
  28      =2  //    products derived from this software without specific prior
  29      =2  //    written permission.  
  30      =2  //
  31      =2  // THIS SOFTWARE IS PROVIDED BY THE AUTHOR ``AS IS'' AND ANY EXPRESS
  32      =2  // OR IMPLIED WARRANTIES, INCLUDING, BUT NOT LIMITED TO, THE IMPLIED
  33      =2  // WARRANTIES OF MERCHANTABILITY AND FITNESS FOR A PARTICULAR PURPOSE
  34      =2  // ARE DISCLAIMED.  IN NO EVENT SHALL THE AUTHOR BE LIABLE FOR ANY
  35      =2  // DIRECT, INDIRECT, INCIDENTAL, SPECIAL, EXEMPLARY, OR CONSEQUENTIAL
  36      =2  // DAMAGES (INCLUDING, BUT NOT LIMITED TO, PROCUREMENT OF SUBSTITUTE
  37      =2  // GOODS OR SERVICES; LOSS OF USE, DATA, OR PROFITS; OR BUSINESS
  38      =2  // INTERRUPTION) HOWEVER CAUSED AND ON ANY THEORY OF LIABILITY,
  39      =2  // WHETHER IN CONTRACT, STRICT LIABILITY, OR TORT (INCLUDING
  40      =2  // NEGLIGENCE OR OTHERWISE) ARISING IN ANY WAY OUT OF THE USE OF THIS
  41      =2  // SOFTWARE, EVEN IF ADVISED OF THE POSSIBILITY OF SUCH DAMAGE.  
  42      =2  //
  43      =2  // This file is part of the uIP TCP/IP stack.
C51 COMPILER V8.06   UIP_ARP                                                               03/17/2026 10:18:44 PAGE 4   

  44      =2  //
  45      =2  // $Id: uip.h,v$
  46      =2  //
  47      =2  //       ÉÍÍÍÍÍÍÍÍÍÍÍÍÍÍÍÍÍÍÍÍÍÍÍÍÍÍÍÍÍÍÍÍÍÍÍÍÍÍÍÍÍÍÍÍÍÍÍÍÍÍÍÍÍÍÍÍÍÍ»
  48      =2  //       ?   TITLE:  Keil C51 v7.00 port of Adam Dunkels' uIP v0.9 
  49      =2  //       ?REVISION:  VER 0.0                                       
  50      =2  //       ?REV.DATE:  14-01-05                                      
  51      =2  //       ? ARCHIVE:                                                
  52      =2  //       ?  AUTHOR:  Murray R. Van Luyn, 2005.                     
  53      =2  //       ČÍÍÍÍÍÍÍÍÍÍÍÍÍÍÍÍÍÍÍÍÍÍÍÍÍÍÍÍÍÍÍÍÍÍÍÍÍÍÍÍÍÍÍÍÍÍÍÍÍÍÍÍÍÍÍÍÍÍĽ
  54      =2  
  55      =2  #ifndef __UIP_H__
  56      =2  #define __UIP_H__
  57      =2  
  58      =2  #include "uipopt.h"
   1      =3  /**
   2      =3   * \defgroup uipopt Configuration options for uIP
   3      =3   * @{
   4      =3   *
   5      =3   * uIP is configured using the per-project configuration file
   6      =3   * "uipopt.h". This file contains all compile-time options for uIP and
   7      =3   * should be tweaked to match each specific project. The uIP
   8      =3   * distribution contains a documented example "uipopt.h" that can be
   9      =3   * copied and modified for each project.
  10      =3   */
  11      =3  
  12      =3  /**
  13      =3   * \file
  14      =3   * Configuration options for uIP.
  15      =3   * \author Adam Dunkels <adam@dunkels.com>
  16      =3   *
  17      =3   * This file is used for tweaking various configuration options for
  18      =3   * uIP. You should make a copy of this file into one of your project's
  19      =3   * directories instead of editing this example "uipopt.h" file that
  20      =3   * comes with the uIP distribution.
  21      =3   */
  22      =3  
  23      =3  /*
  24      =3   * Copyright (c) 2001-2003, Adam Dunkels.
  25      =3   * All rights reserved. 
  26      =3   *
  27      =3   * Redistribution and use in source and binary forms, with or without 
  28      =3   * modification, are permitted provided that the following conditions 
  29      =3   * are met: 
  30      =3   * 1. Redistributions of source code must retain the above copyright 
  31      =3   *    notice, this list of conditions and the following disclaimer. 
  32      =3   * 2. Redistributions in binary form must reproduce the above copyright 
  33      =3   *    notice, this list of conditions and the following disclaimer in the 
  34      =3   *    documentation and/or other materials provided with the distribution. 
  35      =3   * 3. The name of the author may not be used to endorse or promote
  36      =3   *    products derived from this software without specific prior
  37      =3   *    written permission.  
  38      =3   *
  39      =3   * THIS SOFTWARE IS PROVIDED BY THE AUTHOR ``AS IS'' AND ANY EXPRESS
  40      =3   * OR IMPLIED WARRANTIES, INCLUDING, BUT NOT LIMITED TO, THE IMPLIED
  41      =3   * WARRANTIES OF MERCHANTABILITY AND FITNESS FOR A PARTICULAR PURPOSE
  42      =3   * ARE DISCLAIMED.  IN NO EVENT SHALL THE AUTHOR BE LIABLE FOR ANY
  43      =3   * DIRECT, INDIRECT, INCIDENTAL, SPECIAL, EXEMPLARY, OR CONSEQUENTIAL
  44      =3   * DAMAGES (INCLUDING, BUT NOT LIMITED TO, PROCUREMENT OF SUBSTITUTE
  45      =3   * GOODS OR SERVICES; LOSS OF USE, DATA, OR PROFITS; OR BUSINESS
  46      =3   * INTERRUPTION) HOWEVER CAUSED AND ON ANY THEORY OF LIABILITY,
  47      =3   * WHETHER IN CONTRACT, STRICT LIABILITY, OR TORT (INCLUDING
C51 COMPILER V8.06   UIP_ARP                                                               03/17/2026 10:18:44 PAGE 5   

  48      =3   * NEGLIGENCE OR OTHERWISE) ARISING IN ANY WAY OUT OF THE USE OF THIS
  49      =3   * SOFTWARE, EVEN IF ADVISED OF THE POSSIBILITY OF SUCH DAMAGE.  
  50      =3   *
  51      =3   * This file is part of the uIP TCP/IP stack.
  52      =3   *
  53      =3   * $Id: uipopt.h,v$
  54      =3   *
  55      =3   */
  56      =3  
  57      =3  /*       ÉÍÍÍÍÍÍÍÍÍÍÍÍÍÍÍÍÍÍÍÍÍÍÍÍÍÍÍÍÍÍÍÍÍÍÍÍÍÍÍÍÍÍÍÍÍÍÍÍÍÍÍÍÍÍÍÍÍÍ»
  58      =3           ?   TITLE:  Keil C51 v7.00 port of Adam Dunkels' uIP v0.9 
  59      =3           ?REVISION:  VER 0.0                                       
  60      =3           ?REV.DATE:  14-01-05                                      
  61      =3           ? ARCHIVE:                                                
  62      =3           ?  AUTHOR:  Murray R. Van Luyn, 2005.                     
  63      =3           ČÍÍÍÍÍÍÍÍÍÍÍÍÍÍÍÍÍÍÍÍÍÍÍÍÍÍÍÍÍÍÍÍÍÍÍÍÍÍÍÍÍÍÍÍÍÍÍÍÍÍÍÍÍÍÍÍÍÍĽ        */
  64      =3  
  65      =3  #ifndef __UIPOPT_H__
  66      =3  #define __UIPOPT_H__
  67      =3  
  68      =3  #include "types.h"
   1      =4  //----------------------------------------------------------------------------------------
   2      =4  //     Copyright (c) 2005       Simtek, Incorporated      All rights reserved.
   3      =4  //
   4      =4  //     This is unpublished proprietary source code of Simtek, Inc
   5      =4  //
   6      =4  //     The copyright notice above does not evidence any actual or intended
   7      =4  //     publication of such source code.
   8      =4  //----------------------------------------------------------------------------------------
   9      =4  // Module Name : types.h
  10      =4  // Purpose     : Definition of type.
  11      =4  // Author      : Robin Lee
  12      =4  // Date        : 2005-12-28
  13      =4  // Notes       : None.
  14      =4  // $Log: types.h,v $
  15      =4  //----------------------------------------------------------------------------------------
  16      =4  // Revision 1.2  2006/05/18 05:02:30  Louis
  17      =4  // no message
  18      =4  //----------------------------------------------------------------------------------------
  19      =4  // Revision 1.1  2006/04/07 11:36:17  robin6633
  20      =4  // no message
  21      =4  //----------------------------------------------------------------------------------------
  22      =4  
  23      =4  #ifndef TYPES_H
  24      =4  #define TYPES_H
  25      =4  
  26      =4  typedef unsigned short int          bool;                                                 // boolean
  27      =4  typedef unsigned char               byte;                                                 //  8-bit unsign
             -ed
  28      =4  typedef unsigned short int          uint;                                                 // 16-bit unsign
             -ed
  29      =4  typedef short int                   sint;                                                 // 16-bit signed
  30      =4  typedef unsigned long               ulong;                                                // 32-bit unsign
             -ed
  31      =4  typedef unsigned short int          word;                                                 // 16-bit unsign
             -ed
  32      =4  
  33      =4  #ifndef NULL
  34      =4    #define NULL ((void *) 0L)
  35      =4  #endif
  36      =4  
  37      =4  #define TRUE                  1
C51 COMPILER V8.06   UIP_ARP                                                               03/17/2026 10:18:44 PAGE 6   

  38      =4  #define FALSE                 0
  39      =4  #define ON                    1
  40      =4  #define OFF                   0
  41      =4  #define Client                1
  42      =4  #define Server                0
  43      =4  
  44      =4  // Bit Definitions for Bitwise Operation //
  45      =4  #define BIT0            0x01
  46      =4  #define BIT1            0x02
  47      =4  #define BIT2            0x04
  48      =4  #define BIT3            0x08
  49      =4  #define BIT4            0x10
  50      =4  #define BIT5            0x20
  51      =4  #define BIT6            0x40
  52      =4  #define BIT7            0x80
  53      =4  #define BIT8            0x0100
  54      =4  #define BIT9            0x0200
  55      =4  #define BIT10           0x0400
  56      =4  #define BIT11           0x0800
  57      =4  #define BIT12           0x1000
  58      =4  #define BIT13           0x2000
  59      =4  #define BIT14           0x4000
  60      =4  #define BIT15           0x8000
  61      =4  #define BIT16           0x00010000
  62      =4  #define BIT17           0x00020000
  63      =4  #define BIT18           0x00040000
  64      =4  #define BIT19           0x00080000
  65      =4  #define BIT20           0x00100000
  66      =4  #define BIT21           0x00200000
  67      =4  #define BIT22           0x00400000
  68      =4  #define BIT23           0x00800000
  69      =4  #define BIT24           0x01000000
  70      =4  #define BIT25           0x02000000
  71      =4  #define BIT26           0x04000000
  72      =4  #define BIT27           0x08000000
  73      =4  #define BIT28           0x10000000
  74      =4  #define BIT29           0x20000000
  75      =4  #define BIT30           0x40000000
  76      =4  #define BIT31           0x80000000
  77      =4  
  78      =4  #define LOW_BYTE(dat)   (byte) (dat & 0x00FF)
  79      =4  #define HIGH_BYTE(dat)  (byte)((dat & 0xFF00) >> 8)
  80      =4  
  81      =4  #define U32BYTE0(dat)   (byte) (dat  & 0x000000FF)
  82      =4  #define U32BYTE1(dat)   (byte)((dat  & 0x0000FF00) >> 8)
  83      =4  #define U32BYTE2(dat)   (byte)((dat  & 0x00FF0000) >> 16)
  84      =4  #define U32BYTE3(dat)   (byte)((dat  & 0xFF000000) >> 24)
  85      =4   
  86      =4  // Keil compiler user define //
  87      =4  #define     KEIL_CPL
  88      =4  
  89      =4  #ifdef KEIL_CPL
  90      =4   #define XDATA    xdata
  91      =4   #define IDATA    idata
  92      =4   #define BDATA    bdata
  93      =4   #define CODE     code
  94      =4   #define FAR      far
  95      =4  #else
           =4  #define XDATA
           =4  #define IDATA
           =4  #define BDATA
           =4  #define CODE
C51 COMPILER V8.06   UIP_ARP                                                               03/17/2026 10:18:44 PAGE 7   

           =4  #define FAR
           =4 #endif
 102      =4  
 103      =4  // Serial interface command direction //
 104      =4  #define     SI_WR                   BIT0
 105      =4  #define     SI_RD                   BIT1
 106      =4  
 107      =4  #define     FLASH_WR_ENB            (PCON |= PWE_)
 108      =4  #define     FLASH_WR_DISB           (PCON &= ~PWE_)
 109      =4  
 110      =4  #endif  // end of TYPES_H //
  69      =3  #include "tcpip.h"
   1      =4  //=============================================================================
   2      =4  //      Copyright (c) 2006      ASIX Electronic Corporation      All rights reserved.
   3      =4  // 
   4      =4  //      This is unpublished proprietary source code of ASIX Electronic Corporation
   5      =4  // 
   6      =4  //      The copyright notice above does not evidence any actual or intended
   7      =4  //      publication of such source code.
   8      =4  //=============================================================================
   9      =4  //  Module Name:tcpip.h
  10      =4  //  Purpose:
  11      =4  //  Author:
  12      =4  //  Date:
  13      =4  //  Notes:
  14      =4  //  $Log: tcpip.h,v $
  15      =4  //=============================================================================
  16      =4  
  17      =4  #ifndef __TCPIP_H__
  18      =4  #define __TCPIP_H__
  19      =4  
  20      =4  // INCLUDE FILE DECLARATIONS //
  21      =4  #include "types.h"
   1      =5  //----------------------------------------------------------------------------------------
   2      =5  //     Copyright (c) 2005       Simtek, Incorporated      All rights reserved.
   3      =5  //
   4      =5  //     This is unpublished proprietary source code of Simtek, Inc
   5      =5  //
   6      =5  //     The copyright notice above does not evidence any actual or intended
   7      =5  //     publication of such source code.
   8      =5  //----------------------------------------------------------------------------------------
   9      =5  // Module Name : types.h
  10      =5  // Purpose     : Definition of type.
  11      =5  // Author      : Robin Lee
  12      =5  // Date        : 2005-12-28
  13      =5  // Notes       : None.
  14      =5  // $Log: types.h,v $
  15      =5  //----------------------------------------------------------------------------------------
  16      =5  // Revision 1.2  2006/05/18 05:02:30  Louis
  17      =5  // no message
  18      =5  //----------------------------------------------------------------------------------------
  19      =5  // Revision 1.1  2006/04/07 11:36:17  robin6633
  20      =5  // no message
  21      =5  //----------------------------------------------------------------------------------------
  22      =5  
  23      =5  #ifndef TYPES_H
           =5 #define TYPES_H
           =5 
           =5 typedef unsigned short int          bool;                                                 // boolean
           =5 typedef unsigned char               byte;                                                 //  8-bit unsign
             -ed
           =5 typedef unsigned short int          uint;                                                 // 16-bit unsign
C51 COMPILER V8.06   UIP_ARP                                                               03/17/2026 10:18:44 PAGE 8   

             -ed
           =5 typedef short int                   sint;                                                 // 16-bit signed
           =5 typedef unsigned long               ulong;                                                // 32-bit unsign
             -ed
           =5 typedef unsigned short int          word;                                                 // 16-bit unsign
             -ed
           =5 
           =5 #ifndef NULL
           =5   #define NULL ((void *) 0L)
           =5 #endif
           =5 
           =5 #define TRUE                  1
           =5 #define FALSE                 0
           =5 #define ON                    1
           =5 #define OFF                   0
           =5 #define Client                1
           =5 #define Server                0
           =5 
           =5 // Bit Definitions for Bitwise Operation //
           =5 #define BIT0            0x01
           =5 #define BIT1            0x02
           =5 #define BIT2            0x04
           =5 #define BIT3            0x08
           =5 #define BIT4            0x10
           =5 #define BIT5            0x20
           =5 #define BIT6            0x40
           =5 #define BIT7            0x80
           =5 #define BIT8            0x0100
           =5 #define BIT9            0x0200
           =5 #define BIT10           0x0400
           =5 #define BIT11           0x0800
           =5 #define BIT12           0x1000
           =5 #define BIT13           0x2000
           =5 #define BIT14           0x4000
           =5 #define BIT15           0x8000
           =5 #define BIT16           0x00010000
           =5 #define BIT17           0x00020000
           =5 #define BIT18           0x00040000
           =5 #define BIT19           0x00080000
           =5 #define BIT20           0x00100000
           =5 #define BIT21           0x00200000
           =5 #define BIT22           0x00400000
           =5 #define BIT23           0x00800000
           =5 #define BIT24           0x01000000
           =5 #define BIT25           0x02000000
           =5 #define BIT26           0x04000000
           =5 #define BIT27           0x08000000
           =5 #define BIT28           0x10000000
           =5 #define BIT29           0x20000000
           =5 #define BIT30           0x40000000
           =5 #define BIT31           0x80000000
           =5 
           =5 #define LOW_BYTE(dat)   (byte) (dat & 0x00FF)
           =5 #define HIGH_BYTE(dat)  (byte)((dat & 0xFF00) >> 8)
           =5 
           =5 #define U32BYTE0(dat)   (byte) (dat  & 0x000000FF)
           =5 #define U32BYTE1(dat)   (byte)((dat  & 0x0000FF00) >> 8)
           =5 #define U32BYTE2(dat)   (byte)((dat  & 0x00FF0000) >> 16)
           =5 #define U32BYTE3(dat)   (byte)((dat  & 0xFF000000) >> 24)
           =5  
           =5 // Keil compiler user define //
           =5 #define     KEIL_CPL
C51 COMPILER V8.06   UIP_ARP                                                               03/17/2026 10:18:44 PAGE 9   

           =5 
           =5 #ifdef KEIL_CPL
           =5  #define XDATA    xdata
           =5  #define IDATA    idata
           =5  #define BDATA    bdata
           =5  #define CODE     code
           =5  #define FAR      far
           =5 #else
           =5  #define XDATA
           =5  #define IDATA
           =5  #define BDATA
           =5  #define CODE
           =5  #define FAR
           =5 #endif
           =5 
           =5 // Serial interface command direction //
           =5 #define     SI_WR                   BIT0
           =5 #define     SI_RD                   BIT1
           =5 
           =5 #define     FLASH_WR_ENB            (PCON |= PWE_)
           =5 #define     FLASH_WR_DISB           (PCON &= ~PWE_)
           =5 
           =5 #endif  // end of TYPES_H //
  22      =4  
  23      =4  // NAMING CONSTANT DECLARATIONS //
  24      =4  #define TCPIP_MAX_APP_CONN                      16
  25      =4  #define TCPIP_MAX_TCP_LISTEN            12
  26      =4  #define TCPIP_MAX_UDP_LISTEN            12
  27      =4  #define TCPIP_MAX_TCP_CONN                      16
  28      =4  #define TCPIP_MAX_UDP_CONN                      16
  29      =4  
  30      =4  #define TCPIP_NO_NEW_CONN                       0xff
  31      =4  
  32      =4  #define TCPIP_CONNECT_CANCEL            0
  33      =4  #define TCPIP_CONNECT_WAIT                      1
  34      =4  #define TCPIP_CONNECT_ACTIVE            2
  35      =4  #define TCPIP_CONNECT_XMIT_COMPLETE     3
  36      =4  #define TCPIP_CONNECT_BUSY                      0xf1
  37      =4  
  38      =4  #define TCPIP_SEND_NOT_FINAL            0
  39      =4  #define TCPIP_SEND_FINAL                        1
  40      =4  #define TCPIP_SEND_NOT_PUSH                     2
  41      =4  
  42      =4  #define TCPIP_KEEPALIVE_ON                      1
  43      =4  #define TCPIP_KEEPALIVE_OFF                     0
  44      =4  
  45      =4  #define TCPIP_DONT_FRAGMENT                     1
  46      =4  #define TCPIP_FRAGMENT                          0
  47      =4  
  48      =4  #define TCPIP_PROTOCOL_ICMP                     1
  49      =4  #define TCPIP_PROTOCOL_TCP                      6
  50      =4  #define TCPIP_PROTOCOL_UDP                      17
  51      =4  
  52      =4  #define TCPIP_NON_TRANSPARENT_MODE      0
  53      =4  #define TCPIP_TRANSPARENT_MODE          1
  54      =4  
  55      =4  #define TCPIP_TIME_TO_LIVE                      255     // TTL item of ip layer //
  56      =4  
  57      =4  // GLOBAL VARIABLES //
  58      =4  
  59      =4  // for uip //
  60      =4  extern byte xdata uip_buf[];
C51 COMPILER V8.06   UIP_ARP                                                               03/17/2026 10:18:44 PAGE 10  

  61      =4  extern volatile uint idata uip_len;
  62      =4  extern volatile byte *uip_appdata;
  63      =4  extern byte xdata uip_getgatewaymacaddrflag;
  64      =4  
  65      =4  #define TCPIP_GetRcvBuffer()            (uip_buf)
  66      =4  #define TCPIP_GetXmitBuffer()           (uip_buf)
  67      =4  #define TCPIP_SetRcvLength(len)         (uip_len = len)
  68      =4  #define TCPIP_SetXmitLength(len)        (uip_len = len)
  69      =4  #define TCPIP_GetXmitLength()           (uip_len)
  70      =4  #define TCPIP_GetPayloadBuffer()        (uip_appdata)
  71      =4  #define TCPIP_GetGwMacAddrFlag()        (uip_getgatewaymacaddrflag)
  72      =4  #define TCPIP_SetGwMacAddrFlag(a)       (uip_getgatewaymacaddrflag = a)
  73      =4  
  74      =4  // EXPORTED SUBPROGRAM SPECIFICATIONS //
  75      =4  void TCPIP_Init(byte);
  76      =4  byte TCPIP_Bind(byte (* )(ulong XDATA*, uint, byte), void (* )(byte, byte), void (* )(byte XDATA*, uint, b
             -yte));
  77      =4  void TCPIP_Unbind(byte);
  78      =4  
  79      =4  // for tcp //
  80      =4  byte TCPIP_TcpListen(uint, byte);
  81      =4  void TCPIP_TcpUnlisten(uint);
  82      =4  byte TCPIP_TcpNew(byte, byte, ulong, uint, uint);
  83      =4  void TCPIP_TcpConnect(byte);
  84      =4  void TCPIP_TcpKeepAlive(byte, byte);
  85      =4  void TCPIP_TcpClose(byte);
  86      =4  uint TCPIP_QueryTcpLocalPort(byte);
  87      =4  void TCPIP_TcpSend(byte, byte*, uint, byte);
  88      =4  
  89      =4  // for udp //
  90      =4  byte TCPIP_UdpListen(uint, byte);
  91      =4  void TCPIP_UdpUnlisten(uint);
  92      =4  byte TCPIP_UdpNew(byte, byte, ulong, uint, uint);
  93      =4  void TCPIP_UdpClose(byte);
  94      =4  uint TCPIP_QueryUdpLocalPort(byte);
  95      =4  void TCPIP_UdpSend(byte, byte*,byte, byte*, uint);
  96      =4  
  97      =4  // for other purpose //
  98      =4  void TCPIP_AssignLowlayerXmitFunc(void (* )(uint));
  99      =4  void TCPIP_AssignPingRespFunc(void (* )(void));
 100      =4  void TCPIP_PeriodicCheck(void);
 101      =4  void TCPIP_SetPppoeMode(byte);
 102      =4  ulong TCPIP_GetIPAddr(void);
 103      =4  ulong TCPIP_GetSubnetMask(void);
 104      =4  ulong TCPIP_GetGateway(void);
 105      =4  void TCPIP_SetIPAddr(ulong);
 106      =4  void TCPIP_SetSubnetMask(ulong);
 107      =4  void TCPIP_SetGateway(ulong);
 108      =4  void TCPIP_SetMacAddr(byte*);
 109      =4  void TCPIP_Receive(void);
 110      =4  void TCPIP_DontFragment(byte);
 111      =4  
 112      =4  // for uip //
 113      =4  uint htons(uint);
 114      =4  
 115      =4  // for uip_arp //
 116      =4  void uip_arp_ipin(void);
 117      =4  void uip_arp_arpin(void);
 118      =4  void uip_arp_out(void);
 119      =4  
 120      =4  // for debug //
 121      =4  //void TCPIP_Debug(void);
C51 COMPILER V8.06   UIP_ARP                                                               03/17/2026 10:18:44 PAGE 11  

 122      =4  
 123      =4  #endif // End of __TCPIP_H__ //
 124      =4  
 125      =4  
 126      =4  // End of tcpip.h //
  70      =3  
  71      =3  /*------------------------------------------------------------------------------*/
  72      =3  /**
  73      =3   * \defgroup uipopttypedef uIP type definitions
  74      =3   * @{
  75      =3   */
  76      =3  
  77      =3  
  78      =3  /**
  79      =3   * The statistics data type.
  80      =3   *
  81      =3   * This datatype determines how high the statistics counters are able
  82      =3   * to count.
  83      =3   */
  84      =3  typedef unsigned short uip_stats_t;
  85      =3  
  86      =3  /** @} */
  87      =3  
  88      =3  /*------------------------------------------------------------------------------*/
  89      =3  
  90      =3  /**
  91      =3   * \defgroup uipoptstaticconf Static configuration options
  92      =3   * @{
  93      =3   *
  94      =3   * These configuration options can be used for setting the IP address
  95      =3   * settings statically, but only if UIP_FIXEDADDR is set to 1. The
  96      =3   * configuration options for a specific node includes IP address,
  97      =3   * netmask and default router as well as the Ethernet address. The
  98      =3   * netmask, default router and Ethernet address are appliciable only
  99      =3   * if uIP should be run over Ethernet.
 100      =3   *
 101      =3   * All of these should be changed to suit your project.
 102      =3  */
 103      =3  
 104      =3  /**
 105      =3   * Determines if uIP should use a fixed IP address or not.
 106      =3   *
 107      =3   * If uIP should use a fixed IP address, the settings are set in the
 108      =3   * uipopt.h file. If not, the macros uip_sethostaddr(),
 109      =3   * uip_setdraddr() and uip_setnetmask() should be used instead.
 110      =3   *
 111      =3   * \hideinitializer
 112      =3   */
 113      =3  
 114      =3  #define UIP_FIXEDADDR    0
 115      =3  
 116      =3  /**
 117      =3   * Ping IP address asignment.
 118      =3   *
 119      =3   * uIP uses a "ping" packets for setting its own IP address if this
 120      =3   * option is set. If so, uIP will start with an empty IP address and
 121      =3   * the destination IP address of the first incoming "ping" (ICMP echo)
 122      =3   * packet will be used for setting the hosts IP address.
 123      =3   *
 124      =3   * \note This works only if UIP_FIXEDADDR is 0.
 125      =3   *
 126      =3   * \hideinitializer
C51 COMPILER V8.06   UIP_ARP                                                               03/17/2026 10:18:44 PAGE 12  

 127      =3   */
 128      =3  #define UIP_PINGADDRCONF 0
 129      =3  
 130      =3  #define UIP_IPADDR0     192 /**< The first octet of the IP address of
 131      =3                                 this uIP node, if UIP_FIXEDADDR is
 132      =3                                 1. \hideinitializer */
 133      =3  #define UIP_IPADDR1     168 /**< The second octet of the IP address of
 134      =3                                 this uIP node, if UIP_FIXEDADDR is
 135      =3                                 1. \hideinitializer */
 136      =3  #define UIP_IPADDR2     0   /**< The third octet of the IP address of
 137      =3                                 this uIP node, if UIP_FIXEDADDR is
 138      =3                                 1. \hideinitializer */
 139      =3  #define UIP_IPADDR3     3   /**< The fourth octet of the IP address of
 140      =3                                 this uIP node, if UIP_FIXEDADDR is
 141      =3                                 1. \hideinitializer */
 142      =3  
 143      =3  #define UIP_NETMASK0    255 /**< The first octet of the netmask of
 144      =3                                 this uIP node, if UIP_FIXEDADDR is
 145      =3                                 1. \hideinitializer */
 146      =3  #define UIP_NETMASK1    255 /**< The second octet of the netmask of
 147      =3                                 this uIP node, if UIP_FIXEDADDR is
 148      =3                                 1. \hideinitializer */
 149      =3  #define UIP_NETMASK2    255 /**< The third octet of the netmask of
 150      =3                                 this uIP node, if UIP_FIXEDADDR is
 151      =3                                 1. \hideinitializer */
 152      =3  #define UIP_NETMASK3    0   /**< The fourth octet of the netmask of
 153      =3                                 this uIP node, if UIP_FIXEDADDR is
 154      =3                                 1. \hideinitializer */
 155      =3  
 156      =3  #define UIP_DRIPADDR0   192 /**< The first octet of the IP address of
 157      =3                                 the default router, if UIP_FIXEDADDR is
 158      =3                                 1. \hideinitializer */
 159      =3  #define UIP_DRIPADDR1   168 /**< The second octet of the IP address of
 160      =3                                 the default router, if UIP_FIXEDADDR is
 161      =3                                 1. \hideinitializer */
 162      =3  #define UIP_DRIPADDR2   0   /**< The third octet of the IP address of
 163      =3                                 the default router, if UIP_FIXEDADDR is
 164      =3                                 1. \hideinitializer */
 165      =3  #define UIP_DRIPADDR3   1   /**< The fourth octet of the IP address of
 166      =3                                 the default router, if UIP_FIXEDADDR is
 167      =3                                 1. \hideinitializer */
 168      =3  
 169      =3  /**
 170      =3   * Specifies if the uIP ARP module should be compiled with a fixed
 171      =3   * Ethernet MAC address or not.
 172      =3   *
 173      =3   * If this configuration option is 0, the macro uip_setethaddr() can
 174      =3   * be used to specify the Ethernet address at run-time.
 175      =3   *
 176      =3   * \hideinitializer
 177      =3   */
 178      =3  #define UIP_FIXEDETHADDR 1
 179      =3  
 180      =3  #define UIP_ETHADDR0    0x00  /**< The first octet of the Ethernet
 181      =3                                   address if UIP_FIXEDETHADDR is
 182      =3                                   1. \hideinitializer */
 183      =3  #define UIP_ETHADDR1    0x12  /**< The second octet of the Ethernet
 184      =3                                   address if UIP_FIXEDETHADDR is
 185      =3                                   1. \hideinitializer */
 186      =3  #define UIP_ETHADDR2    0x34  /**< The third octet of the Ethernet
 187      =3                                   address if UIP_FIXEDETHADDR is
 188      =3                                   1. \hideinitializer */
C51 COMPILER V8.06   UIP_ARP                                                               03/17/2026 10:18:44 PAGE 13  

 189      =3  #define UIP_ETHADDR3    0x56  /**< The fourth octet of the Ethernet
 190      =3                                   address if UIP_FIXEDETHADDR is
 191      =3                                   1. \hideinitializer */
 192      =3  #define UIP_ETHADDR4    0x78  /**< The fifth octet of the Ethernet
 193      =3                                   address if UIP_FIXEDETHADDR is
 194      =3                                   1. \hideinitializer */
 195      =3  #define UIP_ETHADDR5    0x9A  /**< The sixth octet of the Ethernet
 196      =3                                   address if UIP_FIXEDETHADDR is
 197      =3                                   1. \hideinitializer */
 198      =3  
 199      =3  /** @} */
 200      =3  /*------------------------------------------------------------------------------*/
 201      =3  /**
 202      =3   * \defgroup uipoptip IP configuration options
 203      =3   * @{
 204      =3   *
 205      =3   */
 206      =3  /**
 207      =3   * The IP TTL (time to live) of IP packets sent by uIP.
 208      =3   *
 209      =3   * This should normally not be changed.
 210      =3   */
 211      =3  #define UIP_TTL         (TCPIP_TIME_TO_LIVE)
 212      =3  
 213      =3  /**
 214      =3   * Turn on support for IP packet reassembly.
 215      =3   *
 216      =3   * uIP supports reassembly of fragmented IP packets. This features
 217      =3   * requires an additonal amount of RAM to hold the reassembly buffer
 218      =3   * and the reassembly code size is approximately 700 bytes.  The
 219      =3   * reassembly buffer is of the same size as the uip_buf buffer
 220      =3   * (configured by UIP_BUFSIZE).
 221      =3   *
 222      =3   * \note IP packet reassembly is not heavily tested.
 223      =3   *
 224      =3   * \hideinitializer
 225      =3   */
 226      =3  #define UIP_REASSEMBLY 0
 227      =3  
 228      =3  /**
 229      =3   * The maximum time an IP fragment should wait in the reassembly
 230      =3   * buffer before it is dropped.
 231      =3   *
 232      =3   */
 233      =3  #define UIP_REASS_MAXAGE 40
 234      =3  
 235      =3  /** @} */
 236      =3  
 237      =3  #define CHECKSUM_OFFLOAD                1       /* hardware process all checksum calculate */
 238      =3  
 239      =3  /*------------------------------------------------------------------------------*/
 240      =3  /**
 241      =3   * \defgroup uipoptudp UDP configuration options
 242      =3   * @{
 243      =3   *
 244      =3   * \note The UDP support in uIP is still not entirely complete; there
 245      =3   * is no support for sending or receiving broadcast or multicast
 246      =3   * packets, but it works well enough to support a number of vital
 247      =3   * applications such as DNS queries, though
 248      =3   */
 249      =3  
 250      =3  /**
C51 COMPILER V8.06   UIP_ARP                                                               03/17/2026 10:18:44 PAGE 14  

 251      =3   * Toggles wether UDP support should be compiled in or not.
 252      =3   *
 253      =3   * \hideinitializer
 254      =3   */
 255      =3  #define UIP_UDP           1
 256      =3  
 257      =3  /**
 258      =3   * Toggles if UDP checksums should be used or not.
 259      =3   *
 260      =3   * \note Support for UDP checksums is currently not included in uIP,
 261      =3   * so this option has no function.
 262      =3   *
 263      =3   * \hideinitializer
 264      =3   */
 265      =3  #define UIP_UDP_CHECKSUMS 0
 266      =3  
 267      =3  /**
 268      =3   * The maximum amount of concurrent UDP connections.
 269      =3   *
 270      =3   * \hideinitializer
 271      =3   */
 272      =3  #define UIP_UDP_CONNS           (TCPIP_MAX_UDP_CONN)
 273      =3  
 274      =3  /**
 275      =3   * The name of the function that should be called when UDP datagrams arrive.
 276      =3   *
 277      =3   * \hideinitializer
 278      =3   */
 279      =3  #define UIP_UDP_APPCALL()  TCPIP_CallUdpApp();
 280      =3  
 281      =3  /** @} */
 282      =3  /*------------------------------------------------------------------------------*/
 283      =3  /**
 284      =3   * \defgroup uipopttcp TCP configuration options
 285      =3   * @{
 286      =3   */
 287      =3  
 288      =3  /**
 289      =3   * Determines if support for opening connections from uIP should be
 290      =3   * compiled in.
 291      =3   *
 292      =3   * If the applications that are running on top of uIP for this project
 293      =3   * do not need to open outgoing TCP connections, this configration
 294      =3   * option can be turned off to reduce the code size of uIP.
 295      =3   *
 296      =3   * \hideinitializer
 297      =3   */
 298      =3  #define UIP_ACTIVE_OPEN 1
 299      =3  
 300      =3  /**
 301      =3   * The maximum number of simultaneously open TCP connections.
 302      =3   *
 303      =3   * Since the TCP connections are statically allocated, turning this
 304      =3   * configuration knob down results in less RAM used. Each TCP
 305      =3   * connection requires approximatly 30 bytes of memory.
 306      =3   *
 307      =3   * \hideinitializer
 308      =3   */
 309      =3  #define UIP_CONNS                       (TCPIP_MAX_TCP_CONN)
 310      =3  
 311      =3  /**
 312      =3   * The maximum number of simultaneously listening TCP ports.
C51 COMPILER V8.06   UIP_ARP                                                               03/17/2026 10:18:44 PAGE 15  

 313      =3   *
 314      =3   * Each listening TCP port requires 2 bytes of memory.
 315      =3   *
 316      =3   * \hideinitializer
 317      =3   */
 318      =3  #define UIP_LISTENPORTS         (TCPIP_MAX_TCP_LISTEN)
 319      =3  
 320      =3  #define UIP_UDP_LISTENPORTS     (TCPIP_MAX_UDP_LISTEN)
 321      =3  
 322      =3  /**
 323      =3   * The size of the advertised receiver's window.
 324      =3   *
 325      =3   * Should be set low (i.e., to the size of the uip_buf buffer) is the
 326      =3   * application is slow to process incoming data, or high (32768 bytes)
 327      =3   * if the application processes data quickly.
 328      =3   *
 329      =3   * \hideinitializer
 330      =3   */
 331      =3  #define UIP_RECEIVE_WINDOW   (1460 * 4)
 332      =3  
 333      =3  /**
 334      =3   * Determines if support for TCP urgent data notification should be
 335      =3   * compiled in.
 336      =3   *
 337      =3   * Urgent data (out-of-band data) is a rarely used TCP feature that
 338      =3   * very seldom would be required.
 339      =3   *
 340      =3   * \hideinitializer
 341      =3   */
 342      =3  #define UIP_URGDATA      1
 343      =3  
 344      =3  /**
 345      =3   * The initial retransmission timeout counted in timer pulses.
 346      =3   *
 347      =3   * This should not be changed.
 348      =3   */
 349      =3  #define UIP_RTO         3
 350      =3  
 351      =3  /**
 352      =3   * The maximum number of times a segment should be retransmitted
 353      =3   * before the connection should be aborted.
 354      =3   *
 355      =3   * This should not be changed.
 356      =3   */
 357      =3  #define UIP_MAXRTX      8
 358      =3  
 359      =3  /**
 360      =3   * The maximum number of times a SYN segment should be retransmitted
 361      =3   * before a connection request should be deemed to have been
 362      =3   * unsuccessful.
 363      =3   *
 364      =3   * This should not need to be changed.
 365      =3   */
 366      =3  #define UIP_MAXSYNRTX      3
 367      =3  
 368      =3  /**
 369      =3   * The TCP maximum segment size.
 370      =3   *
 371      =3   * This is should not be to set to more than UIP_BUFSIZE - UIP_LLH_LEN - 40.
 372      =3   */
 373      =3  #define UIP_TCP_MSS     (UIP_BUFSIZE - 54)
 374      =3  
C51 COMPILER V8.06   UIP_ARP                                                               03/17/2026 10:18:44 PAGE 16  

 375      =3  
 376      =3  /**
 377      =3   * How long a connection should stay in the TIME_WAIT state.
 378      =3   *
 379      =3   * This configiration option has no real implication, and it should be
 380      =3   * left untouched.
 381      =3   */ 
 382      =3  #define UIP_TIME_WAIT_TIMEOUT 120
 383      =3  
 384      =3  
 385      =3  /** @} */
 386      =3  /*------------------------------------------------------------------------------*/
 387      =3  /**
 388      =3   * \defgroup uipoptarp ARP configuration options
 389      =3   * @{
 390      =3   */
 391      =3  
 392      =3  /**
 393      =3   * The size of the ARP table.
 394      =3   *
 395      =3   * This option should be set to a larger value if this uIP node will
 396      =3   * have many connections from the local network.
 397      =3   *
 398      =3   * \hideinitializer
 399      =3   */
 400      =3  #define UIP_ARPTAB_SIZE 8
 401      =3  
 402      =3  /**
 403      =3   * The maxium age of ARP table entries measured in 10ths of seconds.
 404      =3   *
 405      =3   * An UIP_ARP_MAXAGE of 120 corresponds to 20 minutes (BSD
 406      =3   * default).
 407      =3   */
 408      =3  #define UIP_ARP_MAXAGE 120
 409      =3  
 410      =3  /** @} */
 411      =3  
 412      =3  /*------------------------------------------------------------------------------*/
 413      =3  
 414      =3  /**
 415      =3   * \defgroup uipoptgeneral General configuration options
 416      =3   * @{
 417      =3   */
 418      =3  
 419      =3  /**
 420      =3   * The size of the uIP packet buffer.
 421      =3   *
 422      =3   * The uIP packet buffer should not be smaller than 60 bytes, and does
 423      =3   * not need to be larger than 1500 bytes. Lower size results in lower
 424      =3   * TCP throughput, larger size results in higher TCP throughput.
 425      =3   *
 426      =3   * \hideinitializer
 427      =3   */
 428      =3  #define UIP_BUFSIZE     1514
 429      =3  
 430      =3  
 431      =3  /**
 432      =3   * Determines if statistics support should be compiled in.
 433      =3   *
 434      =3   * The statistics is useful for debugging and to show the user.
 435      =3   *
 436      =3   * \hideinitializer
C51 COMPILER V8.06   UIP_ARP                                                               03/17/2026 10:18:44 PAGE 17  

 437      =3   */
 438      =3  #define UIP_STATISTICS  0
 439      =3  
 440      =3  /**
 441      =3   * Determines if logging of certain events should be compiled in.
 442      =3   *
 443      =3   * This is useful mostly for debugging. The function uip_log()
 444      =3   * must be implemented to suit the architecture of the project, if
 445      =3   * logging is turned on.
 446      =3   *
 447      =3   * \hideinitializer
 448      =3   */
 449      =3  #define UIP_LOGGING     0
 450      =3  
 451      =3  /**
 452      =3   * Print out a uIP log message.
 453      =3   *
 454      =3   * This function must be implemented by the module that uses uIP, and
 455      =3   * is called by uIP whenever a log message is generated.
 456      =3   */
 457      =3  void uip_log(char *msg);
 458      =3  
 459      =3  /**
 460      =3   * The link level header length.
 461      =3   *
 462      =3   * This is the offset into the uip_buf where the IP header can be
 463      =3   * found. For Ethernet, this should be set to 14. For SLIP, this
 464      =3   * should be set to 0.
 465      =3   *
 466      =3   * \hideinitializer
 467      =3   */
 468      =3  #define UIP_LLH_LEN     14
 469      =3  
 470      =3  /** @} */
 471      =3  /*------------------------------------------------------------------------------*/
 472      =3  /**
 473      =3   * \defgroup uipoptcpu CPU architecture configuration
 474      =3   * @{
 475      =3   *
 476      =3   * The CPU architecture configuration is where the endianess of the
 477      =3   * CPU on which uIP is to be run is specified. Most CPUs today are
 478      =3   * little endian, and the most notable exception are the Motorolas
 479      =3   * which are big endian. The BYTE_ORDER macro should be changed to
 480      =3   * reflect the CPU architecture on which uIP is to be run.
 481      =3   */
 482      =3  #ifndef LITTLE_ENDIAN
 483      =3  #define LITTLE_ENDIAN  3412
 484      =3  #endif /* LITTLE_ENDIAN */
 485      =3  #ifndef BIG_ENDIAN
 486      =3  #define BIG_ENDIAN     1234
 487      =3  #endif /* BIGE_ENDIAN */
 488      =3  
 489      =3  /**
 490      =3   * The byte order of the CPU architecture on which uIP is to be run.
 491      =3   *
 492      =3   * This option can be either BIG_ENDIAN (Motorola byte order) or
 493      =3   * LITTLE_ENDIAN (Intel byte order).
 494      =3   *
 495      =3   * \hideinitializer
 496      =3   */
 497      =3  #ifndef BYTE_ORDER
 498      =3  #define BYTE_ORDER     BIG_ENDIAN     // Keil C
C51 COMPILER V8.06   UIP_ARP                                                               03/17/2026 10:18:44 PAGE 18  

 499      =3  #endif /* BYTE_ORDER */
 500      =3  
 501      =3  /** @} */
 502      =3  /*------------------------------------------------------------------------------*/
 503      =3  
 504      =3  /**
 505      =3   * \defgroup uipoptapp Appication specific configurations
 506      =3   * @{
 507      =3   *
 508      =3   * An uIP application is implemented using a single application
 509      =3   * function that is called by uIP whenever a TCP/IP event occurs. The
 510      =3   * name of this function must be registered with uIP at compile time
 511      =3   * using the UIP_APPCALL definition.
 512      =3   *
 513      =3   * uIP applications can store the application state within the
 514      =3   * uip_conn structure by specifying the size of the application
 515      =3   * structure with the UIP_APPSTATE_SIZE macro.
 516      =3   *
 517      =3   * The file containing the definitions must be included in the
 518      =3   * uipopt.h file.
 519      =3   *
 520      =3   * The following example illustrates how this can look.
 521      =3   \code
 522      =3  
 523      =3  void httpd_appcall(void);
 524      =3  #define UIP_APPCALL     httpd_appcall
 525      =3  
 526      =3  struct httpd_state {
 527      =3    uint state; 
 528      =3    uint count;
 529      =3    char *dataptr;
 530      =3    char *script;
 531      =3  };
 532      =3  #define UIP_APPSTATE_SIZE (sizeof(struct httpd_state))
 533      =3   \endcode
 534      =3   */
 535      =3  
 536      =3  /**
 537      =3   * \var #define UIP_APPCALL
 538      =3   *
 539      =3   * The name of the application function that uIP should call in
 540      =3   * response to TCP/IP events.
 541      =3   *
 542      =3   */
 543      =3  
 544      =3  /**
 545      =3   * \var #define UIP_APPSTATE_SIZE
 546      =3   *
 547      =3   * The size of the application state that is to be stored in the
 548      =3   * uip_conn structure.
 549      =3   */
 550      =3  /** @} */
 551      =3  
 552      =3  /* Include the header file for the application program that should be
 553      =3     used. If you don't use the example web server, you should change
 554      =3     this. */
 555      =3  
 556      =3  
 557      =3  #endif /* __UIPOPT_H__ */
  59      =2  
  60      =2  //-----------------------------------------------------------------------------------//
  61      =2  // First, the functions that should be called from the
C51 COMPILER V8.06   UIP_ARP                                                               03/17/2026 10:18:44 PAGE 19  

  62      =2  // system. Initialization, the periodic timer and incoming packets are
  63      =2  // handled by the following three functions.
  64      =2  //
  65      =2  
  66      =2  //
  67      =2  // \defgroup uipconffunc uIP configuration functions
  68      =2  // @{
  69      =2  //
  70      =2  // The uIP configuration functions are used for setting run-time
  71      =2  // parameters in uIP such as IP addresses. 
  72      =2  //
  73      =2  
  74      =2  //
  75      =2  // Set the IP address of this host.
  76      =2  //
  77      =2  // The IP address is represented as a 4-byte array where the first
  78      =2  // octet of the IP address is put in the first member of the 4-byte
  79      =2  // array.
  80      =2  //
  81      =2  // \param addr A pointer to a 4-byte representation of the IP address.
  82      =2  //
  83      =2  // \hideinitializer
  84      =2  //
  85      =2  #define uip_sethostaddr(addr) do { uip_hostaddr[0] = addr[0]; \
  86      =2                                uip_hostaddr[1] = addr[1]; } while(0)
  87      =2  
  88      =2  //
  89      =2  // Get the IP address of this host.
  90      =2  //
  91      =2  // The IP address is represented as a 4-byte array where the first
  92      =2  // octet of the IP address is put in the first member of the 4-byte
  93      =2  // array.
  94      =2  //
  95      =2  // \param addr A pointer to a 4-byte array that will be filled in with
  96      =2  // the currently configured IP address.
  97      =2  //
  98      =2  // \hideinitializer
  99      =2  //
 100      =2  #define uip_gethostaddr(addr) do { addr[0] = uip_hostaddr[0]; \
 101      =2                                addr[1] = uip_hostaddr[1]; } while(0)
 102      =2  
 103      =2  //
 104      =2  // \defgroup uipinit uIP initialization functions
 105      =2  // @{
 106      =2  //
 107      =2  // The uIP initialization functions are used for booting uIP.
 108      =2  //
 109      =2  
 110      =2  //
 111      =2  // uIP initialization function.
 112      =2  //
 113      =2  // This function should be called at boot up to initilize the uIP
 114      =2  // TCP/IP stack.
 115      =2  //
 116      =2  void uip_init(void);
 117      =2  
 118      =2  // @} //
 119      =2  
 120      =2  // \defgroup uipdevfunc uIP device driver functions
 121      =2  // @{
 122      =2  //
 123      =2  // These functions are used by a network device driver for interacting
C51 COMPILER V8.06   UIP_ARP                                                               03/17/2026 10:18:44 PAGE 20  

 124      =2  // with uIP.
 125      =2  //
 126      =2  // Process an incoming packet.
 127      =2  //
 128      =2  // This function should be called when the device driver has received
 129      =2  // a packet from the network. The packet from the device driver must
 130      =2  // be present in the uip_buf buffer, and the length of the packet
 131      =2  // should be placed in the uip_len variable.
 132      =2  //
 133      =2  // When the function returns, there may be an outbound packet placed
 134      =2  // in the uip_buf packet buffer. If so, the uip_len variable is set to
 135      =2  // the length of the packet. If no packet is to be sent out, the
 136      =2  // uip_len variable is set to 0.
 137      =2  //
 138      =2  // The usual way of calling the function is presented by the source
 139      =2  // code below.
 140      =2  // \code
 141      =2  //  uip_len = devicedriver_poll();
 142      =2  //  if(uip_len > 0) {
 143      =2  //    uip_input();
 144      =2  //    if(uip_len > 0) {
 145      =2  //      devicedriver_send();
 146      =2  //    }
 147      =2  //  }
 148      =2  // \endcode
 149      =2  //
 150      =2  // \note If you are writing a uIP device driver that needs ARP
 151      =2  // (Address Resolution Protocol), e.g., when running uIP over
 152      =2  // Ethernet, you will need to call the uIP ARP code before calling
 153      =2  // this function:
 154      =2  // \code
 155      =2  //  #define BUF ((struct uip_eth_hdr *)&uip_buf[0])
 156      =2  //  uip_len = ethernet_devicedrver_poll();
 157      =2  //  if(uip_len > 0) {
 158      =2  //    if(BUF->type == HTONS(UIP_ETHTYPE_IP)) {
 159      =2  //      uip_arp_ipin();
 160      =2  //      uip_input();
 161      =2  //      if(uip_len > 0) {
 162      =2  //        uip_arp_out();
 163      =2  //      ethernet_devicedriver_send();
 164      =2  //      }
 165      =2  //    } else if(BUF->type == HTONS(UIP_ETHTYPE_ARP)) {
 166      =2  //      uip_arp_arpin();
 167      =2  //      if(uip_len > 0) {
 168      =2  //      ethernet_devicedriver_send();
 169      =2  //      }
 170      =2  //    }
 171      =2  // \endcode
 172      =2  //
 173      =2  // \hideinitializer
 174      =2  //
 175      =2  //#define uip_input()        uip_process(UIP_DATA)
 176      =2  
 177      =2  //
 178      =2  // Periodic processing for a connection identified by its number.
 179      =2  // 
 180      =2  // This function does the necessary periodic processing (timers,
 181      =2  // polling) for a uIP TCP conneciton, and should be called when the
 182      =2  // periodic uIP timer goes off. It should be called for every
 183      =2  // connection, regardless of whether they are open of closed.
 184      =2  //
 185      =2  // When the function returns, it may have an outbound packet waiting
C51 COMPILER V8.06   UIP_ARP                                                               03/17/2026 10:18:44 PAGE 21  

 186      =2  // for service in the uIP packet buffer, and if so the uip_len
 187      =2  // variable is set to a value larger than zero. The device driver
 188      =2  // should be called to send out the packet.
 189      =2  //
 190      =2  // The ususal way of calling the function is through a for() loop like
 191      =2  // this:
 192      =2  // \code
 193      =2  //  for(i = 0; i < UIP_CONNS; ++i) {
 194      =2  //    uip_periodic(i);
 195      =2  //    if(uip_len > 0) {
 196      =2  //      devicedriver_send();
 197      =2  //    }
 198      =2  //  }
 199      =2  // \endcode
 200      =2  //
 201      =2  // \note If you are writing a uIP device driver that needs ARP
 202      =2  // (Address Resolution Protocol), e.g., when running uIP over
 203      =2  // Ethernet, you will need to call the uip_arp_out() function before
 204      =2  // calling the device driver:
 205      =2  // \code
 206      =2  //  for(i = 0; i < UIP_CONNS; ++i) {
 207      =2  //    uip_periodic(i);
 208      =2  //    if(uip_len > 0) {
 209      =2  //      uip_arp_out();
 210      =2  //      ethernet_devicedriver_send();
 211      =2  //    }
 212      =2  //  }
 213      =2  // \endcode 
 214      =2  //
 215      =2  // \param conn The number of the connection which is to be periodically polled.
 216      =2  //
 217      =2  // \hideinitializer
 218      =2  //
 219      =2  #define uip_periodic(conn) do { uip_conn = &uip_conns[conn]; \
 220      =2                                  uip_process(UIP_TIMER); } while (0)
 221      =2  
 222      =2  //
 223      =2  // Periodic processing for a connection identified by a pointer to its structure.
 224      =2  //
 225      =2  // Same as uip_periodic() but takes a pointer to the actual uip_conn
 226      =2  // struct instead of an integer as its argument. This function can be
 227      =2  // used to force periodic processing of a specific connection.
 228      =2  //
 229      =2  // \param conn A pointer to the uip_conn struct for the connection to
 230      =2  // be processed.
 231      =2  //
 232      =2  // \hideinitializer
 233      =2  //
 234      =2  #define uip_periodic_conn(conn) do { uip_conn = conn; \
 235      =2                                       uip_process(UIP_TIMER); } while (0)
 236      =2  
 237      =2  #if UIP_UDP
 238      =2  //
 239      =2  // Periodic processing for a UDP connection identified by its number.
 240      =2  //
 241      =2  // This function is essentially the same as uip_prerioic(), but for
 242      =2  // UDP connections. It is called in a similar fashion as the
 243      =2  // uip_periodic() function:
 244      =2  // \code
 245      =2  //  for(i = 0; i < UIP_UDP_CONNS; i++) {
 246      =2  //    uip_udp_periodic(i);
 247      =2  //    if(uip_len > 0) {
C51 COMPILER V8.06   UIP_ARP                                                               03/17/2026 10:18:44 PAGE 22  

 248      =2  //      devicedriver_send();
 249      =2  //    }
 250      =2  //  }   
 251      =2  // \endcode
 252      =2  //
 253      =2  // \note As for the uip_periodic() function, special care has to be
 254      =2  // taken when using uIP together with ARP and Ethernet:
 255      =2  // \code
 256      =2  //  for(i = 0; i < UIP_UDP_CONNS; i++) {
 257      =2  //    uip_udp_periodic(i);
 258      =2  //    if(uip_len > 0) {
 259      =2  //      uip_arp_out();
 260      =2  //      ethernet_devicedriver_send();
 261      =2  //    }
 262      =2  //  }   
 263      =2  // \endcode
 264      =2  //
 265      =2  // \param conn The number of the UDP connection to be processed.
 266      =2  //
 267      =2  // \hideinitializer
 268      =2  //
 269      =2  #define uip_udp_periodic(conn) do { uip_udp_conn = &uip_udp_conns[conn]; \
 270      =2                                  uip_process(UIP_UDP_TIMER); } while (0)
 271      =2  
 272      =2  //
 273      =2  // Periodic processing for a UDP connection identified by a pointer to
 274      =2  // its structure.
 275      =2  //
 276      =2  // Same as uip_udp_periodic() but takes a pointer to the actual
 277      =2  // uip_conn struct instead of an integer as its argument. This
 278      =2  // function can be used to force periodic processing of a specific
 279      =2  // connection.
 280      =2  //
 281      =2  // \param conn A pointer to the uip_udp_conn struct for the connection
 282      =2  // to be processed.
 283      =2  //
 284      =2  // \hideinitializer
 285      =2  //
 286      =2  #define uip_udp_periodic_conn(conn) do { uip_udp_conn = conn; \
 287      =2                                           uip_process(UIP_UDP_TIMER); } while (0)
 288      =2  
 289      =2  void uip_udp_listen(uint port);
 290      =2  void uip_udp_unlisten(uint port);
 291      =2  
 292      =2  #endif // UIP_UDP //
 293      =2  
 294      =2  // The uIP packet buffer.
 295      =2  //
 296      =2  // The uip_buf array is used to hold incoming and outgoing
 297      =2  // packets. The device driver should place incoming data into this
 298      =2  // buffer. When sending data, the device driver should read the link
 299      =2  // level headers and the TCP/IP headers from this buffer. The size of
 300      =2  // the link level headers is configured by the UIP_LLH_LEN define.
 301      =2  //
 302      =2  // \note The application data need not be placed in this buffer, so
 303      =2  // the device driver must read it from the place pointed to by the
 304      =2  // uip_appdata pointer as illustrated by the following example:
 305      =2  // \code
 306      =2  // void
 307      =2  // devicedriver_send(void)
 308      =2  // {
 309      =2  //    hwsend(&uip_buf[0], UIP_LLH_LEN);
C51 COMPILER V8.06   UIP_ARP                                                               03/17/2026 10:18:44 PAGE 23  

 310      =2  //    hwsend(&uip_buf[UIP_LLH_LEN], 40);
 311      =2  //    hwsend(uip_appdata, uip_len - 40 - UIP_LLH_LEN);
 312      =2  // }
 313      =2  // \endcode
 314      =2  //
 315      =2  //extern byte xdata uip_buf[UIP_BUFSIZE+2];
 316      =2  
 317      =2  // @} //
 318      =2  void uip_listen(uint port);
 319      =2  
 320      =2  //-----------------------------------------------------------------------------------//
 321      =2  // Functions that are used by the uIP application program. Opening and
 322      =2  // closing connections, sending and receiving data, etc. is all
 323      =2  // handled by the functions below.
 324      =2  //
 325      =2  //
 326      =2  // \defgroup uipappfunc uIP application functions
 327      =2  // @{
 328      =2  //
 329      =2  // Functions used by an application running of top of uIP.
 330      =2  //
 331      =2  
 332      =2  // Start listening to the specified port.
 333      =2  //
 334      =2  // \note Since this function expects the port number in network byte
 335      =2  // order, a conversion using HTONS() or htons() is necessary.
 336      =2  //
 337      =2  // \code
 338      =2  // uip_listen(HTONS(80)); 
 339      =2  // \endcode
 340      =2  //
 341      =2  // \param port A 16-bit port number in network byte order.
 342      =2  //
 343      =2  void uip_listen(uint port);
 344      =2  
 345      =2  // Stop listening to the specified port.
 346      =2  //
 347      =2  // \note Since this function expects the port number in network byte
 348      =2  // order, a conversion using HTONS() or htons() is necessary.
 349      =2  //
 350      =2  // \code
 351      =2  // uip_unlisten(HTONS(80)); 
 352      =2  // \endcode
 353      =2  //
 354      =2  // \param port A 16-bit port number in network byte order.
 355      =2  //
 356      =2  
 357      =2  struct uip_conn *uip_connect(uint *ripaddr, uint port);
 358      =2  
 359      =2  // Connect to a remote host using TCP.
 360      =2  //
 361      =2  // This function is used to start a new connection to the specified
 362      =2  // port on the specied host. It allocates a new connection identifier,
 363      =2  // sets the connection to the SYN_SENT state and sets the
 364      =2  // retransmission timer to 0. This will cause a TCP SYN segment to be
 365      =2  // sent out the next time this connection is periodically processed,
 366      =2  // which usually is done within 0.5 seconds after the call to
 367      =2  // uip_connect().
 368      =2  //
 369      =2  // \note This function is avaliable only if support for active open
 370      =2  // has been configured by defining UIP_ACTIVE_OPEN to 1 in uipopt.h.
 371      =2  //
C51 COMPILER V8.06   UIP_ARP                                                               03/17/2026 10:18:44 PAGE 24  

 372      =2  // \note Since this function requires the port number to be in network
 373      =2  // byte order, a convertion using HTONS() or htons() is necessary.
 374      =2  //
 375      =2  // \code
 376      =2  // uint ipaddr[2];
 377      =2  
 378      =2  // uip_ipaddr(ipaddr, 192,168,1,2);
 379      =2  // uip_connect(ipaddr, HTONS(80)); 
 380      =2  // \endcode
 381      =2  // 
 382      =2  // \param ripaddr A pointer to a 4-byte array representing the IP
 383      =2  // address of the remote hot.
 384      =2  //
 385      =2  // \param port A 16-bit port number in network byte order.
 386      =2  //
 387      =2  // \return A pointer to the uIP connection identifier for the new connection,
 388      =2  // or NULL if no connection could be allocated.   
 389      =2  // 
 390      =2  //
 391      =2  struct uip_conn *uip_connect(uint *ripaddr, uint port);
 392      =2  
 393      =2  //
 394      =2  // \internal
 395      =2  //
 396      =2  // Check if a connection has outstanding (i.e., unacknowledged) data.
 397      =2  //
 398      =2  // \param conn A pointer to the uip_conn structure for the connection.
 399      =2  //
 400      =2  // \hideinitializer
 401      =2  //
 402      =2  #define uip_outstanding(conn) ((conn)->len)
 403      =2  
 404      =2  //
 405      =2  // Send data on the current connection.
 406      =2  //
 407      =2  // This function is used to send out a single segment of TCP
 408      =2  // data. Only applications that have been invoked by uIP for event
 409      =2  // processing can send data. 
 410      =2  //
 411      =2  // The amount of data that actually is sent out after a call to this
 412      =2  // funcion is determined by the maximum amount of data TCP allows. uIP
 413      =2  // will automatically crop the data so that only the appropriate
 414      =2  // amount of data is sent. The function uip_mss() can be used to query
 415      =2  // uIP for the amount of data that actually will be sent.
 416      =2  // 
 417      =2  // \note This function does not guarantee that the sent data will
 418      =2  // arrive at the destination. If the data is lost in the network, the
 419      =2  // application will be invoked with the uip_rexmit() event being
 420      =2  // set. The application will then have to resend the data using this
 421      =2  // function.
 422      =2  // 
 423      =2  // \param data A pointer to the data which is to be sent.
 424      =2  //
 425      =2  // \param len The maximum amount of data bytes to be sent.
 426      =2  //
 427      =2  // \hideinitializer
 428      =2  //
 429      =2  #define uip_send(data, len) do { uip_sappdata = (data); uip_slen = (len);} while(0)   
 430      =2  
 431      =2  //
 432      =2  // The length of any incoming data that is currently avaliable (if avaliable)
 433      =2  // in the uip_appdata buffer.
C51 COMPILER V8.06   UIP_ARP                                                               03/17/2026 10:18:44 PAGE 25  

 434      =2  //
 435      =2  // The test function uip_data() must first be used to check if there
 436      =2  // is any data available at all.
 437      =2  //
 438      =2  // \hideinitializer
 439      =2  //
 440      =2  #define uip_datalen()       uip_len
 441      =2  
 442      =2  //
 443      =2  // The length of any out-of-band data (urgent data) that has arrived
 444      =2  // on the connection.
 445      =2  //
 446      =2  // \note The configuration parameter UIP_URGDATA must be set for this
 447      =2  // function to be enabled.
 448      =2  //
 449      =2  // \hideinitializer
 450      =2  //
 451      =2  #define uip_urgdatalen()    uip_urglen
 452      =2  
 453      =2  //
 454      =2  // Close the current connection.
 455      =2  //
 456      =2  // This function will close the current connection in a nice way.
 457      =2  //
 458      =2  // \hideinitializer
 459      =2  //
 460      =2  #define uip_close()         (uip_flags = UIP_CLOSE)
 461      =2  
 462      =2  //
 463      =2  // Abort the current connection.
 464      =2  //
 465      =2  // This function will abort (reset) the current connection, and is
 466      =2  // usually used when an error has occured that prevents using the
 467      =2  // uip_close() function.
 468      =2  //
 469      =2  // \hideinitializer
 470      =2  //
 471      =2  #define uip_abort()         (uip_flags = UIP_ABORT)
 472      =2  
 473      =2  //
 474      =2  // Tell the sending host to stop sending data.
 475      =2  //
 476      =2  // This function will close our receiver's window so that we stop
 477      =2  // receiving data for the current connection.
 478      =2  //
 479      =2  // \hideinitializer
 480      =2  //
 481      =2  #define uip_stop()          (uip_conn->tcpstateflags |= UIP_STOPPED)
 482      =2  
 483      =2  //
 484      =2  // Find out if the current connection has been previously stopped with
 485      =2  // uip_stop().
 486      =2  //
 487      =2  // \hideinitializer
 488      =2  //
 489      =2  #define uip_stopped(conn)   ((conn)->tcpstateflags & UIP_STOPPED)
 490      =2  
 491      =2  /**
 492      =2   * Restart the current connection, if is has previously been stopped
 493      =2   * with uip_stop().
 494      =2   *
 495      =2   * This function will open the receiver's window again so that we
C51 COMPILER V8.06   UIP_ARP                                                               03/17/2026 10:18:44 PAGE 26  

 496      =2   * start receiving data for the current connection.
 497      =2   *
 498      =2   * \hideinitializer
 499      =2   */
 500      =2  #define uip_restart()         do { uip_flags |= UIP_NEWDATA; \
 501      =2                                     uip_conn->tcpstateflags &= ~UIP_STOPPED; \
 502      =2                                } while(0)
 503      =2  
 504      =2  // uIP tests that can be made to determine in what state the current
 505      =2  // connection is, and what the application function should do.
 506      =2  
 507      =2  //
 508      =2  // Is new incoming data available?
 509      =2  //
 510      =2  // Will reduce to non-zero if there is new data for the application
 511      =2  // present at the uip_appdata pointer. The size of the data is
 512      =2  // avaliable through the uip_len variable.
 513      =2  //
 514      =2  // \hideinitializer
 515      =2  //
 516      =2  #define uip_newdata()   (uip_flags & UIP_NEWDATA)
 517      =2  
 518      =2  //
 519      =2  // Has previously sent data been acknowledged?
 520      =2  //
 521      =2  // Will reduce to non-zero if the previously sent data has been
 522      =2  // acknowledged by the remote host. This means that the application
 523      =2  // can send new data. 
 524      =2  //
 525      =2  // \hideinitializer
 526      =2  //
 527      =2  #define uip_acked()   (uip_flags & UIP_ACKDATA)
 528      =2  
 529      =2  //
 530      =2  // Has the connection just been connected?  
 531      =2  //
 532      =2  // Reduces to non-zero if the current connection has been connected to
 533      =2  // a remote host. This will happen both if the connection has been
 534      =2  // actively opened (with uip_connect()) or passively opened (with
 535      =2  // uip_listen()).
 536      =2  //
 537      =2  // \hideinitializer
 538      =2  //
 539      =2  #define uip_connected() (uip_flags & UIP_CONNECTED)
 540      =2  
 541      =2  //
 542      =2  // Has the connection been closed by the other end?
 543      =2  //
 544      =2  // Is non-zero if the connection has been closed by the remote
 545      =2  // host. The application may then do the necessary clean-ups.
 546      =2  //
 547      =2  // \hideinitializer
 548      =2  //
 549      =2  #define uip_closed()    (uip_flags & UIP_CLOSE)
 550      =2  
 551      =2  //
 552      =2  // Has the connection been aborted by the other end?
 553      =2  //
 554      =2  // Non-zero if the current connection has been aborted (reset) by the
 555      =2  // remote host.
 556      =2  //
 557      =2  // \hideinitializer
C51 COMPILER V8.06   UIP_ARP                                                               03/17/2026 10:18:44 PAGE 27  

 558      =2  //
 559      =2  #define uip_aborted()    (uip_flags & UIP_ABORT)
 560      =2  
 561      =2  //
 562      =2  // Has the connection timed out?
 563      =2  //
 564      =2  // Non-zero if the current connection has been aborted due to too many
 565      =2  // retransmissions.
 566      =2  //
 567      =2  // \hideinitializer
 568      =2  //
 569      =2  #define uip_timedout()    (uip_flags & UIP_TIMEDOUT)
 570      =2  
 571      =2  //
 572      =2  // Do we need to retransmit previously data?
 573      =2  //
 574      =2  // Reduces to non-zero if the previously sent data has been lost in
 575      =2  // the network, and the application should retransmit it. The
 576      =2  // application should send the exact same data as it did the last
 577      =2  // time, using the uip_send() function.
 578      =2  //
 579      =2  // \hideinitializer
 580      =2  //
 581      =2  #define uip_rexmit()     (uip_flags & UIP_REXMIT)
 582      =2  
 583      =2  //
 584      =2  // Is the connection being polled by uIP?
 585      =2  //
 586      =2  // Is non-zero if the reason the application is invoked is that the
 587      =2  // current connection has been idle for a while and should be
 588      =2  // polled.
 589      =2  //
 590      =2  // The polling event can be used for sending data without having to
 591      =2  // wait for the remote host to send data.
 592      =2  //
 593      =2  // \hideinitializer
 594      =2  // 
 595      =2  //#define uip_poll()       (uip_flags & UIP_POLL)
 596      =2  #define uip_conntimeout()       (uip_flags & UIP_CONN_TIMEDOUT)
 597      =2  
 598      =2  //
 599      =2  // Get the initial maxium segment size (MSS) of the current
 600      =2  // connection.
 601      =2  //
 602      =2  // \hideinitializer
 603      =2  //
 604      =2  #define uip_initialmss()             (uip_conn->initialmss)
 605      =2  
 606      =2  //
 607      =2  // Get the current maxium segment size that can be sent on the current
 608      =2  // connection.
 609      =2  //
 610      =2  // The current maxiumum segment size that can be sent on the
 611      =2  // connection is computed from the receiver's window and the MSS of
 612      =2  // the connection (which also is available by calling
 613      =2  // uip_initialmss()).
 614      =2  //
 615      =2  // \hideinitializer
 616      =2  //
 617      =2  #define uip_mss()             (uip_conn->mss)
 618      =2  
 619      =2  //
C51 COMPILER V8.06   UIP_ARP                                                               03/17/2026 10:18:44 PAGE 28  

 620      =2  // Set up a new UDP connection.
 621      =2  //
 622      =2  // \param ripaddr A pointer to a 4-byte structure representing the IP
 623      =2  // address of the remote host.
 624      =2  //
 625      =2  // \param rport The remote port number in network byte order.
 626      =2  //
 627      =2  // \return The uip_udp_conn structure for the new connection or NULL
 628      =2  // if no connection could be allocated.
 629      =2  //
 630      =2  struct uip_udp_conn *uip_udp_new(uint *ripaddr, uint rport);
 631      =2  
 632      =2  //
 633      =2  // Removed a UDP connection.
 634      =2  //
 635      =2  // \param conn A pointer to the uip_udp_conn structure for the connection.
 636      =2  //
 637      =2  // \hideinitializer
 638      =2  //
 639      =2  #define uip_udp_remove(conn) (conn)->lport = 0
 640      =2  
 641      =2  //
 642      =2  // Send a UDP datagram of length len on the current connection.
 643      =2  //
 644      =2  // This function can only be called in response to a UDP event (poll
 645      =2  // or newdata). The data must be present in the uip_buf buffer, at the
 646      =2  // place pointed to by the uip_appdata pointer.
 647      =2  //
 648      =2  // \param len The length of the data in the uip_buf buffer.
 649      =2  //
 650      =2  // \hideinitializer
 651      =2  //
 652      =2  #define uip_udp_send(len) uip_slen = (len)
 653      =2  
 654      =2  // @} //
 655      =2  
 656      =2  // uIP convenience and converting functions. //
 657      =2  
 658      =2  //
 659      =2  // \defgroup uipconvfunc uIP conversion functions
 660      =2  // @{
 661      =2  //
 662      =2  // These functions can be used for converting between different data
 663      =2  // formats used by uIP.
 664      =2  //
 665      =2  
 666      =2  //
 667      =2  // Pack an IP address into a 4-byte array which is used by uIP to
 668      =2  // represent IP addresses.
 669      =2  //
 670      =2  // Example:
 671      =2  // \code
 672      =2  // uint ipaddr[2];
 673      =2  //
 674      =2  // uip_ipaddr(&ipaddr, 192,168,1,2); 
 675      =2  // \endcode
 676      =2  //
 677      =2  // \param addr A pointer to a 4-byte array that will be filled in with
 678      =2  // the IP addres.
 679      =2  // \param addr0 The first octet of the IP address.
 680      =2  // \param addr1 The second octet of the IP address.
 681      =2  // \param addr2 The third octet of the IP address.
C51 COMPILER V8.06   UIP_ARP                                                               03/17/2026 10:18:44 PAGE 29  

 682      =2  // \param addr3 The forth octet of the IP address. 
 683      =2  //
 684      =2  // \hideinitializer
 685      =2  //
 686      =2  #define uip_ipaddr(addr, addr0,addr1,addr2,addr3) do { \
 687      =2                       (addr)[0] = HTONS(((addr0) << 8) | (addr1)); \
 688      =2                       (addr)[1] = HTONS(((addr2) << 8) | (addr3)); \
 689      =2                    } while(0)
 690      =2  
 691      =2  //
 692      =2  // Convert 16-bit quantity from host byte order to network byte order.
 693      =2  //
 694      =2  // This macro is primarily used for converting constants from host
 695      =2  // byte order to network byte order. For converting variables to
 696      =2  // network byte order, use the htons() function instead.
 697      =2  //
 698      =2  // \hideinitializer
 699      =2  //
 700      =2  #ifndef HTONS
 701      =2  #if BYTE_ORDER == BIG_ENDIAN
 702      =2  #define HTONS(n) (n)
 703      =2  #else // BYTE_ORDER == BIG_ENDIAN //
           =2 #define HTONS(n) ((((uint)((n) & 0xff)) << 8) | (((n) & 0xff00) >> 8))
           =2 #endif // BYTE_ORDER == BIG_ENDIAN //
 706      =2  #endif // HTONS //
 707      =2  
 708      =2  //
 709      =2  // Convert 16-bit quantity from host byte order to network byte order.
 710      =2  //
 711      =2  // This function is primarily used for converting variables from host
 712      =2  // byte order to network byte order. For converting constants to
 713      =2  // network byte order, use the HTONS() macro instead.
 714      =2  //
 715      =2  //#ifndef htons
 716      =2  //uint htons(uint val);
 717      =2  //#endif // htons //
 718      =2  
 719      =2  // @} //
 720      =2  
 721      =2  //
 722      =2  // Pointer to the application data in the packet buffer.
 723      =2  //
 724      =2  // This pointer points to the application data when the application is
 725      =2  // called. If the application wishes to send data, the application may
 726      =2  // use this space to write the data into before calling uip_send().
 727      =2  // /
 728      =2  //extern volatile byte *uip_appdata;
 729      =2  extern volatile byte *uip_sappdata; 
 730      =2  
 731      =2  #if UIP_URGDATA > 0 
 732      =2  // byte *uip_urgdata:
 733      =2  //
 734      =2  // This pointer points to any urgent data that has been received. Only
 735      =2  // present if compiled with support for urgent data (UIP_URGDATA).
 736      =2  //
 737      =2  extern volatile byte *uip_urgdata; 
 738      =2  #endif // UIP_URGDATA > 0 //
 739      =2  
 740      =2  // u[8|16]_t uip_len:
 741      =2  //
 742      =2  // When the application is called, uip_len contains the length of any
 743      =2  // new data that has been received from the remote host. The
C51 COMPILER V8.06   UIP_ARP                                                               03/17/2026 10:18:44 PAGE 30  

 744      =2  // application should set this variable to the size of any data that
 745      =2  // the application wishes to send. When the network device driver
 746      =2  // output function is called, uip_len should contain the length of the
 747      =2  // outgoing packet.
 748      =2  //
 749      =2  //extern volatile uint idata uip_len, uip_slen;
 750      =2  extern volatile uint idata uip_slen;
 751      =2  
 752      =2  #if UIP_URGDATA > 0 
 753      =2  extern volatile byte idata uip_urglen, uip_surglen;
 754      =2  #endif // UIP_URGDATA > 0 //
 755      =2  
 756      =2  //
 757      =2  // Representation of a uIP TCP connection.
 758      =2  //
 759      =2  // The uip_conn structure is used for identifying a connection. All
 760      =2  // but one field in the structure are to be considered read-only by an
 761      =2  // application. The only exception is the appstate field whos purpose
 762      =2  // is to let the application store application-specific state (e.g.,
 763      =2  // file pointers) for the connection. The size of this field is
 764      =2  // configured in the "uipopt.h" header file.
 765      =2  //
 766      =2  struct uip_conn {
 767      =2          uint ripaddr[2];    //< The IP address of the remote host. //
 768      =2  
 769      =2          uint lport;         //< The local TCP port, in network byte order. //
 770      =2          uint rport;         //< The local remote TCP port, in network byte order. //  
 771      =2  
 772      =2          byte rcv_nxt[4];    //< The sequence number that we expect to receive next. //
 773      =2          byte snd_nxt[4];    //< The sequence number that was last sent by us. //
 774      =2          uint len;           //< Length of the data that was previously sent. //
 775      =2          uint mss;           //< Current maximum segment size for the connection. //
 776      =2          uint initialmss;    //< Initial maximum segment size for the connection. //  
 777      =2          byte sa;            //< Retransmission time-out calculation state variable. //
 778      =2          byte sv;            //< Retransmission time-out calculation state variable. //
 779      =2          byte rto;           //< Retransmission time-out. //
 780      =2          byte tcpstateflags; //< TCP state and flags. //
 781      =2          byte timer;         //< The retransmission timer. //
 782      =2          byte nrtx;          //< The number of retransmissions for the last segment sent. //
 783      =2  
 784      =2          byte window[2];
 785      =2          byte keepaliveflag;
 786      =2      byte sndkeepalive; // number of keepalive packet was sent //
 787      =2          uint keepalivetick;
 788      =2          byte tcpip_id;
 789      =2  
 790      =2          // The application state. //
 791      =2  //      byte appstate[UIP_APPSTATE_SIZE];  
 792      =2  };
 793      =2  
 794      =2  // Pointer to the current connection. //
 795      =2  extern struct uip_conn xdata *uip_conn;
 796      =2  // The array containing all uIP connections. //
 797      =2  extern struct uip_conn xdata uip_conns[UIP_CONNS];
 798      =2  //
 799      =2  // \addtogroup uiparch
 800      =2  // @{
 801      =2  //
 802      =2  
 803      =2  //
 804      =2  // 4-byte array used for the 32-bit sequence number calculations.
 805      =2  //
C51 COMPILER V8.06   UIP_ARP                                                               03/17/2026 10:18:44 PAGE 31  

 806      =2  extern volatile byte uip_acc32[4];
 807      =2  
 808      =2  // @} //
 809      =2  
 810      =2  #if UIP_UDP
 811      =2  //
 812      =2  // Representation of a uIP UDP connection.
 813      =2  //
 814      =2  struct uip_udp_conn {
 815      =2    uint ripaddr[2];   //< The IP address of the remote peer. //
 816      =2    uint lport;        //< The local port number in network byte order. //
 817      =2    uint rport;        //< The remote port number in network byte order. //
 818      =2  
 819      =2    byte tcpip_id;
 820      =2  };
 821      =2  
 822      =2  extern struct uip_udp_conn xdata *uip_udp_conn;
 823      =2  extern struct uip_udp_conn xdata uip_udp_conns[UIP_UDP_CONNS];
 824      =2  #endif // UIP_UDP //
 825      =2  
 826      =2  //
 827      =2  // The structure holding the TCP/IP statistics that are gathered if
 828      =2  // UIP_STATISTICS is set to 1.
 829      =2  //
 830      =2  //
 831      =2  struct uip_stats {
 832      =2    struct {
 833      =2      uip_stats_t drop;     //< Number of dropped packets at the IP layer. //
 834      =2      uip_stats_t recv;     //< Number of received packets at the IP layer. //
 835      =2      uip_stats_t sent;     //< Number of sent packets at the IP layer. //
 836      =2      uip_stats_t vhlerr;   //< Number of packets dropped due to wrong IP version or header length. //
 837      =2      uip_stats_t hblenerr; //< Number of packets dropped due to wrong IP length, high byte. //
 838      =2      uip_stats_t lblenerr; //< Number of packets dropped due to wrong IP length, low byte. //
 839      =2      uip_stats_t fragerr;  //< Number of packets dropped since they were IP fragments. //
 840      =2      uip_stats_t chkerr;   //< Number of packets dropped due to IP checksum errors. //
 841      =2      uip_stats_t protoerr; //< Number of packets dropped since they were neither ICMP, UDP nor TCP. //
 842      =2    } ip;                   //< IP statistics. //
 843      =2    struct {
 844      =2      uip_stats_t drop;     //< Number of dropped ICMP packets. //
 845      =2      uip_stats_t recv;     //< Number of received ICMP packets. //
 846      =2      uip_stats_t sent;     //< Number of sent ICMP packets. //
 847      =2      uip_stats_t typeerr;  //< Number of ICMP packets with a wrong type. //
 848      =2    } icmp;                 //< ICMP statistics. //
 849      =2    struct {
 850      =2      uip_stats_t drop;     //< Number of dropped TCP segments. //
 851      =2      uip_stats_t recv;     //< Number of recived TCP segments. //
 852      =2      uip_stats_t sent;     //< Number of sent TCP segments. //
 853      =2      uip_stats_t chkerr;   //< Number of TCP segments with a bad checksum. //
 854      =2      uip_stats_t ackerr;   //< Number of TCP segments with a bad ACK number. //
 855      =2      uip_stats_t rst;      //< Number of recevied TCP RST (reset) segments. //
 856      =2      uip_stats_t rexmit;   //< Number of retransmitted TCP segments. //
 857      =2      uip_stats_t syndrop;  //< Number of dropped SYNs due to too few connections was avaliable. //
 858      =2      uip_stats_t synrst;   //< Number of SYNs for closed ports, triggering a RST. //
 859      =2    } tcp;                  //< TCP statistics. //
 860      =2  };
 861      =2  
 862      =2  //
 863      =2  // The uIP TCP/IP statistics.
 864      =2  //
 865      =2  // This is the variable in which the uIP TCP/IP statistics are gathered.
 866      =2  //
 867      =2  extern struct uip_stats uip_stat;
C51 COMPILER V8.06   UIP_ARP                                                               03/17/2026 10:18:44 PAGE 32  

 868      =2  
 869      =2  //-----------------------------------------------------------------------------------//
 870      =2  // All the stuff below this point is internal to uIP and should not be
 871      =2  // used directly by an application or by a device driver.
 872      =2  //
 873      =2  //-----------------------------------------------------------------------------------//
 874      =2  // byte uip_flags:
 875      =2  //
 876      =2  // When the application is called, uip_flags will contain the flags
 877      =2  // that are defined in this file. Please read below for more
 878      =2  // infomation.
 879      =2  //
 880      =2  extern volatile byte idata uip_flags;
 881      =2  
 882      =2  // The following flags may be set in the global variable uip_flags
 883      =2  // before calling the application callback. The UIP_ACKDATA and
 884      =2  // UIP_NEWDATA flags may both be set at the same time, whereas the
 885      =2  // others are mutualy exclusive. Note that these flags should *NOT* be
 886      =2  // accessed directly, but through the uIP functions/macros.
 887      =2  
 888      =2  #define UIP_ACKDATA   1     // Signifies that the outstanding data was
 889      =2  //                             acked and the application should send
 890      =2  //                             out new data instead of retransmitting
 891      =2  //                             the last data.
 892      =2  #define UIP_NEWDATA   2     // Flags the fact that the peer has sent us new data. //
 893      =2  #define UIP_REXMIT    4     // Tells the application to retransmit the data that was last sent. //
 894      =2  #define UIP_CONN_TIMEDOUT       8
 895      =2  //#define UIP_POLL      8     // Used for polling the application, to
 896      =2  //                             check if the application has data that
 897      =2  //                               it wants to send.
 898      =2  #define UIP_CLOSE     16    // The remote host has closed the
 899      =2  //                             connection, thus the connection has
 900      =2  //                             gone away. Or the application signals
 901      =2  //                             that it wants to close the
 902      =2  //                             connection.
 903      =2  #define UIP_ABORT     32    // The remote host has aborted the
 904      =2  //                             connection, thus the connection has
 905      =2  //                             gone away. Or the application signals
 906      =2  //                             that it wants to abort the
 907      =2  //                             connection.
 908      =2  #define UIP_CONNECTED 64    // We have got a connection from a remote
 909      =2  //                             host and have set up a new connection
 910      =2  //                             for it, or an active connection has
 911      =2  //                             been successfully established.
 912      =2  
 913      =2  #define UIP_TIMEDOUT  128   // The connection has been aborted due to too many retransmissions. //
 914      =2  
 915      =2  extern byte xdata uip_extraflag;
 916      =2  
 917      =2  #define UIP_SEND_PUSH   1
 918      =2  #define UIP_SEND_NONE   2
 919      =2  #define UIP_SEND_REXMIT 4
 920      =2  #define UIP_RCV_WINDOW  64
 921      =2  #define UIP_RCV_PRE_ACK 128
 922      =2  
 923      =2  // uip_process(flag):
 924      =2  //
 925      =2  // The actual uIP function which does all the work.
 926      =2  //
 927      =2  void uip_process(byte flag);
 928      =2  
 929      =2  // The following flags are passed as an argument to the uip_process()
C51 COMPILER V8.06   UIP_ARP                                                               03/17/2026 10:18:44 PAGE 33  

 930      =2  // function. They are used to distinguish between the two cases where
 931      =2  // uip_process() is called. It can be called either because we have
 932      =2  // incoming data that should be processed, or because the periodic
 933      =2  // timer has fired.
 934      =2  
 935      =2  #define UIP_DATA    1     // Tells uIP that there is incoming data in
 936      =2                            // the uip_buf buffer. The length of the
 937      =2                            // data is stored in the global variable
 938      =2                            // uip_len.
 939      =2  #define UIP_TIMER   2     // Tells uIP that the periodic timer has
 940      =2                            // fired.
 941      =2  #if UIP_UDP
 942      =2  #define UIP_UDP_TIMER 3
 943      =2  #endif // UIP_UDP //
 944      =2  
 945      =2  #if UIP_ACTIVE_OPEN
 946      =2  #define UIP_ACTIVE_SEND 4
 947      =2  #endif // UIP_ACTIVE_OPEN //
 948      =2  
 949      =2  // The TCP states used in the uip_conn->tcpstateflags. //
 950      =2  #define CLOSED      0
 951      =2  #define SYN_RCVD    1
 952      =2  #define SYN_SENT    2
 953      =2  #define ESTABLISHED 3
 954      =2  #define FIN_WAIT_1  4
 955      =2  #define FIN_WAIT_2  5
 956      =2  #define CLOSING     6
 957      =2  #define TIME_WAIT   7
 958      =2  #define LAST_ACK    8
 959      =2  #define TS_MASK     15
 960      =2    
 961      =2  #define UIP_STOPPED      16
 962      =2  
 963      =2  #define UIP_TCPIP_HLEN 40
 964      =2  
 965      =2  // The TCP and IP headers. //
 966      =2  typedef struct {
 967      =2    // IP header. //
 968      =2    byte vhl,
 969      =2      tos,          
 970      =2      len[2],       
 971      =2      ipid[2],        
 972      =2      ipoffset[2],  
 973      =2      ttl,          
 974      =2      proto;     
 975      =2    uint ipchksum;
 976      =2    uint srcipaddr[2], 
 977      =2      destipaddr[2];
 978      =2    
 979      =2    // TCP header. //
 980      =2    uint srcport,
 981      =2      destport;
 982      =2    byte seqno[4],  
 983      =2      ackno[4],
 984      =2      tcpoffset,
 985      =2      flags,
 986      =2      wnd[2];     
 987      =2    uint tcpchksum;
 988      =2    byte urgp[2];
 989      =2    byte optdata[4];
 990      =2  } uip_tcpip_hdr;
 991      =2  
C51 COMPILER V8.06   UIP_ARP                                                               03/17/2026 10:18:44 PAGE 34  

 992      =2  // The ICMP and IP headers. //
 993      =2  typedef struct {
 994      =2    // IP header. //
 995      =2    byte vhl,
 996      =2      tos,          
 997      =2      len[2],       
 998      =2      ipid[2],        
 999      =2      ipoffset[2],  
1000      =2      ttl,          
1001      =2      proto;     
1002      =2    uint ipchksum;
1003      =2    uint srcipaddr[2], 
1004      =2      destipaddr[2];
1005      =2    // ICMP (echo) header. //
1006      =2    byte type, icode;
1007      =2    uint icmpchksum;
1008      =2    uint id, seqno;  
1009      =2  } uip_icmpip_hdr;
1010      =2  
1011      =2  // The UDP and IP headers. //
1012      =2  typedef struct {
1013      =2    // IP header. //
1014      =2    byte vhl,
1015      =2      tos,          
1016      =2      len[2],       
1017      =2      ipid[2],        
1018      =2      ipoffset[2],  
1019      =2      ttl,          
1020      =2      proto;     
1021      =2    uint ipchksum;
1022      =2    uint srcipaddr[2], 
1023      =2      destipaddr[2];
1024      =2    
1025      =2    // UDP header. //
1026      =2    uint srcport,
1027      =2      destport;
1028      =2    uint udplen;
1029      =2    uint udpchksum;
1030      =2  } uip_udpip_hdr;
1031      =2  
1032      =2  #define UIP_PROTO_ICMP  1
1033      =2  #define UIP_PROTO_TCP   6
1034      =2  #define UIP_PROTO_UDP   17
1035      =2  
1036      =2  #if UIP_FIXEDADDR
           =2 extern const uint code uip_hostaddr[2];
           =2 #else // UIP_FIXEDADDR //
1039      =2  extern uint idata uip_hostaddr[2];
1040      =2  #endif // UIP_FIXEDADDR //
1041      =2  
1042      =2  #endif // __UIP_H__ //
1043      =2  
1044      =2  // @} //
1045      =2  
  64      =1  
  65      =1  
  66      =1  //
  67      =1  // Representation of a 48-bit Ethernet address.
  68      =1  //
  69      =1  struct uip_eth_addr {
  70      =1    byte addr[6];
  71      =1  };
C51 COMPILER V8.06   UIP_ARP                                                               03/17/2026 10:18:44 PAGE 35  

  72      =1  
  73      =1  extern struct uip_eth_addr xdata uip_ethaddr;
  74      =1  extern struct uip_eth_addr xdata uip_gatewaymacaddr;
  75      =1  extern byte xdata uip_getgatewaymacaddrflag;
  76      =1  
  77      =1  //
  78      =1  // The Ethernet header. 
  79      =1  //
  80      =1  struct uip_eth_hdr {
  81      =1    struct uip_eth_addr dest;
  82      =1    struct uip_eth_addr src;
  83      =1    uint type;
  84      =1  };
  85      =1  
  86      =1  #define UIP_ETHTYPE_ARP 0x0806
  87      =1  #define UIP_ETHTYPE_IP  0x0800
  88      =1  #define UIP_ETHTYPE_IP6 0x86dd 
  89      =1  
  90      =1  
  91      =1  // The uip_arp_init() function must be called before any of the other
  92      =1  // ARP functions.
  93      =1  void uip_arp_init(void);
  94      =1  
  95      =1  // The uip_arp_ipin() function should be called whenever an IP packet
  96      =1  // arrives from the Ethernet. This function refreshes the ARP table or
  97      =1  // inserts a new mapping if none exists. The function assumes that an
  98      =1  // IP packet with an Ethernet header is present in the uip_buf buffer
  99      =1  // and that the length of the packet is in the uip_len variable.
 100      =1  //void uip_arp_ipin(void);
 101      =1  
 102      =1  // The uip_arp_arpin() should be called when an ARP packet is received
 103      =1  // by the Ethernet driver. This function also assumes that the
 104      =1  // Ethernet frame is present in the uip_buf buffer. When the
 105      =1  // uip_arp_arpin() function returns, the contents of the uip_buf
 106      =1  // buffer should be sent out on the Ethernet if the uip_len variable
 107      =1  // is > 0.
 108      =1  //void uip_arp_arpin(void);
 109      =1  
 110      =1  // The uip_arp_out() function should be called when an IP packet
 111      =1  // should be sent out on the Ethernet. This function creates an
 112      =1  // Ethernet header before the IP header in the uip_buf buffer. The
 113      =1  // Ethernet header will have the correct Ethernet MAC destination
 114      =1  // address filled in if an ARP table entry for the destination IP
 115      =1  // address (or the IP address of the default router) is present. If no
 116      =1  // such table entry is found, the IP packet is overwritten with an ARP
 117      =1  // request and we rely on TCP to retransmit the packet that was
 118      =1  // overwritten. In any case, the uip_len variable holds the length of
 119      =1  // the Ethernet frame that should be transmitted.
 120      =1  //void uip_arp_out(void);
 121      =1  
 122      =1  // The uip_arp_timer() function should be called every ten seconds. It
 123      =1  // is responsible for flushing old entries in the ARP table.
 124      =1  void uip_arp_timer(void);
 125      =1  
 126      =1  byte uip_findarptable(uint* ipaddr);
 127      =1  // @} //
 128      =1  
 129      =1  //
 130      =1  // \addtogroup uipconffunc
 131      =1  // @{
 132      =1  //
 133      =1  
C51 COMPILER V8.06   UIP_ARP                                                               03/17/2026 10:18:44 PAGE 36  

 134      =1  //
 135      =1  // Set the default router's IP address.
 136      =1  //
 137      =1  // \param addr A pointer to a 4-byte array containing the IP address
 138      =1  // of the default router.
 139      =1  //
 140      =1  // \hideinitializer
 141      =1  //
 142      =1  #define uip_setdraddr(addr) do { uip_arp_draddr[0] = addr[0]; \
 143      =1                                   uip_arp_draddr[1] = addr[1]; } while(0)
 144      =1  
 145      =1  //
 146      =1  // Set the netmask.
 147      =1  //
 148      =1  // \param addr A pointer to a 4-byte array containing the IP address
 149      =1  // of the netmask.
 150      =1  //
 151      =1  // \hideinitializer
 152      =1  //
 153      =1  #define uip_setnetmask(addr) do { uip_arp_netmask[0] = addr[0]; \
 154      =1                                    uip_arp_netmask[1] = addr[1]; } while(0)
 155      =1  
 156      =1  
 157      =1  //
 158      =1  // Get the default router's IP address.
 159      =1  //
 160      =1  // \param addr A pointer to a 4-byte array that will be filled in with
 161      =1  // the IP address of the default router.
 162      =1  //
 163      =1  // \hideinitializer
 164      =1  //
 165      =1  #define uip_getdraddr(addr) do { addr[0] = uip_arp_draddr[0]; \
 166      =1                                   addr[1] = uip_arp_draddr[1]; } while(0)
 167      =1  
 168      =1  //
 169      =1  // Get the netmask.
 170      =1  //
 171      =1  // \param addr A pointer to a 4-byte array that will be filled in with
 172      =1  // the value of the netmask.
 173      =1  //
 174      =1  // \hideinitializer
 175      =1  //
 176      =1  #define uip_getnetmask(addr) do { addr[0] = uip_arp_netmask[0]; \
 177      =1                                    addr[1] = uip_arp_netmask[1]; } while(0)
 178      =1  
 179      =1  
 180      =1  //
 181      =1  // Specifiy the Ethernet MAC address.
 182      =1  //
 183      =1  // The ARP code needs to know the MAC address of the Ethernet card in
 184      =1  // order to be able to respond to ARP queries and to generate working
 185      =1  // Ethernet headers.
 186      =1  //
 187      =1  // \note This macro only specifies the Ethernet MAC address to the ARP
 188      =1  // code. It cannot be used to change the MAC address of the Ethernet
 189      =1  // card.
 190      =1  //
 191      =1  // \param eaddr A pointer to a struct uip_eth_addr containing the
 192      =1  // Ethernet MAC address of the Ethernet card.
 193      =1  //
 194      =1  // \hideinitializer
 195      =1  //
C51 COMPILER V8.06   UIP_ARP                                                               03/17/2026 10:18:44 PAGE 37  

 196      =1  #define uip_setethaddr(eaddr) do {uip_ethaddr.addr[0] = eaddr.addr[0]; \
 197      =1                                uip_ethaddr.addr[1] = eaddr.addr[1];\
 198      =1                                uip_ethaddr.addr[2] = eaddr.addr[2];\
 199      =1                                uip_ethaddr.addr[3] = eaddr.addr[3];\
 200      =1                                uip_ethaddr.addr[4] = eaddr.addr[4];\
 201      =1                                uip_ethaddr.addr[5] = eaddr.addr[5];} while(0)
 202      =1  
 203      =1  // @} //
 204      =1  
 205      =1  //
 206      =1  // \internal Internal variables that are set using the macros
 207      =1  // uip_setdraddr and uip_setnetmask.
 208      =1  //
 209      =1  #if UIP_FIXEDADDR > 0
           =1     extern const uint code uip_arp_draddr[2], uip_arp_netmask[2];
           =1 #else
 212      =1      extern uint idata uip_arp_draddr[2], uip_arp_netmask[2];
 213      =1  #endif // UIP_FIXEDADDR //
 214      =1  
 215      =1  #endif // __UIP_ARP_H__ //
 216      =1  
  70          #include "tcpip.h"
   1      =1  //=============================================================================
   2      =1  //      Copyright (c) 2006      ASIX Electronic Corporation      All rights reserved.
   3      =1  // 
   4      =1  //      This is unpublished proprietary source code of ASIX Electronic Corporation
   5      =1  // 
   6      =1  //      The copyright notice above does not evidence any actual or intended
   7      =1  //      publication of such source code.
   8      =1  //=============================================================================
   9      =1  //  Module Name:tcpip.h
  10      =1  //  Purpose:
  11      =1  //  Author:
  12      =1  //  Date:
  13      =1  //  Notes:
  14      =1  //  $Log: tcpip.h,v $
  15      =1  //=============================================================================
  16      =1  
  17      =1  #ifndef __TCPIP_H__
           =1 #define __TCPIP_H__
           =1 
           =1 // INCLUDE FILE DECLARATIONS //
           =1 #include "types.h"
           =1 
           =1 // NAMING CONSTANT DECLARATIONS //
           =1 #define TCPIP_MAX_APP_CONN                      16
           =1 #define TCPIP_MAX_TCP_LISTEN            12
           =1 #define TCPIP_MAX_UDP_LISTEN            12
           =1 #define TCPIP_MAX_TCP_CONN                      16
           =1 #define TCPIP_MAX_UDP_CONN                      16
           =1 
           =1 #define TCPIP_NO_NEW_CONN                       0xff
           =1 
           =1 #define TCPIP_CONNECT_CANCEL            0
           =1 #define TCPIP_CONNECT_WAIT                      1
           =1 #define TCPIP_CONNECT_ACTIVE            2
           =1 #define TCPIP_CONNECT_XMIT_COMPLETE     3
           =1 #define TCPIP_CONNECT_BUSY                      0xf1
           =1 
           =1 #define TCPIP_SEND_NOT_FINAL            0
           =1 #define TCPIP_SEND_FINAL                        1
           =1 #define TCPIP_SEND_NOT_PUSH                     2
C51 COMPILER V8.06   UIP_ARP                                                               03/17/2026 10:18:44 PAGE 38  

           =1 
           =1 #define TCPIP_KEEPALIVE_ON                      1
           =1 #define TCPIP_KEEPALIVE_OFF                     0
           =1 
           =1 #define TCPIP_DONT_FRAGMENT                     1
           =1 #define TCPIP_FRAGMENT                          0
           =1 
           =1 #define TCPIP_PROTOCOL_ICMP                     1
           =1 #define TCPIP_PROTOCOL_TCP                      6
           =1 #define TCPIP_PROTOCOL_UDP                      17
           =1 
           =1 #define TCPIP_NON_TRANSPARENT_MODE      0
           =1 #define TCPIP_TRANSPARENT_MODE          1
           =1 
           =1 #define TCPIP_TIME_TO_LIVE                      255     // TTL item of ip layer //
           =1 
           =1 // GLOBAL VARIABLES //
           =1 
           =1 // for uip //
           =1 extern byte xdata uip_buf[];
           =1 extern volatile uint idata uip_len;
           =1 extern volatile byte *uip_appdata;
           =1 extern byte xdata uip_getgatewaymacaddrflag;
           =1 
           =1 #define TCPIP_GetRcvBuffer()            (uip_buf)
           =1 #define TCPIP_GetXmitBuffer()           (uip_buf)
           =1 #define TCPIP_SetRcvLength(len)         (uip_len = len)
           =1 #define TCPIP_SetXmitLength(len)        (uip_len = len)
           =1 #define TCPIP_GetXmitLength()           (uip_len)
           =1 #define TCPIP_GetPayloadBuffer()        (uip_appdata)
           =1 #define TCPIP_GetGwMacAddrFlag()        (uip_getgatewaymacaddrflag)
           =1 #define TCPIP_SetGwMacAddrFlag(a)       (uip_getgatewaymacaddrflag = a)
           =1 
           =1 // EXPORTED SUBPROGRAM SPECIFICATIONS //
           =1 void TCPIP_Init(byte);
           =1 byte TCPIP_Bind(byte (* )(ulong XDATA*, uint, byte), void (* )(byte, byte), void (* )(byte XDATA*, uint, b
             -yte));
           =1 void TCPIP_Unbind(byte);
           =1 
           =1 // for tcp //
           =1 byte TCPIP_TcpListen(uint, byte);
           =1 void TCPIP_TcpUnlisten(uint);
           =1 byte TCPIP_TcpNew(byte, byte, ulong, uint, uint);
           =1 void TCPIP_TcpConnect(byte);
           =1 void TCPIP_TcpKeepAlive(byte, byte);
           =1 void TCPIP_TcpClose(byte);
           =1 uint TCPIP_QueryTcpLocalPort(byte);
           =1 void TCPIP_TcpSend(byte, byte*, uint, byte);
           =1 
           =1 // for udp //
           =1 byte TCPIP_UdpListen(uint, byte);
           =1 void TCPIP_UdpUnlisten(uint);
           =1 byte TCPIP_UdpNew(byte, byte, ulong, uint, uint);
           =1 void TCPIP_UdpClose(byte);
           =1 uint TCPIP_QueryUdpLocalPort(byte);
           =1 void TCPIP_UdpSend(byte, byte*,byte, byte*, uint);
           =1 
           =1 // for other purpose //
           =1 void TCPIP_AssignLowlayerXmitFunc(void (* )(uint));
           =1 void TCPIP_AssignPingRespFunc(void (* )(void));
           =1 void TCPIP_PeriodicCheck(void);
           =1 void TCPIP_SetPppoeMode(byte);
C51 COMPILER V8.06   UIP_ARP                                                               03/17/2026 10:18:44 PAGE 39  

           =1 ulong TCPIP_GetIPAddr(void);
           =1 ulong TCPIP_GetSubnetMask(void);
           =1 ulong TCPIP_GetGateway(void);
           =1 void TCPIP_SetIPAddr(ulong);
           =1 void TCPIP_SetSubnetMask(ulong);
           =1 void TCPIP_SetGateway(ulong);
           =1 void TCPIP_SetMacAddr(byte*);
           =1 void TCPIP_Receive(void);
           =1 void TCPIP_DontFragment(byte);
           =1 
           =1 // for uip //
           =1 uint htons(uint);
           =1 
           =1 // for uip_arp //
           =1 void uip_arp_ipin(void);
           =1 void uip_arp_arpin(void);
           =1 void uip_arp_out(void);
           =1 
           =1 // for debug //
           =1 //void TCPIP_Debug(void);
           =1 
           =1 #endif // End of __TCPIP_H__ //
 124      =1  
 125      =1  
 126      =1  // End of tcpip.h //
  71          #include "tcpip_uip.h"
   1      =1  //=============================================================================
   2      =1  //     Copyright (c) 2006       ASIX Electronic Corporation      All rights reserved.
   3      =1  //
   4      =1  //     This is unpublished proprietary source code of ASIX Electronic Corporation
   5      =1  //
   6      =1  //     The copyright notice above does not evidence any actual or intended
   7      =1  //     publication of such source code.
   8      =1  //=============================================================================
   9      =1  // Module Name:tcpip_uip.h
  10      =1  // Purpose:
  11      =1  // Author:
  12      =1  // Date:
  13      =1  // Notes:
  14      =1  // $Log: tcpip_uip.h,v $
  15      =1  //=============================================================================
  16      =1  
  17      =1  #ifndef __TCPIP_UIP_H__
  18      =1  #define __TCPIP_UIP_H__
  19      =1  
  20      =1  // INCLUDE FILE DECLARATIONS //
  21      =1  #include "types.h"
   1      =2  //----------------------------------------------------------------------------------------
   2      =2  //     Copyright (c) 2005       Simtek, Incorporated      All rights reserved.
   3      =2  //
   4      =2  //     This is unpublished proprietary source code of Simtek, Inc
   5      =2  //
   6      =2  //     The copyright notice above does not evidence any actual or intended
   7      =2  //     publication of such source code.
   8      =2  //----------------------------------------------------------------------------------------
   9      =2  // Module Name : types.h
  10      =2  // Purpose     : Definition of type.
  11      =2  // Author      : Robin Lee
  12      =2  // Date        : 2005-12-28
  13      =2  // Notes       : None.
  14      =2  // $Log: types.h,v $
  15      =2  //----------------------------------------------------------------------------------------
C51 COMPILER V8.06   UIP_ARP                                                               03/17/2026 10:18:44 PAGE 40  

  16      =2  // Revision 1.2  2006/05/18 05:02:30  Louis
  17      =2  // no message
  18      =2  //----------------------------------------------------------------------------------------
  19      =2  // Revision 1.1  2006/04/07 11:36:17  robin6633
  20      =2  // no message
  21      =2  //----------------------------------------------------------------------------------------
  22      =2  
  23      =2  #ifndef TYPES_H
           =2 #define TYPES_H
           =2 
           =2 typedef unsigned short int          bool;                                                 // boolean
           =2 typedef unsigned char               byte;                                                 //  8-bit unsign
             -ed
           =2 typedef unsigned short int          uint;                                                 // 16-bit unsign
             -ed
           =2 typedef short int                   sint;                                                 // 16-bit signed
           =2 typedef unsigned long               ulong;                                                // 32-bit unsign
             -ed
           =2 typedef unsigned short int          word;                                                 // 16-bit unsign
             -ed
           =2 
           =2 #ifndef NULL
           =2   #define NULL ((void *) 0L)
           =2 #endif
           =2 
           =2 #define TRUE                  1
           =2 #define FALSE                 0
           =2 #define ON                    1
           =2 #define OFF                   0
           =2 #define Client                1
           =2 #define Server                0
           =2 
           =2 // Bit Definitions for Bitwise Operation //
           =2 #define BIT0            0x01
           =2 #define BIT1            0x02
           =2 #define BIT2            0x04
           =2 #define BIT3            0x08
           =2 #define BIT4            0x10
           =2 #define BIT5            0x20
           =2 #define BIT6            0x40
           =2 #define BIT7            0x80
           =2 #define BIT8            0x0100
           =2 #define BIT9            0x0200
           =2 #define BIT10           0x0400
           =2 #define BIT11           0x0800
           =2 #define BIT12           0x1000
           =2 #define BIT13           0x2000
           =2 #define BIT14           0x4000
           =2 #define BIT15           0x8000
           =2 #define BIT16           0x00010000
           =2 #define BIT17           0x00020000
           =2 #define BIT18           0x00040000
           =2 #define BIT19           0x00080000
           =2 #define BIT20           0x00100000
           =2 #define BIT21           0x00200000
           =2 #define BIT22           0x00400000
           =2 #define BIT23           0x00800000
           =2 #define BIT24           0x01000000
           =2 #define BIT25           0x02000000
           =2 #define BIT26           0x04000000
           =2 #define BIT27           0x08000000
           =2 #define BIT28           0x10000000
C51 COMPILER V8.06   UIP_ARP                                                               03/17/2026 10:18:44 PAGE 41  

           =2 #define BIT29           0x20000000
           =2 #define BIT30           0x40000000
           =2 #define BIT31           0x80000000
           =2 
           =2 #define LOW_BYTE(dat)   (byte) (dat & 0x00FF)
           =2 #define HIGH_BYTE(dat)  (byte)((dat & 0xFF00) >> 8)
           =2 
           =2 #define U32BYTE0(dat)   (byte) (dat  & 0x000000FF)
           =2 #define U32BYTE1(dat)   (byte)((dat  & 0x0000FF00) >> 8)
           =2 #define U32BYTE2(dat)   (byte)((dat  & 0x00FF0000) >> 16)
           =2 #define U32BYTE3(dat)   (byte)((dat  & 0xFF000000) >> 24)
           =2  
           =2 // Keil compiler user define //
           =2 #define     KEIL_CPL
           =2 
           =2 #ifdef KEIL_CPL
           =2  #define XDATA    xdata
           =2  #define IDATA    idata
           =2  #define BDATA    bdata
           =2  #define CODE     code
           =2  #define FAR      far
           =2 #else
           =2  #define XDATA
           =2  #define IDATA
           =2  #define BDATA
           =2  #define CODE
           =2  #define FAR
           =2 #endif
           =2 
           =2 // Serial interface command direction //
           =2 #define     SI_WR                   BIT0
           =2 #define     SI_RD                   BIT1
           =2 
           =2 #define     FLASH_WR_ENB            (PCON |= PWE_)
           =2 #define     FLASH_WR_DISB           (PCON &= ~PWE_)
           =2 
           =2 #endif  // end of TYPES_H //
  22      =1  
  23      =1  // NAMING CONSTANT DECLARATIONS //
  24      =1  #define TCPIP_STATE_FREE                        0
  25      =1  #define TCPIP_STATE_WAIT_CONNECT        1
  26      =1  #define TCPIP_STATE_CONNECT                     2
  27      =1  #define TCPIP_STATE_WAIT_FIN            3
  28      =1  #define TCPIP_STATE_LAST_ACK            4
  29      =1  
  30      =1  #define TCPIP_KEEPALIVE_PERIOD          (240 * 2) // 2 mimute //
  31      =1  #define TCPIP_CONN_TIMEOUT                      (240 * 8) // 8 minute //
  32      =1  
  33      =1  // UIP_APPCALL: the name of the application function. This function
  34      =1  //   must return void and take no arguments (i.e., C type "void
  35      =1  //   appfunc(void)").
  36      =1  #ifndef UIP_APPCALL
  37      =1  #define UIP_APPCALL()   TCPIP_CallTcpApp()
  38      =1  #endif
  39      =1  
  40      =1  // TYPE DECLARATIONS //
  41      =1  // ------------------------------------------------------------- //
  42      =1  typedef struct _TCPIP_APPLICATION
  43      =1  {
  44      =1          byte    Valid;
  45      =1          byte    (*NewConnHandle)(ulong XDATA*, uint, byte);
  46      =1          void    (*EventHandle)(byte, byte);
C51 COMPILER V8.06   UIP_ARP                                                               03/17/2026 10:18:44 PAGE 42  

  47      =1          void    (*ReceiveHandle)(byte XDATA*, uint, byte);
  48      =1  
  49      =1  } TCPIP_APPLICATION;
  50      =1  
  51      =1  // ------------------------------------------------------------- //
  52      =1  typedef struct _TCPIP_LISTEN
  53      =1  {
  54      =1          uint    LocalPort;
  55      =1          byte    InterfaceId;// TCPIP_APPLICATION Connect ID //
  56      =1  
  57      =1  } TCPIP_LISTEN;
  58      =1  
  59      =1  // ------------------------------------------------------------- //
  60      =1  typedef struct _TCPIP_UDP_CONNECT
  61      =1  {
  62      =1          byte    State;
  63      =1          byte    InterfaceId;// TCPIP_APPLICATION Connect ID //
  64      =1          byte    AppId;          // Uplayer Connect ID //
  65      =1          ulong   Ip;
  66      =1          uint    LocalPort;
  67      =1          uint    RemotePort;
  68      =1          byte    HeadLen;
  69      =1          uint    PayloadLen;
  70      =1          byte*   PHead;          // point to up-layer protocol header //
  71      =1          byte*   PPayload;       // point to up_layer protocol payload //
  72      =1          void XDATA*     PSocket;// UDP socket //
  73      =1  
  74      =1  } TCPIP_UDP_CONNECT;
  75      =1  
  76      =1  // ------------------------------------------------------------- //
  77      =1  typedef struct _TCPIP_TCP_CONNECT
  78      =1  {
  79      =1          byte    State;
  80      =1          byte    InterfaceId;// TCPIP_APPLICATION Connect ID //
  81      =1          byte    AppId;          // Uplayer Connect ID //
  82      =1          byte    FinalFlag;
  83      =1          ulong   Ip;
  84      =1          byte    Seq[4];
  85      =1          void  XDATA*    PSocket;
  86      =1          uint    XmitLen;
  87      =1          uint    SecXmitLen;
  88      =1          uint    LeftLen;
  89      =1          byte*   PData;
  90      =1          byte*   PSecData;
  91      =1          byte*   PNextData;
  92      =1          byte    Count;
  93      =1  
  94      =1  } TCPIP_TCP_CONNECT;
  95      =1  
  96      =1  // GLOBAL VARIABLES //
  97      =1  extern byte TCPIP_PppoeHeaderLen;
  98      =1  extern byte TCPIP_IsPppoe;
  99      =1  extern byte TCPIP_DontFrag;
 100      =1  extern byte TCPIP_EthHeadLen;
 101      =1  extern uint TCPIP_MssLen;
 102      =1  extern void (*TCPIP_PingRespCallBack)(void);
 103      =1  
 104      =1  
 105      =1  // EXPORTED SUBPROGRAM SPECIFICATIONS //
 106      =1  void TCPIP_CallTcpApp(void);
 107      =1  void TCPIP_CallUdpApp(void);
 108      =1  
C51 COMPILER V8.06   UIP_ARP                                                               03/17/2026 10:18:44 PAGE 43  

 109      =1  
 110      =1  #endif // End of __TCPIP_UIP_H__ //
 111      =1  
 112      =1  
 113      =1  // End of tcpip_uip.h //
  72          #include <string.h>
   1      =1  /*--------------------------------------------------------------------------
   2      =1  STRING.H
   3      =1  
   4      =1  String functions.
   5      =1  Copyright (c) 1988-2002 Keil Elektronik GmbH and Keil Software, Inc.
   6      =1  All rights reserved.
   7      =1  --------------------------------------------------------------------------*/
   8      =1  
   9      =1  #ifndef __STRING_H__
  10      =1  #define __STRING_H__
  11      =1  
  12      =1  #ifndef _SIZE_T
  13      =1   #define _SIZE_T
  14      =1   typedef unsigned int size_t;
  15      =1  #endif
  16      =1  
  17      =1  #ifndef NULL
           =1  #define NULL ((void *) 0L)
           =1 #endif
  20      =1  
  21      =1  #pragma SAVE
  22      =1  #pragma REGPARMS
  23      =1  extern char *strcat (char *s1, char *s2);
  24      =1  extern char *strncat (char *s1, char *s2, int n);
  25      =1  
  26      =1  extern char strcmp (char *s1, char *s2);
  27      =1  extern char strncmp (char *s1, char *s2, int n);
  28      =1  
  29      =1  extern char *strcpy (char *s1, char *s2);
  30      =1  extern char *strncpy (char *s1, char *s2, int n);
  31      =1  
  32      =1  extern int strlen (char *);
  33      =1  
  34      =1  extern char *strchr (const char *s, char c);
  35      =1  extern int strpos (const char *s, char c);
  36      =1  extern char *strrchr (const char *s, char c);
  37      =1  extern int strrpos (const char *s, char c);
  38      =1  
  39      =1  extern int strspn (char *s, char *set);
  40      =1  extern int strcspn (char *s, char *set);
  41      =1  extern char *strpbrk (char *s, char *set);
  42      =1  extern char *strrpbrk (char *s, char *set);
  43      =1  extern char *strstr  (char *s, char *sub);
  44      =1  extern char *strtok  (char *str, const char *set);
  45      =1  
  46      =1  extern char memcmp (void *s1, void *s2, int n);
  47      =1  extern void *memcpy (void *s1, void *s2, int n);
  48      =1  extern void *memchr (void *s, char val, int n);
  49      =1  extern void *memccpy (void *s1, void *s2, char val, int n);
  50      =1  extern void *memmove (void *s1, void *s2, int n);
  51      =1  extern void *memset  (void *s, char val, int n);
  52      =1  #pragma RESTORE
  53      =1  
  54      =1  #endif
  73          
  74          struct arp_hdr {
C51 COMPILER V8.06   UIP_ARP                                                               03/17/2026 10:18:44 PAGE 44  

  75                  struct uip_eth_hdr ethhdr;
  76                  uint hwtype;
  77                  uint protocol;
  78                  byte hwlen;
  79                  byte protolen;
  80                  uint opcode;
  81                  struct uip_eth_addr shwaddr;
  82                  uint sipaddr[2];
  83                  struct uip_eth_addr dhwaddr;
  84                  uint dipaddr[2]; 
  85          };
  86          
  87          struct ethip_hdr {
  88                  struct uip_eth_hdr ethhdr;
  89                  /* IP header. */
  90                  byte vhl,
  91                  tos,          
  92                  len[2],       
  93                  ipid[2],        
  94                  ipoffset[2],  
  95                  ttl,          
  96                  proto;     
  97                  uint ipchksum;
  98                  uint srcipaddr[2], 
  99                  destipaddr[2];
 100          };
 101          
 102          #define ARP_REQUEST 1
 103          #define ARP_REPLY   2
 104          
 105          #define ARP_HWTYPE_ETH 1
 106          
 107          struct arp_entry {
 108                  uint ipaddr[2];
 109                  struct uip_eth_addr ethaddr;
 110                  byte time;
 111          };
 112          
 113          struct uip_eth_addr xdata uip_ethaddr = {{UIP_ETHADDR0,
 114                                                                                            UIP_ETHADDR1,
 115                                                                                            UIP_ETHADDR2,
 116                                                                                            UIP_ETHADDR3,
 117                                                                                            UIP_ETHADDR4,
 118                                                                                            UIP_ETHADDR5}};
 119          struct uip_eth_addr xdata uip_gatewaymacaddr = {0, 0, 0, 0, 0, 0};
 120          byte xdata uip_getgatewaymacaddrflag = FALSE;
 121          
 122          static struct arp_entry xdata arp_table[UIP_ARPTAB_SIZE];
 123          static uint xdata ipaddr[2];
 124          static byte xdata i, c;
 125          
 126          static byte xdata arptime;
 127          static byte xdata tmpage;
 128          
 129          #define BUF   ((struct arp_hdr *)&uip_buf[0])
 130          #define IPBUF ((struct ethip_hdr *)&uip_buf[0])
 131          
 132          /*-----------------------------------------------------------------------------------*/
 133          /**
 134           * Initialize the ARP module.
 135           *
 136           */
C51 COMPILER V8.06   UIP_ARP                                                               03/17/2026 10:18:44 PAGE 45  

 137          /*-----------------------------------------------------------------------------------*/
 138          void uip_arp_init(void)
 139          {
 140   1              for(i = 0; i < UIP_ARPTAB_SIZE; ++i) {
 141   2                      memset(arp_table[i].ipaddr, 0, 4);
 142   2              }
 143   1      }
 144          
 145          /*-----------------------------------------------------------------------------------*/
 146          /**
 147           * Periodic ARP processing function.
 148           *
 149           * This function performs periodic timer processing in the ARP module
 150           * and should be called at regular intervals. The recommended interval
 151           * is 10 seconds between the calls.
 152           *
 153           */
 154          /*-----------------------------------------------------------------------------------*/
 155          void uip_arp_timer(void)
 156          {
 157   1              struct arp_entry *tabptr;
 158   1      
 159   1              ++arptime;
 160   1              for(i = 0; i < UIP_ARPTAB_SIZE; ++i) {
 161   2                      tabptr = &arp_table[i];
 162   2                      if((tabptr->ipaddr[0] | tabptr->ipaddr[1]) != 0 &&
 163   2                              arptime - tabptr->time >= UIP_ARP_MAXAGE)
 164   2                      {
 165   3                              memset(tabptr->ipaddr, 0, 4);
 166   3                      }
 167   2              }
 168   1      }
 169          
 170          /*-----------------------------------------------------------------------------------*/
 171          
 172          static void uip_arp_update(uint *ipaddr, struct uip_eth_addr *ethaddr)
 173          {
 174   1              register struct arp_entry *tabptr;
 175   1      
 176   1              /* Walk through the ARP mapping table and try to find an entry to
 177   1                 update. If none is found, the IP -> MAC address mapping is
 178   1                 inserted in the ARP table. */
 179   1              for(i = 0; i < UIP_ARPTAB_SIZE; ++i) {
 180   2                      tabptr = &arp_table[i];
 181   2                      /* Only check those entries that are actually in use. */
 182   2                      if(tabptr->ipaddr[0] != 0 && tabptr->ipaddr[1] != 0) {
 183   3                              /* Check if the source IP address of the incoming packet matches
 184   3                                 the IP address in this ARP table entry. */
 185   3                              if(ipaddr[0] == tabptr->ipaddr[0] && ipaddr[1] == tabptr->ipaddr[1]) {
 186   4                                      /* An old entry found, update this and return. */
 187   4                                      memcpy(tabptr->ethaddr.addr, ethaddr->addr, 6);
 188   4                                      tabptr->time = arptime;
 189   4                                      return;
 190   4                              }
 191   3                      }
 192   2              }
 193   1      
 194   1              /* If we get here, no existing ARP table entry was found, so we create one. */
 195   1      
 196   1              /* First, we try to find an unused entry in the ARP table. */
 197   1              for(i = 0; i < UIP_ARPTAB_SIZE; ++i) {
 198   2                      tabptr = &arp_table[i];
C51 COMPILER V8.06   UIP_ARP                                                               03/17/2026 10:18:44 PAGE 46  

 199   2                      if(tabptr->ipaddr[0] == 0 && tabptr->ipaddr[1] == 0) {
 200   3                              break;
 201   3                      }
 202   2              }
 203   1      
 204   1              /* If no unused entry is found, we try to find the oldest entry and throw it away. */
 205   1              if(i == UIP_ARPTAB_SIZE) {
 206   2                      tmpage = 0;
 207   2                      c = 0;
 208   2                      for(i = 0; i < UIP_ARPTAB_SIZE; ++i) {
 209   3                              tabptr = &arp_table[i];
 210   3                              if(arptime - tabptr->time > tmpage) {
 211   4                                      tmpage = arptime - tabptr->time;
 212   4                                      c = i;
 213   4                              }
 214   3                      }
 215   2                      i = c;
 216   2                      tabptr = &arp_table[i];
 217   2              }
 218   1      
 219   1              /* Now, i is the ARP table entry which we will fill with the new information. */
 220   1              memcpy(tabptr->ipaddr, ipaddr, 4);
 221   1              memcpy(tabptr->ethaddr.addr, ethaddr->addr, 6);
 222   1              tabptr->time = arptime;
 223   1      }
 224          
 225          /*-----------------------------------------------------------------------------------*/
 226          /**
 227           * ARP processing for incoming IP packets
 228           *
 229           * This function should be called by the device driver when an IP
 230           * packet has been received. The function will check if the address is
 231           * in the ARP cache, and if so the ARP cache entry will be
 232           * refreshed. If no ARP cache entry was found, a new one is created.
 233           *
 234           * This function expects an IP packet with a prepended Ethernet header
 235           * in the uip_buf[] buffer, and the length of the packet in the global
 236           * variable uip_len.
 237           */
 238          /*-----------------------------------------------------------------------------------*/
 239          void uip_arp_ipin(void)
 240          {
 241   1              /* Only insert/update an entry if the source IP address of the
 242   1                 incoming IP packet comes from a host on the local network. */
 243   1              if((IPBUF->srcipaddr[0] & uip_arp_netmask[0]) != (uip_hostaddr[0] & uip_arp_netmask[0])) {
 244   2              return;
 245   2              }
 246   1              if((IPBUF->srcipaddr[1] & uip_arp_netmask[1]) != (uip_hostaddr[1] & uip_arp_netmask[1])) {
 247   2                  return;
 248   2              }
 249   1              
 250   1              /* had got the gateway mac address and ip address */
 251   1              if (uip_getgatewaymacaddrflag == TRUE)
 252   1              {
 253   2                      /* source ip address is not gateway ip address */
 254   2                      if ((IPBUF->srcipaddr[0]!=uip_arp_draddr[0])||(IPBUF->srcipaddr[1]!=uip_arp_draddr[1]))
 255   2                      {
 256   3                              /* source mac address is equal to gateway mac address */
 257   3                              if (0 == memcmp(uip_gatewaymacaddr.addr, IPBUF->ethhdr.src.addr, 6))
 258   3                                      return;
 259   3                      }
 260   2              }
C51 COMPILER V8.06   UIP_ARP                                                               03/17/2026 10:18:44 PAGE 47  

 261   1      
 262   1              uip_arp_update(IPBUF->srcipaddr, &(IPBUF->ethhdr.src));
 263   1      
 264   1              return;
 265   1      }
 266          
 267          /*-----------------------------------------------------------------------------------*/
 268          /**
 269           * ARP processing for incoming ARP packets.
 270           *
 271           * This function should be called by the device driver when an ARP
 272           * packet has been received. The function will act differently
 273           * depending on the ARP packet type: if it is a reply for a request
 274           * that we previously sent out, the ARP cache will be filled in with
 275           * the values from the ARP reply. If the incoming ARP packet is an ARP
 276           * request for our IP address, an ARP reply packet is created and put
 277           * into the uip_buf[] buffer.
 278           *
 279           * When the function returns, the value of the global variable uip_len
 280           * indicates whether the device driver should send out a packet or
 281           * not. If uip_len is zero, no packet should be sent. If uip_len is
 282           * non-zero, it contains the length of the outbound packet that is
 283           * present in the uip_buf[] buffer.
 284           *
 285           * This function expects an ARP packet with a prepended Ethernet
 286           * header in the uip_buf[] buffer, and the length of the packet in the
 287           * global variable uip_len.
 288           */
 289          /*-----------------------------------------------------------------------------------*/
 290          void uip_arp_arpin(void)
 291          {
 292   1              register struct arp_entry *tabptr;
 293   1      
 294   1              if(uip_len < sizeof(struct arp_hdr)) {
 295   2                      uip_len = 0;
 296   2                      return;
 297   2              }
 298   1      
 299   1              uip_len = 0;
 300   1      
 301   1              switch(BUF->opcode)
 302   1              {
 303   2                      case HTONS(ARP_REQUEST):
 304   2                              /* ARP request. If it asked for our address, we send out a reply. */
 305   2                          if(BUF->dipaddr[0] == uip_hostaddr[0] && BUF->dipaddr[1] == uip_hostaddr[1]) {
 306   3                                      /* The reply opcode is 2. */
 307   3                                      BUF->opcode = HTONS(2);
 308   3      
 309   3                                      memcpy(BUF->dhwaddr.addr, BUF->shwaddr.addr, 6);
 310   3                                      memcpy(BUF->shwaddr.addr, uip_ethaddr.addr, 6);
 311   3                                      memcpy(BUF->ethhdr.src.addr, uip_ethaddr.addr, 6);
 312   3                                      memcpy(BUF->ethhdr.dest.addr, BUF->dhwaddr.addr, 6);
 313   3      
 314   3                                      BUF->dipaddr[0] = BUF->sipaddr[0];
 315   3                                      BUF->dipaddr[1] = BUF->sipaddr[1];
 316   3                                      BUF->sipaddr[0] = uip_hostaddr[0];
 317   3                                      BUF->sipaddr[1] = uip_hostaddr[1];
 318   3      
 319   3                                      BUF->ethhdr.type = HTONS(UIP_ETHTYPE_ARP);
 320   3                                      uip_len = sizeof(struct arp_hdr);
 321   3                              }
 322   2                              break;
C51 COMPILER V8.06   UIP_ARP                                                               03/17/2026 10:18:44 PAGE 48  

 323   2      
 324   2                      case HTONS(ARP_REPLY):
 325   2                              /* ARP reply. We insert or update the ARP table if it was meant for us. */
 326   2                              if(BUF->dipaddr[0] == uip_hostaddr[0] && BUF->dipaddr[1] == uip_hostaddr[1]) {
 327   3                                      if (uip_getgatewaymacaddrflag == FALSE) /* get gateway mac address */
 328   3                                      {
 329   4                                              if ((uip_arp_draddr[0] == BUF->sipaddr[0]) && (uip_arp_draddr[1] == BUF->sipaddr[1]))
 330   4                                              {
 331   5                                                      uip_getgatewaymacaddrflag = TRUE;
 332   5                                                      memcpy(uip_gatewaymacaddr.addr, BUF->shwaddr.addr, 6);
 333   5      
 334   5                                                      for(i = 0; i < UIP_ARPTAB_SIZE; ++i)
 335   5                                                      {
 336   6                                                              tabptr = &arp_table[i];
 337   6                                                              /* Only check those entries that are actually in use. */
 338   6                                                              if(tabptr->ipaddr[0] != 0 && tabptr->ipaddr[1] != 0)
 339   6                                                              {
 340   7                                                                      if (0 == memcmp(uip_gatewaymacaddr.addr, tabptr->ethaddr.addr, 6))
 341   7                                                                      {
 342   8                                                                              if ((uip_arp_draddr[0] != tabptr->ipaddr[0]) || (uip_arp_draddr[1]) != tabptr->ipaddr[1])
 343   8                                                                              {
 344   9                                                                                      tabptr->ipaddr[0] = 0;
 345   9                                                                                      tabptr->ipaddr[1] = 0;
 346   9                                                                              }
 347   8                                                                      }
 348   7                                                              }
 349   6                                                      }
 350   5                                              }
 351   4                                      }
 352   3                                      uip_arp_update(BUF->sipaddr, &BUF->shwaddr);
 353   3                              }
 354   2                              break;
 355   2                      default:
 356   2                              break;
 357   2              }
 358   1      
 359   1              return;
 360   1      }
 361          
 362          /*-----------------------------------------------------------------------------------*/
 363          /**
 364           * Prepend Ethernet header to an outbound IP packet and see if we need
 365           * to send out an ARP request.
 366           *
 367           * This function should be called before sending out an IP packet. The
 368           * function checks the destination IP address of the IP packet to see
 369           * what Ethernet MAC address that should be used as a destination MAC
 370           * address on the Ethernet.
 371           *
 372           * If the destination IP address is in the local network (determined
 373           * by logical ANDing of netmask and our IP address), the function
 374           * checks the ARP cache to see if an entry for the destination IP
 375           * address is found. If so, an Ethernet header is prepended and the
 376           * function returns. If no ARP cache entry is found for the
 377           * destination IP address, the packet in the uip_buf[] is replaced by
 378           * an ARP request packet for the IP address. The IP packet is dropped
 379           * and it is assumed that they higher level protocols (e.g., TCP)
 380           * eventually will retransmit the dropped packet.
 381           *
 382           * If the destination IP address is not on the local network, the IP
 383           * address of the default router is used instead.
 384           *
C51 COMPILER V8.06   UIP_ARP                                                               03/17/2026 10:18:44 PAGE 49  

 385           * When the function returns, a packet is present in the uip_buf[]
 386           * buffer, and the length of the packet is in the global variable
 387           * uip_len.
 388           */
 389          /*-----------------------------------------------------------------------------------*/
 390          void uip_arp_out(void)
 391          {
 392   1              struct arp_entry *tabptr;
 393   1              /* Find the destination IP address in the ARP table and construct
 394   1                 the Ethernet header. If the destination IP addres isn't on the
 395   1                 local network, we use the default router's IP address instead.
 396   1      
 397   1                 If not ARP table entry is found, we overwrite the original IP
 398   1                 packet with an ARP request for the IP address. */
 399   1      
 400   1              if (IPBUF->destipaddr[0] == 0xffff)
 401   1              {
 402   2                      memset(BUF->ethhdr.dest.addr, 0xff, 6);
 403   2              }
 404   1              else if (IPBUF->destipaddr[0] > 0xe000)
 405   1              {
 406   2                      BUF->ethhdr.dest.addr[0] = 1;
 407   2                      BUF->ethhdr.dest.addr[1] = 0;
 408   2                      BUF->ethhdr.dest.addr[2] = 0x5e;
 409   2                      BUF->ethhdr.dest.addr[3] = (byte)IPBUF->destipaddr[0] & 0x7f;
 410   2                      BUF->ethhdr.dest.addr[4] = (byte)(IPBUF->destipaddr[1] >> 8);
 411   2                      BUF->ethhdr.dest.addr[5] =(byte)IPBUF->destipaddr[1];
 412   2              }
 413   1              else
 414   1              {
 415   2                      /* Check if the destination address is on the local network. */
 416   2                      if((IPBUF->destipaddr[0] & uip_arp_netmask[0]) != (uip_hostaddr[0] & uip_arp_netmask[0]) ||
 417   2                              (IPBUF->destipaddr[1] & uip_arp_netmask[1]) != (uip_hostaddr[1] & uip_arp_netmask[1])) 
 418   2                      {
 419   3                              /* Destination address was not on the local network, so we need to
 420   3                                 use the default router's IP address instead of the destination
 421   3                                 address when determining the MAC address. */
 422   3                              ipaddr[0] = uip_arp_draddr[0];
 423   3                              ipaddr[1] = uip_arp_draddr[1];
 424   3                      } else {
 425   3                              /* Else, we use the destination IP address. */
 426   3                              ipaddr[0] = IPBUF->destipaddr[0];
 427   3                              ipaddr[1] = IPBUF->destipaddr[1];
 428   3                      }
 429   2      
 430   2                      /* dest ip address is 0 or local ip address is 0 */
 431   2                      if (((ipaddr[0] == 0) && (ipaddr[1] == 0)) || ((uip_hostaddr[0] == 0) && (uip_hostaddr[1] == 0)))
 432   2                      {
 433   3                              uip_len = 0;
 434   3                              return;
 435   3                      }
 436   2      
 437   2                      for(i = 0; i < UIP_ARPTAB_SIZE; ++i) {
 438   3                              tabptr = &arp_table[i];
 439   3                              if(ipaddr[0] == tabptr->ipaddr[0] && ipaddr[1] == tabptr->ipaddr[1])
 440   3                                      break;
 441   3                      }
 442   2      
 443   2                      if(i == UIP_ARPTAB_SIZE) {
 444   3                              /* The destination address was not in our ARP table, so we
 445   3                                 overwrite the IP packet with an ARP request. */
 446   3                              memset(BUF->ethhdr.dest.addr, 0xff, 6);
C51 COMPILER V8.06   UIP_ARP                                                               03/17/2026 10:18:44 PAGE 50  

 447   3                              memset(BUF->dhwaddr.addr, 0x00, 6);
 448   3                              memcpy(BUF->ethhdr.src.addr, uip_ethaddr.addr, 6);
 449   3                              memcpy(BUF->shwaddr.addr, uip_ethaddr.addr, 6);
 450   3      
 451   3                              BUF->dipaddr[0] = ipaddr[0];
 452   3                              BUF->dipaddr[1] = ipaddr[1];
 453   3                              BUF->sipaddr[0] = uip_hostaddr[0];
 454   3                              BUF->sipaddr[1] = uip_hostaddr[1];
 455   3                              BUF->opcode = HTONS(ARP_REQUEST); /* ARP request. */
 456   3                              BUF->hwtype = HTONS(ARP_HWTYPE_ETH);
 457   3                              BUF->protocol = HTONS(UIP_ETHTYPE_IP);
 458   3                              BUF->hwlen = 6;
 459   3                              BUF->protolen = 4;
 460   3                              BUF->ethhdr.type = HTONS(UIP_ETHTYPE_ARP);
 461   3      
 462   3                              uip_appdata = &uip_buf[40 + TCPIP_EthHeadLen];
 463   3      
 464   3                              uip_len = sizeof(struct arp_hdr);
 465   3                              return;
 466   3                      }
 467   2                      /* Build an ethernet header. */
 468   2                      memcpy(IPBUF->ethhdr.dest.addr, tabptr->ethaddr.addr, 6);
 469   2              }
 470   1      
 471   1              memcpy(IPBUF->ethhdr.src.addr, uip_ethaddr.addr, 6);
 472   1      
 473   1              IPBUF->ethhdr.type = HTONS(UIP_ETHTYPE_IP);
 474   1      
 475   1              uip_len += sizeof(struct uip_eth_hdr);
 476   1      }
 477          
 478          /*-----------------------------------------------------------------------------------*/
 479          /**
 480           * To find the assigned ip address in the uip arp table. If not found, 
 481           * this function return 0xff, or it return the index of uip arp table.
 482           */
 483          /*-----------------------------------------------------------------------------------*/
 484          byte uip_findarptable(uint* ipaddr)
 485          {
 486   1              register struct arp_entry *tabptr;
 487   1      
 488   1              /* Walk through the ARP mapping table and try to find an entry
 489   1                 with the same ip address*/
 490   1              for(i = 0; i < UIP_ARPTAB_SIZE; ++i) {
 491   2                      tabptr = &arp_table[i];
 492   2                      /* Only check those entries that are actually in use. */
 493   2                      if(tabptr->ipaddr[0] != 0 && tabptr->ipaddr[1] != 0) {
 494   3                              /* Check if the source IP address of the incoming packet matches
 495   3                                 the IP address in this ARP table entry. */
 496   3                              if(ipaddr[0] == tabptr->ipaddr[0] && ipaddr[1] == tabptr->ipaddr[1]) {
 497   4                                      /* An old entry found, return the index. */
 498   4                                      return i;
 499   4                              }
 500   3                      }
 501   2              }
 502   1      
 503   1              return 0xff;
 504   1      } /* End of uip_findarptable() */
 505          /*-----------------------------------------------------------------------------------*/
 506          
 507          
 508          /** @} */
C51 COMPILER V8.06   UIP_ARP                                                               03/17/2026 10:18:44 PAGE 51  

 509          /** @} */
C51 COMPILER V8.06   UIP_ARP                                                               03/17/2026 10:18:44 PAGE 52  

ASSEMBLY LISTING OF GENERATED OBJECT CODE


             ; FUNCTION uip_arp_init (BEGIN)
                                           ; SOURCE LINE # 138
                                           ; SOURCE LINE # 139
                                           ; SOURCE LINE # 140
0000 90000000    R     MOV     DPTR,#i
0004 E4                CLR     A
0005 F0                MOVX    @DPTR,A
0006         ?C0001:
0006 90000000    R     MOV     DPTR,#i
000A E0                MOVX    A,@DPTR
000B FF                MOV     R7,A
000C EF                MOV     A,R7
000D C3                CLR     C
000E 9408              SUBB    A,#08H
0010 5034              JNC     ?C0004
                                           ; SOURCE LINE # 141
0012 7E00              MOV     R6,#00H
0014 7F04              MOV     R7,#04H
0016 C006              PUSH    AR6
0018 C007              PUSH    AR7
001A 7D00              MOV     R5,#00H
001C 90000000    R     MOV     DPTR,#i
0020 E0                MOVX    A,@DPTR
0021 FF                MOV     R7,A
0022 7E0B              MOV     R6,#0BH
0024 EF                MOV     A,R7
0025 8EF0              MOV     B,R6
0027 A4                MUL     AB
0028 FF                MOV     R7,A
0029 AEF0              MOV     R6,B
002B 7400        R     MOV     A,#LOW arp_table
002D 2F                ADD     A,R7
002E F9                MOV     R1,A
002F 7400        R     MOV     A,#HIGH arp_table
0031 3E                ADDC    A,R6
0032 FA                MOV     R2,A
0033 7B00        R     MOV     R3,#MBYTE arp_table
0035 D007              POP     AR7
0037 D006              POP     AR6
0039 12000000    E     LCALL   ?C?MEMSET
                                           ; SOURCE LINE # 142
003D         ?C0003:
003D 90000000    R     MOV     DPTR,#i
0041 E0                MOVX    A,@DPTR
0042 04                INC     A
0043 F0                MOVX    @DPTR,A
0044 80C0              SJMP    ?C0001
0046         ?C0002:
                                           ; SOURCE LINE # 143
0046         ?C0004:
0046 22                RET     
             ; FUNCTION uip_arp_init (END)

             ; FUNCTION uip_arp_timer (BEGIN)
                                           ; SOURCE LINE # 155
                                           ; SOURCE LINE # 156
                                           ; SOURCE LINE # 159
0000 90000000    R     MOV     DPTR,#arptime
0004 E0                MOVX    A,@DPTR
C51 COMPILER V8.06   UIP_ARP                                                               03/17/2026 10:18:44 PAGE 53  

0005 04                INC     A
0006 F0                MOVX    @DPTR,A
                                           ; SOURCE LINE # 160
0007 90000000    R     MOV     DPTR,#i
000B E4                CLR     A
000C F0                MOVX    @DPTR,A
000D         ?C0005:
000D 90000000    R     MOV     DPTR,#i
0011 E0                MOVX    A,@DPTR
0012 FF                MOV     R7,A
0013 EF                MOV     A,R7
0014 C3                CLR     C
0015 9408              SUBB    A,#08H
0017 4003              JC      $ + 5H
0019 010000      R     AJMP    ?C0009
                                           ; SOURCE LINE # 161
001C 90000000    R     MOV     DPTR,#i
0020 E0                MOVX    A,@DPTR
0021 FF                MOV     R7,A
0022 7E0B              MOV     R6,#0BH
0024 EF                MOV     A,R7
0025 8EF0              MOV     B,R6
0027 A4                MUL     AB
0028 FF                MOV     R7,A
0029 AEF0              MOV     R6,B
002B 7400        R     MOV     A,#LOW arp_table
002D 2F                ADD     A,R7
002E F9                MOV     R1,A
002F 7400        R     MOV     A,#HIGH arp_table
0031 3E                ADDC    A,R6
0032 FA                MOV     R2,A
0033 7B00        R     MOV     R3,#MBYTE arp_table
0035 90000000    R     MOV     DPTR,#tabptr
0039 EB                MOV     A,R3
003A F0                MOVX    @DPTR,A
003B A3                INC     DPTR
003C EA                MOV     A,R2
003D F0                MOVX    @DPTR,A
003E A3                INC     DPTR
003F E9                MOV     A,R1
0040 F0                MOVX    @DPTR,A
                                           ; SOURCE LINE # 162
0041 90000000    R     MOV     DPTR,#tabptr
0045 E0                MOVX    A,@DPTR
0046 FB                MOV     R3,A
0047 A3                INC     DPTR
0048 E0                MOVX    A,@DPTR
0049 FA                MOV     R2,A
004A A3                INC     DPTR
004B E0                MOVX    A,@DPTR
004C F9                MOV     R1,A
004D E9                MOV     A,R1
004E 2402              ADD     A,#02H
0050 F9                MOV     R1,A
0051 EA                MOV     A,R2
0052 3400              ADDC    A,#00H
0054 FA                MOV     R2,A
0055 12000000    E     LCALL   ?C?ILDPTR
0059 FF                MOV     R7,A
005A AEF0              MOV     R6,B
005C 90000000    R     MOV     DPTR,#tabptr
0060 E0                MOVX    A,@DPTR
C51 COMPILER V8.06   UIP_ARP                                                               03/17/2026 10:18:44 PAGE 54  

0061 FB                MOV     R3,A
0062 A3                INC     DPTR
0063 E0                MOVX    A,@DPTR
0064 FA                MOV     R2,A
0065 A3                INC     DPTR
0066 E0                MOVX    A,@DPTR
0067 F9                MOV     R1,A
0068 12000000    E     LCALL   ?C?ILDPTR
006C FD                MOV     R5,A
006D ACF0              MOV     R4,B
006F EC                MOV     A,R4
0070 4E                ORL     A,R6
0071 FE                MOV     R6,A
0072 ED                MOV     A,R5
0073 4F                ORL     A,R7
0074 FF                MOV     R7,A
0075 EF                MOV     A,R7
0076 4E                ORL     A,R6
0077 603F              JZ      ?C0007
0079 90000000    R     MOV     DPTR,#tabptr
007D E0                MOVX    A,@DPTR
007E FB                MOV     R3,A
007F A3                INC     DPTR
0080 E0                MOVX    A,@DPTR
0081 FA                MOV     R2,A
0082 A3                INC     DPTR
0083 E0                MOVX    A,@DPTR
0084 F9                MOV     R1,A
0085 E9                MOV     A,R1
0086 240A              ADD     A,#0AH
0088 F9                MOV     R1,A
0089 EA                MOV     A,R2
008A 3400              ADDC    A,#00H
008C FA                MOV     R2,A
008D 12000000    E     LCALL   ?C?CLDPTR
0091 FF                MOV     R7,A
0092 90000000    R     MOV     DPTR,#arptime
0096 E0                MOVX    A,@DPTR
0097 FE                MOV     R6,A
0098 C3                CLR     C
0099 EE                MOV     A,R6
009A 9F                SUBB    A,R7
009B FF                MOV     R7,A
009C EF                MOV     A,R7
009D C3                CLR     C
009E 9478              SUBB    A,#078H
00A0 4016              JC      ?C0007
                                           ; SOURCE LINE # 164
                                           ; SOURCE LINE # 165
00A2 7E00              MOV     R6,#00H
00A4 7F04              MOV     R7,#04H
00A6 7D00              MOV     R5,#00H
00A8 90000000    R     MOV     DPTR,#tabptr
00AC E0                MOVX    A,@DPTR
00AD FB                MOV     R3,A
00AE A3                INC     DPTR
00AF E0                MOVX    A,@DPTR
00B0 FA                MOV     R2,A
00B1 A3                INC     DPTR
00B2 E0                MOVX    A,@DPTR
00B3 F9                MOV     R1,A
00B4 12000000    E     LCALL   ?C?MEMSET
C51 COMPILER V8.06   UIP_ARP                                                               03/17/2026 10:18:44 PAGE 55  

                                           ; SOURCE LINE # 166
00B8         ?C0008:
                                           ; SOURCE LINE # 167
00B8         ?C0007:
00B8 90000000    R     MOV     DPTR,#i
00BC E0                MOVX    A,@DPTR
00BD 04                INC     A
00BE F0                MOVX    @DPTR,A
00BF 010000      R     AJMP    ?C0005
00C2         ?C0006:
                                           ; SOURCE LINE # 168
00C2         ?C0009:
00C2 22                RET     
             ; FUNCTION uip_arp_timer (END)

             ; FUNCTION _uip_arp_update (BEGIN)
                                           ; SOURCE LINE # 172
0000 90000000    R     MOV     DPTR,#ipaddr
0004 EB                MOV     A,R3
0005 F0                MOVX    @DPTR,A
0006 A3                INC     DPTR
0007 EA                MOV     A,R2
0008 F0                MOVX    @DPTR,A
0009 A3                INC     DPTR
000A E9                MOV     A,R1
000B F0                MOVX    @DPTR,A
                                           ; SOURCE LINE # 173
                                           ; SOURCE LINE # 179
000C 90000000    R     MOV     DPTR,#i
0010 E4                CLR     A
0011 F0                MOVX    @DPTR,A
0012         ?C0010:
0012 90000000    R     MOV     DPTR,#i
0016 E0                MOVX    A,@DPTR
0017 FF                MOV     R7,A
0018 EF                MOV     A,R7
0019 C3                CLR     C
001A 9408              SUBB    A,#08H
001C 4003              JC      $ + 5H
001E 010000      R     AJMP    ?C0011
                                           ; SOURCE LINE # 180
0021 90000000    R     MOV     DPTR,#i
0025 E0                MOVX    A,@DPTR
0026 FF                MOV     R7,A
0027 7E0B              MOV     R6,#0BH
0029 EF                MOV     A,R7
002A 8EF0              MOV     B,R6
002C A4                MUL     AB
002D FF                MOV     R7,A
002E AEF0              MOV     R6,B
0030 7400        R     MOV     A,#LOW arp_table
0032 2F                ADD     A,R7
0033 F9                MOV     R1,A
0034 7400        R     MOV     A,#HIGH arp_table
0036 3E                ADDC    A,R6
0037 FA                MOV     R2,A
0038 7B00        R     MOV     R3,#MBYTE arp_table
003A 90000000    R     MOV     DPTR,#tabptr
003E EB                MOV     A,R3
003F F0                MOVX    @DPTR,A
0040 A3                INC     DPTR
0041 EA                MOV     A,R2
C51 COMPILER V8.06   UIP_ARP                                                               03/17/2026 10:18:44 PAGE 56  

0042 F0                MOVX    @DPTR,A
0043 A3                INC     DPTR
0044 E9                MOV     A,R1
0045 F0                MOVX    @DPTR,A
                                           ; SOURCE LINE # 182
0046 90000000    R     MOV     DPTR,#tabptr
004A E0                MOVX    A,@DPTR
004B FB                MOV     R3,A
004C A3                INC     DPTR
004D E0                MOVX    A,@DPTR
004E FA                MOV     R2,A
004F A3                INC     DPTR
0050 E0                MOVX    A,@DPTR
0051 F9                MOV     R1,A
0052 12000000    E     LCALL   ?C?ILDPTR
0056 FF                MOV     R7,A
0057 AEF0              MOV     R6,B
0059 EF                MOV     A,R7
005A 4E                ORL     A,R6
005B 7003              JNZ     $ + 5H
005D 010000      R     AJMP    ?C0012
0060 90000000    R     MOV     DPTR,#tabptr
0064 E0                MOVX    A,@DPTR
0065 FB                MOV     R3,A
0066 A3                INC     DPTR
0067 E0                MOVX    A,@DPTR
0068 FA                MOV     R2,A
0069 A3                INC     DPTR
006A E0                MOVX    A,@DPTR
006B F9                MOV     R1,A
006C E9                MOV     A,R1
006D 2402              ADD     A,#02H
006F F9                MOV     R1,A
0070 EA                MOV     A,R2
0071 3400              ADDC    A,#00H
0073 FA                MOV     R2,A
0074 12000000    E     LCALL   ?C?ILDPTR
0078 FF                MOV     R7,A
0079 AEF0              MOV     R6,B
007B EF                MOV     A,R7
007C 4E                ORL     A,R6
007D 7003              JNZ     $ + 5H
007F 010000      R     AJMP    ?C0012
                                           ; SOURCE LINE # 185
0082 90000000    R     MOV     DPTR,#tabptr
0086 E0                MOVX    A,@DPTR
0087 FB                MOV     R3,A
0088 A3                INC     DPTR
0089 E0                MOVX    A,@DPTR
008A FA                MOV     R2,A
008B A3                INC     DPTR
008C E0                MOVX    A,@DPTR
008D F9                MOV     R1,A
008E 12000000    E     LCALL   ?C?ILDPTR
0092 FF                MOV     R7,A
0093 AEF0              MOV     R6,B
0095 90000000    R     MOV     DPTR,#ipaddr
0099 E0                MOVX    A,@DPTR
009A FB                MOV     R3,A
009B A3                INC     DPTR
009C E0                MOVX    A,@DPTR
009D FA                MOV     R2,A
C51 COMPILER V8.06   UIP_ARP                                                               03/17/2026 10:18:44 PAGE 57  

009E A3                INC     DPTR
009F E0                MOVX    A,@DPTR
00A0 F9                MOV     R1,A
00A1 12000000    E     LCALL   ?C?ILDPTR
00A5 FD                MOV     R5,A
00A6 ACF0              MOV     R4,B
00A8 ED                MOV     A,R5
00A9 6F                XRL     A,R7
00AA 7002              JNZ     ?C0071
00AC EC                MOV     A,R4
00AD 6E                XRL     A,R6
00AE         ?C0071:
00AE 6003              JZ      $ + 5H
00B0 010000      R     AJMP    ?C0012
00B3 90000000    R     MOV     DPTR,#tabptr
00B7 E0                MOVX    A,@DPTR
00B8 FB                MOV     R3,A
00B9 A3                INC     DPTR
00BA E0                MOVX    A,@DPTR
00BB FA                MOV     R2,A
00BC A3                INC     DPTR
00BD E0                MOVX    A,@DPTR
00BE F9                MOV     R1,A
00BF E9                MOV     A,R1
00C0 2402              ADD     A,#02H
00C2 F9                MOV     R1,A
00C3 EA                MOV     A,R2
00C4 3400              ADDC    A,#00H
00C6 FA                MOV     R2,A
00C7 12000000    E     LCALL   ?C?ILDPTR
00CB FF                MOV     R7,A
00CC AEF0              MOV     R6,B
00CE 90000000    R     MOV     DPTR,#ipaddr
00D2 E0                MOVX    A,@DPTR
00D3 FB                MOV     R3,A
00D4 A3                INC     DPTR
00D5 E0                MOVX    A,@DPTR
00D6 FA                MOV     R2,A
00D7 A3                INC     DPTR
00D8 E0                MOVX    A,@DPTR
00D9 F9                MOV     R1,A
00DA E9                MOV     A,R1
00DB 2402              ADD     A,#02H
00DD F9                MOV     R1,A
00DE EA                MOV     A,R2
00DF 3400              ADDC    A,#00H
00E1 FA                MOV     R2,A
00E2 12000000    E     LCALL   ?C?ILDPTR
00E6 FD                MOV     R5,A
00E7 ACF0              MOV     R4,B
00E9 ED                MOV     A,R5
00EA B5075E            CJNE    A,AR7,?C0012
00ED EC                MOV     A,R4
00EE B5065A            CJNE    A,AR6,?C0012
                                           ; SOURCE LINE # 187
00F1 90000000    R     MOV     DPTR,#ethaddr
00F5 E0                MOVX    A,@DPTR
00F6 FB                MOV     R3,A
00F7 A3                INC     DPTR
00F8 E0                MOVX    A,@DPTR
00F9 FA                MOV     R2,A
00FA A3                INC     DPTR
C51 COMPILER V8.06   UIP_ARP                                                               03/17/2026 10:18:44 PAGE 58  

00FB E0                MOVX    A,@DPTR
00FC F9                MOV     R1,A
00FD C003              PUSH    AR3
00FF C002              PUSH    AR2
0101 C001              PUSH    AR1
0103 90000000    R     MOV     DPTR,#tabptr
0107 E0                MOVX    A,@DPTR
0108 FB                MOV     R3,A
0109 A3                INC     DPTR
010A E0                MOVX    A,@DPTR
010B FA                MOV     R2,A
010C A3                INC     DPTR
010D E0                MOVX    A,@DPTR
010E F9                MOV     R1,A
010F E9                MOV     A,R1
0110 2404              ADD     A,#04H
0112 F9                MOV     R1,A
0113 EA                MOV     A,R2
0114 3400              ADDC    A,#00H
0116 FA                MOV     R2,A
0117 A801              MOV     R0,AR1
0119 AC02              MOV     R4,AR2
011B AD03              MOV     R5,AR3
011D D001              POP     AR1
011F D002              POP     AR2
0121 D003              POP     AR3
0123 7E00              MOV     R6,#00H
0125 7F06              MOV     R7,#06H
0127 12000000    E     LCALL   ?C?COPY
                                           ; SOURCE LINE # 188
012B 90000000    R     MOV     DPTR,#arptime
012F E0                MOVX    A,@DPTR
0130 FF                MOV     R7,A
0131 90000000    R     MOV     DPTR,#tabptr
0135 E0                MOVX    A,@DPTR
0136 FB                MOV     R3,A
0137 A3                INC     DPTR
0138 E0                MOVX    A,@DPTR
0139 FA                MOV     R2,A
013A A3                INC     DPTR
013B E0                MOVX    A,@DPTR
013C F9                MOV     R1,A
013D E9                MOV     A,R1
013E 240A              ADD     A,#0AH
0140 F9                MOV     R1,A
0141 EA                MOV     A,R2
0142 3400              ADDC    A,#00H
0144 FA                MOV     R2,A
0145 EF                MOV     A,R7
0146 12000000    E     LCALL   ?C?CSTPTR
014A 22                RET     
                                           ; SOURCE LINE # 190
014B         ?C0014:
                                           ; SOURCE LINE # 191
014B         ?C0013:
                                           ; SOURCE LINE # 192
014B         ?C0012:
014B 90000000    R     MOV     DPTR,#i
014F E0                MOVX    A,@DPTR
0150 04                INC     A
0151 F0                MOVX    @DPTR,A
0152 010000      R     AJMP    ?C0010
C51 COMPILER V8.06   UIP_ARP                                                               03/17/2026 10:18:44 PAGE 59  

0155         ?C0011:
                                           ; SOURCE LINE # 197
0155 90000000    R     MOV     DPTR,#i
0159 E4                CLR     A
015A F0                MOVX    @DPTR,A
015B         ?C0016:
015B 90000000    R     MOV     DPTR,#i
015F E0                MOVX    A,@DPTR
0160 FF                MOV     R7,A
0161 EF                MOV     A,R7
0162 C3                CLR     C
0163 9408              SUBB    A,#08H
0165 5064              JNC     ?C0017
                                           ; SOURCE LINE # 198
0167 90000000    R     MOV     DPTR,#i
016B E0                MOVX    A,@DPTR
016C FF                MOV     R7,A
016D 7E0B              MOV     R6,#0BH
016F EF                MOV     A,R7
0170 8EF0              MOV     B,R6
0172 A4                MUL     AB
0173 FF                MOV     R7,A
0174 AEF0              MOV     R6,B
0176 7400        R     MOV     A,#LOW arp_table
0178 2F                ADD     A,R7
0179 F9                MOV     R1,A
017A 7400        R     MOV     A,#HIGH arp_table
017C 3E                ADDC    A,R6
017D FA                MOV     R2,A
017E 7B00        R     MOV     R3,#MBYTE arp_table
0180 90000000    R     MOV     DPTR,#tabptr
0184 EB                MOV     A,R3
0185 F0                MOVX    @DPTR,A
0186 A3                INC     DPTR
0187 EA                MOV     A,R2
0188 F0                MOVX    @DPTR,A
0189 A3                INC     DPTR
018A E9                MOV     A,R1
018B F0                MOVX    @DPTR,A
                                           ; SOURCE LINE # 199
018C 90000000    R     MOV     DPTR,#tabptr
0190 E0                MOVX    A,@DPTR
0191 FB                MOV     R3,A
0192 A3                INC     DPTR
0193 E0                MOVX    A,@DPTR
0194 FA                MOV     R2,A
0195 A3                INC     DPTR
0196 E0                MOVX    A,@DPTR
0197 F9                MOV     R1,A
0198 12000000    E     LCALL   ?C?ILDPTR
019C FF                MOV     R7,A
019D AEF0              MOV     R6,B
019F EF                MOV     A,R7
01A0 4E                ORL     A,R6
01A1 701F              JNZ     ?C0018
01A3 90000000    R     MOV     DPTR,#tabptr
01A7 E0                MOVX    A,@DPTR
01A8 FB                MOV     R3,A
01A9 A3                INC     DPTR
01AA E0                MOVX    A,@DPTR
01AB FA                MOV     R2,A
01AC A3                INC     DPTR
C51 COMPILER V8.06   UIP_ARP                                                               03/17/2026 10:18:44 PAGE 60  

01AD E0                MOVX    A,@DPTR
01AE F9                MOV     R1,A
01AF E9                MOV     A,R1
01B0 2402              ADD     A,#02H
01B2 F9                MOV     R1,A
01B3 EA                MOV     A,R2
01B4 3400              ADDC    A,#00H
01B6 FA                MOV     R2,A
01B7 12000000    E     LCALL   ?C?ILDPTR
01BB FF                MOV     R7,A
01BC AEF0              MOV     R6,B
01BE EF                MOV     A,R7
01BF 4E                ORL     A,R6
01C0 6009              JZ      ?C0017
                                           ; SOURCE LINE # 200
                                           ; SOURCE LINE # 201
01C2         ?C0019:
                                           ; SOURCE LINE # 202
01C2         ?C0018:
01C2 90000000    R     MOV     DPTR,#i
01C6 E0                MOVX    A,@DPTR
01C7 04                INC     A
01C8 F0                MOVX    @DPTR,A
01C9 8090              SJMP    ?C0016
01CB         ?C0017:
                                           ; SOURCE LINE # 205
01CB 90000000    R     MOV     DPTR,#i
01CF E0                MOVX    A,@DPTR
01D0 FF                MOV     R7,A
01D1 EF                MOV     A,R7
01D2 6408              XRL     A,#08H
01D4 6003              JZ      $ + 5H
01D6 010000      R     AJMP    ?C0020
                                           ; SOURCE LINE # 206
01D9 90000000    R     MOV     DPTR,#tmpage
01DD E4                CLR     A
01DE F0                MOVX    @DPTR,A
                                           ; SOURCE LINE # 207
01DF 90000000    R     MOV     DPTR,#c
01E3 E4                CLR     A
01E4 F0                MOVX    @DPTR,A
                                           ; SOURCE LINE # 208
01E5 90000000    R     MOV     DPTR,#i
01E9 E4                CLR     A
01EA F0                MOVX    @DPTR,A
01EB         ?C0021:
01EB 90000000    R     MOV     DPTR,#i
01EF E0                MOVX    A,@DPTR
01F0 FF                MOV     R7,A
01F1 EF                MOV     A,R7
01F2 C3                CLR     C
01F3 9408              SUBB    A,#08H
01F5 4003              JC      $ + 5H
01F7 010000      R     AJMP    ?C0022
                                           ; SOURCE LINE # 209
01FA 90000000    R     MOV     DPTR,#i
01FE E0                MOVX    A,@DPTR
01FF FF                MOV     R7,A
0200 7E0B              MOV     R6,#0BH
0202 EF                MOV     A,R7
0203 8EF0              MOV     B,R6
0205 A4                MUL     AB
C51 COMPILER V8.06   UIP_ARP                                                               03/17/2026 10:18:44 PAGE 61  

0206 FF                MOV     R7,A
0207 AEF0              MOV     R6,B
0209 7400        R     MOV     A,#LOW arp_table
020B 2F                ADD     A,R7
020C F9                MOV     R1,A
020D 7400        R     MOV     A,#HIGH arp_table
020F 3E                ADDC    A,R6
0210 FA                MOV     R2,A
0211 7B00        R     MOV     R3,#MBYTE arp_table
0213 90000000    R     MOV     DPTR,#tabptr
0217 EB                MOV     A,R3
0218 F0                MOVX    @DPTR,A
0219 A3                INC     DPTR
021A EA                MOV     A,R2
021B F0                MOVX    @DPTR,A
021C A3                INC     DPTR
021D E9                MOV     A,R1
021E F0                MOVX    @DPTR,A
                                           ; SOURCE LINE # 210
021F 90000000    R     MOV     DPTR,#tabptr
0223 E0                MOVX    A,@DPTR
0224 FB                MOV     R3,A
0225 A3                INC     DPTR
0226 E0                MOVX    A,@DPTR
0227 FA                MOV     R2,A
0228 A3                INC     DPTR
0229 E0                MOVX    A,@DPTR
022A F9                MOV     R1,A
022B E9                MOV     A,R1
022C 240A              ADD     A,#0AH
022E F9                MOV     R1,A
022F EA                MOV     A,R2
0230 3400              ADDC    A,#00H
0232 FA                MOV     R2,A
0233 12000000    E     LCALL   ?C?CLDPTR
0237 FF                MOV     R7,A
0238 90000000    R     MOV     DPTR,#arptime
023C E0                MOVX    A,@DPTR
023D FE                MOV     R6,A
023E C3                CLR     C
023F EE                MOV     A,R6
0240 9F                SUBB    A,R7
0241 FF                MOV     R7,A
0242 90000000    R     MOV     DPTR,#tmpage
0246 E0                MOVX    A,@DPTR
0247 FE                MOV     R6,A
0248 EF                MOV     A,R7
0249 D3                SETB    C
024A 9E                SUBB    A,R6
024B 4035              JC      ?C0023
                                           ; SOURCE LINE # 211
024D 90000000    R     MOV     DPTR,#tabptr
0251 E0                MOVX    A,@DPTR
0252 FB                MOV     R3,A
0253 A3                INC     DPTR
0254 E0                MOVX    A,@DPTR
0255 FA                MOV     R2,A
0256 A3                INC     DPTR
0257 E0                MOVX    A,@DPTR
0258 F9                MOV     R1,A
0259 E9                MOV     A,R1
025A 240A              ADD     A,#0AH
C51 COMPILER V8.06   UIP_ARP                                                               03/17/2026 10:18:44 PAGE 62  

025C F9                MOV     R1,A
025D EA                MOV     A,R2
025E 3400              ADDC    A,#00H
0260 FA                MOV     R2,A
0261 12000000    E     LCALL   ?C?CLDPTR
0265 FF                MOV     R7,A
0266 90000000    R     MOV     DPTR,#arptime
026A E0                MOVX    A,@DPTR
026B FE                MOV     R6,A
026C C3                CLR     C
026D EE                MOV     A,R6
026E 9F                SUBB    A,R7
026F FF                MOV     R7,A
0270 90000000    R     MOV     DPTR,#tmpage
0274 EF                MOV     A,R7
0275 F0                MOVX    @DPTR,A
                                           ; SOURCE LINE # 212
0276 90000000    R     MOV     DPTR,#i
027A E0                MOVX    A,@DPTR
027B FF                MOV     R7,A
027C 90000000    R     MOV     DPTR,#c
0280 EF                MOV     A,R7
0281 F0                MOVX    @DPTR,A
                                           ; SOURCE LINE # 213
0282         ?C0024:
                                           ; SOURCE LINE # 214
0282         ?C0023:
0282 90000000    R     MOV     DPTR,#i
0286 E0                MOVX    A,@DPTR
0287 04                INC     A
0288 F0                MOVX    @DPTR,A
0289 010000      R     AJMP    ?C0021
028C         ?C0022:
                                           ; SOURCE LINE # 215
028C 90000000    R     MOV     DPTR,#c
0290 E0                MOVX    A,@DPTR
0291 FF                MOV     R7,A
0292 90000000    R     MOV     DPTR,#i
0296 EF                MOV     A,R7
0297 F0                MOVX    @DPTR,A
                                           ; SOURCE LINE # 216
0298 90000000    R     MOV     DPTR,#i
029C E0                MOVX    A,@DPTR
029D FF                MOV     R7,A
029E 7E0B              MOV     R6,#0BH
02A0 EF                MOV     A,R7
02A1 8EF0              MOV     B,R6
02A3 A4                MUL     AB
02A4 FF                MOV     R7,A
02A5 AEF0              MOV     R6,B
02A7 7400        R     MOV     A,#LOW arp_table
02A9 2F                ADD     A,R7
02AA F9                MOV     R1,A
02AB 7400        R     MOV     A,#HIGH arp_table
02AD 3E                ADDC    A,R6
02AE FA                MOV     R2,A
02AF 7B00        R     MOV     R3,#MBYTE arp_table
02B1 90000000    R     MOV     DPTR,#tabptr
02B5 EB                MOV     A,R3
02B6 F0                MOVX    @DPTR,A
02B7 A3                INC     DPTR
02B8 EA                MOV     A,R2
C51 COMPILER V8.06   UIP_ARP                                                               03/17/2026 10:18:44 PAGE 63  

02B9 F0                MOVX    @DPTR,A
02BA A3                INC     DPTR
02BB E9                MOV     A,R1
02BC F0                MOVX    @DPTR,A
                                           ; SOURCE LINE # 217
02BD         ?C0020:
                                           ; SOURCE LINE # 220
02BD 90000000    R     MOV     DPTR,#ipaddr
02C1 E0                MOVX    A,@DPTR
02C2 FB                MOV     R3,A
02C3 A3                INC     DPTR
02C4 E0                MOVX    A,@DPTR
02C5 FA                MOV     R2,A
02C6 A3                INC     DPTR
02C7 E0                MOVX    A,@DPTR
02C8 F9                MOV     R1,A
02C9 C003              PUSH    AR3
02CB C002              PUSH    AR2
02CD C001              PUSH    AR1
02CF 90000000    R     MOV     DPTR,#tabptr
02D3 E0                MOVX    A,@DPTR
02D4 FB                MOV     R3,A
02D5 A3                INC     DPTR
02D6 E0                MOVX    A,@DPTR
02D7 FA                MOV     R2,A
02D8 A3                INC     DPTR
02D9 E0                MOVX    A,@DPTR
02DA F9                MOV     R1,A
02DB A801              MOV     R0,AR1
02DD AC02              MOV     R4,AR2
02DF AD03              MOV     R5,AR3
02E1 D001              POP     AR1
02E3 D002              POP     AR2
02E5 D003              POP     AR3
02E7 7E00              MOV     R6,#00H
02E9 7F04              MOV     R7,#04H
02EB 12000000    E     LCALL   ?C?COPY
                                           ; SOURCE LINE # 221
02EF 90000000    R     MOV     DPTR,#ethaddr
02F3 E0                MOVX    A,@DPTR
02F4 FB                MOV     R3,A
02F5 A3                INC     DPTR
02F6 E0                MOVX    A,@DPTR
02F7 FA                MOV     R2,A
02F8 A3                INC     DPTR
02F9 E0                MOVX    A,@DPTR
02FA F9                MOV     R1,A
02FB C003              PUSH    AR3
02FD C002              PUSH    AR2
02FF C001              PUSH    AR1
0301 90000000    R     MOV     DPTR,#tabptr
0305 E0                MOVX    A,@DPTR
0306 FB                MOV     R3,A
0307 A3                INC     DPTR
0308 E0                MOVX    A,@DPTR
0309 FA                MOV     R2,A
030A A3                INC     DPTR
030B E0                MOVX    A,@DPTR
030C F9                MOV     R1,A
030D E9                MOV     A,R1
030E 2404              ADD     A,#04H
0310 F9                MOV     R1,A
C51 COMPILER V8.06   UIP_ARP                                                               03/17/2026 10:18:44 PAGE 64  

0311 EA                MOV     A,R2
0312 3400              ADDC    A,#00H
0314 FA                MOV     R2,A
0315 A801              MOV     R0,AR1
0317 AC02              MOV     R4,AR2
0319 AD03              MOV     R5,AR3
031B D001              POP     AR1
031D D002              POP     AR2
031F D003              POP     AR3
0321 7E00              MOV     R6,#00H
0323 7F06              MOV     R7,#06H
0325 12000000    E     LCALL   ?C?COPY
                                           ; SOURCE LINE # 222
0329 90000000    R     MOV     DPTR,#arptime
032D E0                MOVX    A,@DPTR
032E FF                MOV     R7,A
032F 90000000    R     MOV     DPTR,#tabptr
0333 E0                MOVX    A,@DPTR
0334 FB                MOV     R3,A
0335 A3                INC     DPTR
0336 E0                MOVX    A,@DPTR
0337 FA                MOV     R2,A
0338 A3                INC     DPTR
0339 E0                MOVX    A,@DPTR
033A F9                MOV     R1,A
033B E9                MOV     A,R1
033C 240A              ADD     A,#0AH
033E F9                MOV     R1,A
033F EA                MOV     A,R2
0340 3400              ADDC    A,#00H
0342 FA                MOV     R2,A
0343 EF                MOV     A,R7
0344 12000000    E     LCALL   ?C?CSTPTR
                                           ; SOURCE LINE # 223
0348         ?C0015:
0348 22                RET     
             ; FUNCTION _uip_arp_update (END)

             ; FUNCTION uip_arp_ipin (BEGIN)
                                           ; SOURCE LINE # 239
                                           ; SOURCE LINE # 240
                                           ; SOURCE LINE # 243
0000 7800        E     MOV     R0,#LOW uip_arp_netmask
0002 E6                MOV     A,@R0
0003 FE                MOV     R6,A
0004 08                INC     R0
0005 E6                MOV     A,@R0
0006 FF                MOV     R7,A
0007 7800        E     MOV     R0,#LOW uip_hostaddr
0009 E6                MOV     A,@R0
000A FC                MOV     R4,A
000B 08                INC     R0
000C E6                MOV     A,@R0
000D FD                MOV     R5,A
000E EC                MOV     A,R4
000F 5E                ANL     A,R6
0010 FE                MOV     R6,A
0011 ED                MOV     A,R5
0012 5F                ANL     A,R7
0013 FF                MOV     R7,A
0014 7800        E     MOV     R0,#LOW uip_arp_netmask
0016 E6                MOV     A,@R0
C51 COMPILER V8.06   UIP_ARP                                                               03/17/2026 10:18:44 PAGE 65  

0017 FC                MOV     R4,A
0018 08                INC     R0
0019 E6                MOV     A,@R0
001A FD                MOV     R5,A
001B 90000000    E     MOV     DPTR,#uip_buf+01AH
001F E0                MOVX    A,@DPTR
0020 FA                MOV     R2,A
0021 A3                INC     DPTR
0022 E0                MOVX    A,@DPTR
0023 FB                MOV     R3,A
0024 EA                MOV     A,R2
0025 5C                ANL     A,R4
0026 FC                MOV     R4,A
0027 EB                MOV     A,R3
0028 5D                ANL     A,R5
0029 FD                MOV     R5,A
002A ED                MOV     A,R5
002B 6F                XRL     A,R7
002C 7002              JNZ     ?C0073
002E EC                MOV     A,R4
002F 6E                XRL     A,R6
0030         ?C0073:
0030 6003              JZ      $ + 5H
0032 010000      R     AJMP    ?C0026
                                           ; SOURCE LINE # 245
0035         ?C0025:
                                           ; SOURCE LINE # 246
0035 7800        E     MOV     R0,#LOW uip_arp_netmask+02H
0037 E6                MOV     A,@R0
0038 FE                MOV     R6,A
0039 08                INC     R0
003A E6                MOV     A,@R0
003B FF                MOV     R7,A
003C 7800        E     MOV     R0,#LOW uip_hostaddr+02H
003E E6                MOV     A,@R0
003F FC                MOV     R4,A
0040 08                INC     R0
0041 E6                MOV     A,@R0
0042 FD                MOV     R5,A
0043 EC                MOV     A,R4
0044 5E                ANL     A,R6
0045 FE                MOV     R6,A
0046 ED                MOV     A,R5
0047 5F                ANL     A,R7
0048 FF                MOV     R7,A
0049 7800        E     MOV     R0,#LOW uip_arp_netmask+02H
004B E6                MOV     A,@R0
004C FC                MOV     R4,A
004D 08                INC     R0
004E E6                MOV     A,@R0
004F FD                MOV     R5,A
0050 90000000    E     MOV     DPTR,#uip_buf+01CH
0054 E0                MOVX    A,@DPTR
0055 FA                MOV     R2,A
0056 A3                INC     DPTR
0057 E0                MOVX    A,@DPTR
0058 FB                MOV     R3,A
0059 EA                MOV     A,R2
005A 5C                ANL     A,R4
005B FC                MOV     R4,A
005C EB                MOV     A,R3
005D 5D                ANL     A,R5
C51 COMPILER V8.06   UIP_ARP                                                               03/17/2026 10:18:44 PAGE 66  

005E FD                MOV     R5,A
005F ED                MOV     A,R5
0060 6F                XRL     A,R7
0061 7002              JNZ     ?C0074
0063 EC                MOV     A,R4
0064 6E                XRL     A,R6
0065         ?C0074:
0065 6003              JZ      $ + 5H
0067 010000      R     AJMP    ?C0026
                                           ; SOURCE LINE # 248
006A         ?C0027:
                                           ; SOURCE LINE # 251
006A 90000000    R     MOV     DPTR,#uip_getgatewaymacaddrflag
006E E0                MOVX    A,@DPTR
006F FF                MOV     R7,A
0070 EF                MOV     A,R7
0071 6401              XRL     A,#01H
0073 7059              JNZ     ?C0028
                                           ; SOURCE LINE # 252
                                           ; SOURCE LINE # 254
0075 7800        E     MOV     R0,#LOW uip_arp_draddr
0077 E6                MOV     A,@R0
0078 FE                MOV     R6,A
0079 08                INC     R0
007A E6                MOV     A,@R0
007B FF                MOV     R7,A
007C 90000000    E     MOV     DPTR,#uip_buf+01AH
0080 E0                MOVX    A,@DPTR
0081 FC                MOV     R4,A
0082 A3                INC     DPTR
0083 E0                MOVX    A,@DPTR
0084 FD                MOV     R5,A
0085 ED                MOV     A,R5
0086 B5071C            CJNE    A,AR7,?C0030
0089 EC                MOV     A,R4
008A B50618            CJNE    A,AR6,?C0030
008D 7800        E     MOV     R0,#LOW uip_arp_draddr+02H
008F E6                MOV     A,@R0
0090 FE                MOV     R6,A
0091 08                INC     R0
0092 E6                MOV     A,@R0
0093 FF                MOV     R7,A
0094 90000000    E     MOV     DPTR,#uip_buf+01CH
0098 E0                MOVX    A,@DPTR
0099 FC                MOV     R4,A
009A A3                INC     DPTR
009B E0                MOVX    A,@DPTR
009C FD                MOV     R5,A
009D ED                MOV     A,R5
009E 6F                XRL     A,R7
009F 7002              JNZ     ?C0076
00A1 EC                MOV     A,R4
00A2 6E                XRL     A,R6
00A3         ?C0076:
00A3 6029              JZ      ?C0028
00A5         ?C0030:
                                           ; SOURCE LINE # 255
                                           ; SOURCE LINE # 257
00A5 7B00        E     MOV     R3,#MBYTE uip_buf
00A7 7A00        E     MOV     R2,#HIGH uip_buf+06H
00A9 7900        E     MOV     R1,#LOW uip_buf+06H
00AB C003              PUSH    AR3
C51 COMPILER V8.06   UIP_ARP                                                               03/17/2026 10:18:44 PAGE 67  

00AD C002              PUSH    AR2
00AF C001              PUSH    AR1
00B1 7B00        R     MOV     R3,#MBYTE uip_gatewaymacaddr
00B3 7A00        R     MOV     R2,#HIGH uip_gatewaymacaddr
00B5 7900        R     MOV     R1,#LOW uip_gatewaymacaddr
00B7 A801              MOV     R0,AR1
00B9 AC02              MOV     R4,AR2
00BB AD03              MOV     R5,AR3
00BD D001              POP     AR1
00BF D002              POP     AR2
00C1 D003              POP     AR3
00C3 7E00              MOV     R6,#00H
00C5 7F06              MOV     R7,#06H
00C7 12000000    E     LCALL   ?C?MEMCMP
00CB EF                MOV     A,R7
00CC 6028              JZ      ?C0026
00CE         ?C0031:
                                           ; SOURCE LINE # 259
00CE         ?C0029:
                                           ; SOURCE LINE # 260
00CE         ?C0028:
                                           ; SOURCE LINE # 262
00CE 7B00        E     MOV     R3,#MBYTE uip_buf
00D0 7A00        E     MOV     R2,#HIGH uip_buf+01AH
00D2 7900        E     MOV     R1,#LOW uip_buf+01AH
00D4 C003              PUSH    AR3
00D6 C002              PUSH    AR2
00D8 C001              PUSH    AR1
00DA 7B00        E     MOV     R3,#MBYTE uip_buf
00DC 7A00        E     MOV     R2,#HIGH uip_buf+06H
00DE 7900        E     MOV     R1,#LOW uip_buf+06H
00E0 90000000    R     MOV     DPTR,#?_uip_arp_update?BYTE+03H
00E4 EB                MOV     A,R3
00E5 F0                MOVX    @DPTR,A
00E6 A3                INC     DPTR
00E7 EA                MOV     A,R2
00E8 F0                MOVX    @DPTR,A
00E9 A3                INC     DPTR
00EA E9                MOV     A,R1
00EB F0                MOVX    @DPTR,A
00EC D001              POP     AR1
00EE D002              POP     AR2
00F0 D003              POP     AR3
00F2 12000000    R     LCALL   _uip_arp_update
                                           ; SOURCE LINE # 265
00F6         ?C0026:
00F6 22                RET     
             ; FUNCTION uip_arp_ipin (END)

             ; FUNCTION uip_arp_arpin (BEGIN)
                                           ; SOURCE LINE # 290
                                           ; SOURCE LINE # 291
                                           ; SOURCE LINE # 294
0000 7800        E     MOV     R0,#LOW uip_len
0002 E6                MOV     A,@R0
0003 FE                MOV     R6,A
0004 08                INC     R0
0005 E6                MOV     A,@R0
0006 FF                MOV     R7,A
0007 C3                CLR     C
0008 EF                MOV     A,R7
0009 942A              SUBB    A,#02AH
C51 COMPILER V8.06   UIP_ARP                                                               03/17/2026 10:18:44 PAGE 68  

000B EE                MOV     A,R6
000C 9400              SUBB    A,#00H
000E 5008              JNC     ?C0032
                                           ; SOURCE LINE # 295
0010 7800        E     MOV     R0,#LOW uip_len
0012 7600              MOV     @R0,#00H
0014 08                INC     R0
0015 7600              MOV     @R0,#00H
0017 22                RET     
                                           ; SOURCE LINE # 297
0018         ?C0032:
                                           ; SOURCE LINE # 299
0018 7800        E     MOV     R0,#LOW uip_len
001A 7600              MOV     @R0,#00H
001C 08                INC     R0
001D 7600              MOV     @R0,#00H
                                           ; SOURCE LINE # 301
001F 90000000    E     MOV     DPTR,#uip_buf+014H
0023 E0                MOVX    A,@DPTR
0024 FE                MOV     R6,A
0025 A3                INC     DPTR
0026 E0                MOVX    A,@DPTR
0027 FF                MOV     R7,A
0028 EF                MOV     A,R7
0029 8EF0              MOV     B,R6
002B 12000000    E     LCALL   ?C?ICASE
002F 0000        R     DW      ?C0035
0031 0001              DW      01H
0033 0000        R     DW      ?C0037
0035 0002              DW      02H
0037 0000              DW      00H
0039 0000        R     DW      ?C0033
                                           ; SOURCE LINE # 302
                                           ; SOURCE LINE # 303
003B         ?C0035:
                                           ; SOURCE LINE # 305
003B 7800        E     MOV     R0,#LOW uip_hostaddr
003D E6                MOV     A,@R0
003E FE                MOV     R6,A
003F 08                INC     R0
0040 E6                MOV     A,@R0
0041 FF                MOV     R7,A
0042 90000000    E     MOV     DPTR,#uip_buf+026H
0046 E0                MOVX    A,@DPTR
0047 FC                MOV     R4,A
0048 A3                INC     DPTR
0049 E0                MOVX    A,@DPTR
004A FD                MOV     R5,A
004B ED                MOV     A,R5
004C 6F                XRL     A,R7
004D 7002              JNZ     ?C0077
004F EC                MOV     A,R4
0050 6E                XRL     A,R6
0051         ?C0077:
0051 6003              JZ      $ + 5H
0053 010000      R     AJMP    ?C0033
0056 7800        E     MOV     R0,#LOW uip_hostaddr+02H
0058 E6                MOV     A,@R0
0059 FE                MOV     R6,A
005A 08                INC     R0
005B E6                MOV     A,@R0
005C FF                MOV     R7,A
C51 COMPILER V8.06   UIP_ARP                                                               03/17/2026 10:18:44 PAGE 69  

005D 90000000    E     MOV     DPTR,#uip_buf+028H
0061 E0                MOVX    A,@DPTR
0062 FC                MOV     R4,A
0063 A3                INC     DPTR
0064 E0                MOVX    A,@DPTR
0065 FD                MOV     R5,A
0066 ED                MOV     A,R5
0067 6F                XRL     A,R7
0068 7002              JNZ     ?C0078
006A EC                MOV     A,R4
006B 6E                XRL     A,R6
006C         ?C0078:
006C 6003              JZ      $ + 5H
006E 010000      R     AJMP    ?C0033
                                           ; SOURCE LINE # 307
0071 90000000    E     MOV     DPTR,#uip_buf+014H
0075 E4                CLR     A
0076 F0                MOVX    @DPTR,A
0077 A3                INC     DPTR
0078 7402              MOV     A,#02H
007A F0                MOVX    @DPTR,A
                                           ; SOURCE LINE # 309
007B 7B00        E     MOV     R3,#MBYTE uip_buf
007D 7A00        E     MOV     R2,#HIGH uip_buf+016H
007F 7900        E     MOV     R1,#LOW uip_buf+016H
0081 C003              PUSH    AR3
0083 C002              PUSH    AR2
0085 C001              PUSH    AR1
0087 7B00        E     MOV     R3,#MBYTE uip_buf
0089 7A00        E     MOV     R2,#HIGH uip_buf+020H
008B 7900        E     MOV     R1,#LOW uip_buf+020H
008D A801              MOV     R0,AR1
008F AC02              MOV     R4,AR2
0091 AD03              MOV     R5,AR3
0093 D001              POP     AR1
0095 D002              POP     AR2
0097 D003              POP     AR3
0099 7E00              MOV     R6,#00H
009B 7F06              MOV     R7,#06H
009D 12000000    E     LCALL   ?C?COPY
                                           ; SOURCE LINE # 310
00A1 7B00        R     MOV     R3,#MBYTE uip_ethaddr
00A3 7A00        R     MOV     R2,#HIGH uip_ethaddr
00A5 7900        R     MOV     R1,#LOW uip_ethaddr
00A7 C003              PUSH    AR3
00A9 C002              PUSH    AR2
00AB C001              PUSH    AR1
00AD 7B00        E     MOV     R3,#MBYTE uip_buf
00AF 7A00        E     MOV     R2,#HIGH uip_buf+016H
00B1 7900        E     MOV     R1,#LOW uip_buf+016H
00B3 A801              MOV     R0,AR1
00B5 AC02              MOV     R4,AR2
00B7 AD03              MOV     R5,AR3
00B9 D001              POP     AR1
00BB D002              POP     AR2
00BD D003              POP     AR3
00BF 7E00              MOV     R6,#00H
00C1 7F06              MOV     R7,#06H
00C3 12000000    E     LCALL   ?C?COPY
                                           ; SOURCE LINE # 311
00C7 7B00        R     MOV     R3,#MBYTE uip_ethaddr
00C9 7A00        R     MOV     R2,#HIGH uip_ethaddr
C51 COMPILER V8.06   UIP_ARP                                                               03/17/2026 10:18:44 PAGE 70  

00CB 7900        R     MOV     R1,#LOW uip_ethaddr
00CD C003              PUSH    AR3
00CF C002              PUSH    AR2
00D1 C001              PUSH    AR1
00D3 7B00        E     MOV     R3,#MBYTE uip_buf
00D5 7A00        E     MOV     R2,#HIGH uip_buf+06H
00D7 7900        E     MOV     R1,#LOW uip_buf+06H
00D9 A801              MOV     R0,AR1
00DB AC02              MOV     R4,AR2
00DD AD03              MOV     R5,AR3
00DF D001              POP     AR1
00E1 D002              POP     AR2
00E3 D003              POP     AR3
00E5 7E00              MOV     R6,#00H
00E7 7F06              MOV     R7,#06H
00E9 12000000    E     LCALL   ?C?COPY
                                           ; SOURCE LINE # 312
00ED 7B00        E     MOV     R3,#MBYTE uip_buf
00EF 7A00        E     MOV     R2,#HIGH uip_buf+020H
00F1 7900        E     MOV     R1,#LOW uip_buf+020H
00F3 C003              PUSH    AR3
00F5 C002              PUSH    AR2
00F7 C001              PUSH    AR1
00F9 7B00        E     MOV     R3,#MBYTE uip_buf
00FB 7A00        E     MOV     R2,#HIGH uip_buf
00FD 7900        E     MOV     R1,#LOW uip_buf
00FF A801              MOV     R0,AR1
0101 AC02              MOV     R4,AR2
0103 AD03              MOV     R5,AR3
0105 D001              POP     AR1
0107 D002              POP     AR2
0109 D003              POP     AR3
010B 7E00              MOV     R6,#00H
010D 7F06              MOV     R7,#06H
010F 12000000    E     LCALL   ?C?COPY
                                           ; SOURCE LINE # 314
0113 90000000    E     MOV     DPTR,#uip_buf+01CH
0117 E0                MOVX    A,@DPTR
0118 FE                MOV     R6,A
0119 A3                INC     DPTR
011A E0                MOVX    A,@DPTR
011B FF                MOV     R7,A
011C 90000000    E     MOV     DPTR,#uip_buf+026H
0120 EE                MOV     A,R6
0121 F0                MOVX    @DPTR,A
0122 A3                INC     DPTR
0123 EF                MOV     A,R7
0124 F0                MOVX    @DPTR,A
                                           ; SOURCE LINE # 315
0125 90000000    E     MOV     DPTR,#uip_buf+01EH
0129 E0                MOVX    A,@DPTR
012A FE                MOV     R6,A
012B A3                INC     DPTR
012C E0                MOVX    A,@DPTR
012D FF                MOV     R7,A
012E 90000000    E     MOV     DPTR,#uip_buf+028H
0132 EE                MOV     A,R6
0133 F0                MOVX    @DPTR,A
0134 A3                INC     DPTR
0135 EF                MOV     A,R7
0136 F0                MOVX    @DPTR,A
                                           ; SOURCE LINE # 316
C51 COMPILER V8.06   UIP_ARP                                                               03/17/2026 10:18:44 PAGE 71  

0137 7800        E     MOV     R0,#LOW uip_hostaddr
0139 E6                MOV     A,@R0
013A FE                MOV     R6,A
013B 08                INC     R0
013C E6                MOV     A,@R0
013D FF                MOV     R7,A
013E 90000000    E     MOV     DPTR,#uip_buf+01CH
0142 EE                MOV     A,R6
0143 F0                MOVX    @DPTR,A
0144 A3                INC     DPTR
0145 EF                MOV     A,R7
0146 F0                MOVX    @DPTR,A
                                           ; SOURCE LINE # 317
0147 7800        E     MOV     R0,#LOW uip_hostaddr+02H
0149 E6                MOV     A,@R0
014A FE                MOV     R6,A
014B 08                INC     R0
014C E6                MOV     A,@R0
014D FF                MOV     R7,A
014E 90000000    E     MOV     DPTR,#uip_buf+01EH
0152 EE                MOV     A,R6
0153 F0                MOVX    @DPTR,A
0154 A3                INC     DPTR
0155 EF                MOV     A,R7
0156 F0                MOVX    @DPTR,A
                                           ; SOURCE LINE # 319
0157 90000000    E     MOV     DPTR,#uip_buf+0CH
015B 7408              MOV     A,#08H
015D F0                MOVX    @DPTR,A
015E A3                INC     DPTR
015F 7406              MOV     A,#06H
0161 F0                MOVX    @DPTR,A
                                           ; SOURCE LINE # 320
0162 7800        E     MOV     R0,#LOW uip_len
0164 7600              MOV     @R0,#00H
0166 08                INC     R0
0167 762A              MOV     @R0,#02AH
                                           ; SOURCE LINE # 321
0169         ?C0036:
                                           ; SOURCE LINE # 322
0169 22                RET     
                                           ; SOURCE LINE # 324
016A         ?C0037:
                                           ; SOURCE LINE # 326
016A 7800        E     MOV     R0,#LOW uip_hostaddr
016C E6                MOV     A,@R0
016D FE                MOV     R6,A
016E 08                INC     R0
016F E6                MOV     A,@R0
0170 FF                MOV     R7,A
0171 90000000    E     MOV     DPTR,#uip_buf+026H
0175 E0                MOVX    A,@DPTR
0176 FC                MOV     R4,A
0177 A3                INC     DPTR
0178 E0                MOVX    A,@DPTR
0179 FD                MOV     R5,A
017A ED                MOV     A,R5
017B 6F                XRL     A,R7
017C 7002              JNZ     ?C0079
017E EC                MOV     A,R4
017F 6E                XRL     A,R6
0180         ?C0079:
C51 COMPILER V8.06   UIP_ARP                                                               03/17/2026 10:18:44 PAGE 72  

0180 6003              JZ      $ + 5H
0182 010000      R     AJMP    ?C0033
0185 7800        E     MOV     R0,#LOW uip_hostaddr+02H
0187 E6                MOV     A,@R0
0188 FE                MOV     R6,A
0189 08                INC     R0
018A E6                MOV     A,@R0
018B FF                MOV     R7,A
018C 90000000    E     MOV     DPTR,#uip_buf+028H
0190 E0                MOVX    A,@DPTR
0191 FC                MOV     R4,A
0192 A3                INC     DPTR
0193 E0                MOVX    A,@DPTR
0194 FD                MOV     R5,A
0195 ED                MOV     A,R5
0196 6F                XRL     A,R7
0197 7002              JNZ     ?C0080
0199 EC                MOV     A,R4
019A 6E                XRL     A,R6
019B         ?C0080:
019B 6003              JZ      $ + 5H
019D 010000      R     AJMP    ?C0033
                                           ; SOURCE LINE # 327
01A0 90000000    R     MOV     DPTR,#uip_getgatewaymacaddrflag
01A4 E0                MOVX    A,@DPTR
01A5 FF                MOV     R7,A
01A6 EF                MOV     A,R7
01A7 6003              JZ      $ + 5H
01A9 010000      R     AJMP    ?C0039
                                           ; SOURCE LINE # 328
                                           ; SOURCE LINE # 329
01AC 90000000    E     MOV     DPTR,#uip_buf+01CH
01B0 E0                MOVX    A,@DPTR
01B1 FE                MOV     R6,A
01B2 A3                INC     DPTR
01B3 E0                MOVX    A,@DPTR
01B4 FF                MOV     R7,A
01B5 7800        E     MOV     R0,#LOW uip_arp_draddr
01B7 E6                MOV     A,@R0
01B8 FC                MOV     R4,A
01B9 08                INC     R0
01BA E6                MOV     A,@R0
01BB FD                MOV     R5,A
01BC ED                MOV     A,R5
01BD 6F                XRL     A,R7
01BE 7002              JNZ     ?C0081
01C0 EC                MOV     A,R4
01C1 6E                XRL     A,R6
01C2         ?C0081:
01C2 6003              JZ      $ + 5H
01C4 010000      R     AJMP    ?C0039
01C7 90000000    E     MOV     DPTR,#uip_buf+01EH
01CB E0                MOVX    A,@DPTR
01CC FE                MOV     R6,A
01CD A3                INC     DPTR
01CE E0                MOVX    A,@DPTR
01CF FF                MOV     R7,A
01D0 7800        E     MOV     R0,#LOW uip_arp_draddr+02H
01D2 E6                MOV     A,@R0
01D3 FC                MOV     R4,A
01D4 08                INC     R0
01D5 E6                MOV     A,@R0
C51 COMPILER V8.06   UIP_ARP                                                               03/17/2026 10:18:44 PAGE 73  

01D6 FD                MOV     R5,A
01D7 ED                MOV     A,R5
01D8 6F                XRL     A,R7
01D9 7002              JNZ     ?C0082
01DB EC                MOV     A,R4
01DC 6E                XRL     A,R6
01DD         ?C0082:
01DD 6003              JZ      $ + 5H
01DF 010000      R     AJMP    ?C0039
                                           ; SOURCE LINE # 330
                                           ; SOURCE LINE # 331
01E2 90000000    R     MOV     DPTR,#uip_getgatewaymacaddrflag
01E6 7401              MOV     A,#01H
01E8 F0                MOVX    @DPTR,A
                                           ; SOURCE LINE # 332
01E9 7B00        E     MOV     R3,#MBYTE uip_buf
01EB 7A00        E     MOV     R2,#HIGH uip_buf+016H
01ED 7900        E     MOV     R1,#LOW uip_buf+016H
01EF C003              PUSH    AR3
01F1 C002              PUSH    AR2
01F3 C001              PUSH    AR1
01F5 7B00        R     MOV     R3,#MBYTE uip_gatewaymacaddr
01F7 7A00        R     MOV     R2,#HIGH uip_gatewaymacaddr
01F9 7900        R     MOV     R1,#LOW uip_gatewaymacaddr
01FB A801              MOV     R0,AR1
01FD AC02              MOV     R4,AR2
01FF AD03              MOV     R5,AR3
0201 D001              POP     AR1
0203 D002              POP     AR2
0205 D003              POP     AR3
0207 7E00              MOV     R6,#00H
0209 7F06              MOV     R7,#06H
020B 12000000    E     LCALL   ?C?COPY
                                           ; SOURCE LINE # 334
020F 90000000    R     MOV     DPTR,#i
0213 E4                CLR     A
0214 F0                MOVX    @DPTR,A
0215         ?C0041:
0215 90000000    R     MOV     DPTR,#i
0219 E0                MOVX    A,@DPTR
021A FF                MOV     R7,A
021B EF                MOV     A,R7
021C C3                CLR     C
021D 9408              SUBB    A,#08H
021F 4003              JC      $ + 5H
0221 010000      R     AJMP    ?C0039
                                           ; SOURCE LINE # 335
                                           ; SOURCE LINE # 336
0224 90000000    R     MOV     DPTR,#i
0228 E0                MOVX    A,@DPTR
0229 FF                MOV     R7,A
022A 7E0B              MOV     R6,#0BH
022C EF                MOV     A,R7
022D 8EF0              MOV     B,R6
022F A4                MUL     AB
0230 FF                MOV     R7,A
0231 AEF0              MOV     R6,B
0233 7400        R     MOV     A,#LOW arp_table
0235 2F                ADD     A,R7
0236 F9                MOV     R1,A
0237 7400        R     MOV     A,#HIGH arp_table
0239 3E                ADDC    A,R6
C51 COMPILER V8.06   UIP_ARP                                                               03/17/2026 10:18:44 PAGE 74  

023A FA                MOV     R2,A
023B 7B00        R     MOV     R3,#MBYTE arp_table
023D 90000000    R     MOV     DPTR,#tabptr
0241 EB                MOV     A,R3
0242 F0                MOVX    @DPTR,A
0243 A3                INC     DPTR
0244 EA                MOV     A,R2
0245 F0                MOVX    @DPTR,A
0246 A3                INC     DPTR
0247 E9                MOV     A,R1
0248 F0                MOVX    @DPTR,A
                                           ; SOURCE LINE # 338
0249 90000000    R     MOV     DPTR,#tabptr
024D E0                MOVX    A,@DPTR
024E FB                MOV     R3,A
024F A3                INC     DPTR
0250 E0                MOVX    A,@DPTR
0251 FA                MOV     R2,A
0252 A3                INC     DPTR
0253 E0                MOVX    A,@DPTR
0254 F9                MOV     R1,A
0255 12000000    E     LCALL   ?C?ILDPTR
0259 FF                MOV     R7,A
025A AEF0              MOV     R6,B
025C EF                MOV     A,R7
025D 4E                ORL     A,R6
025E 7003              JNZ     $ + 5H
0260 010000      R     AJMP    ?C0043
0263 90000000    R     MOV     DPTR,#tabptr
0267 E0                MOVX    A,@DPTR
0268 FB                MOV     R3,A
0269 A3                INC     DPTR
026A E0                MOVX    A,@DPTR
026B FA                MOV     R2,A
026C A3                INC     DPTR
026D E0                MOVX    A,@DPTR
026E F9                MOV     R1,A
026F E9                MOV     A,R1
0270 2402              ADD     A,#02H
0272 F9                MOV     R1,A
0273 EA                MOV     A,R2
0274 3400              ADDC    A,#00H
0276 FA                MOV     R2,A
0277 12000000    E     LCALL   ?C?ILDPTR
027B FF                MOV     R7,A
027C AEF0              MOV     R6,B
027E EF                MOV     A,R7
027F 4E                ORL     A,R6
0280 7003              JNZ     $ + 5H
0282 010000      R     AJMP    ?C0043
                                           ; SOURCE LINE # 339
                                           ; SOURCE LINE # 340
0285 90000000    R     MOV     DPTR,#tabptr
0289 E0                MOVX    A,@DPTR
028A FB                MOV     R3,A
028B A3                INC     DPTR
028C E0                MOVX    A,@DPTR
028D FA                MOV     R2,A
028E A3                INC     DPTR
028F E0                MOVX    A,@DPTR
0290 F9                MOV     R1,A
0291 E9                MOV     A,R1
C51 COMPILER V8.06   UIP_ARP                                                               03/17/2026 10:18:44 PAGE 75  

0292 2404              ADD     A,#04H
0294 F9                MOV     R1,A
0295 EA                MOV     A,R2
0296 3400              ADDC    A,#00H
0298 FA                MOV     R2,A
0299 C003              PUSH    AR3
029B C002              PUSH    AR2
029D C001              PUSH    AR1
029F 7B00        R     MOV     R3,#MBYTE uip_gatewaymacaddr
02A1 7A00        R     MOV     R2,#HIGH uip_gatewaymacaddr
02A3 7900        R     MOV     R1,#LOW uip_gatewaymacaddr
02A5 A801              MOV     R0,AR1
02A7 AC02              MOV     R4,AR2
02A9 AD03              MOV     R5,AR3
02AB D001              POP     AR1
02AD D002              POP     AR2
02AF D003              POP     AR3
02B1 7E00              MOV     R6,#00H
02B3 7F06              MOV     R7,#06H
02B5 12000000    E     LCALL   ?C?MEMCMP
02B9 EF                MOV     A,R7
02BA 707C              JNZ     ?C0043
                                           ; SOURCE LINE # 341
                                           ; SOURCE LINE # 342
02BC 90000000    R     MOV     DPTR,#tabptr
02C0 E0                MOVX    A,@DPTR
02C1 FB                MOV     R3,A
02C2 A3                INC     DPTR
02C3 E0                MOVX    A,@DPTR
02C4 FA                MOV     R2,A
02C5 A3                INC     DPTR
02C6 E0                MOVX    A,@DPTR
02C7 F9                MOV     R1,A
02C8 12000000    E     LCALL   ?C?ILDPTR
02CC FF                MOV     R7,A
02CD AEF0              MOV     R6,B
02CF 7800        E     MOV     R0,#LOW uip_arp_draddr
02D1 E6                MOV     A,@R0
02D2 FC                MOV     R4,A
02D3 08                INC     R0
02D4 E6                MOV     A,@R0
02D5 FD                MOV     R5,A
02D6 ED                MOV     A,R5
02D7 B5072E            CJNE    A,AR7,?C0047
02DA EC                MOV     A,R4
02DB B5062A            CJNE    A,AR6,?C0047
02DE 90000000    R     MOV     DPTR,#tabptr
02E2 E0                MOVX    A,@DPTR
02E3 FB                MOV     R3,A
02E4 A3                INC     DPTR
02E5 E0                MOVX    A,@DPTR
02E6 FA                MOV     R2,A
02E7 A3                INC     DPTR
02E8 E0                MOVX    A,@DPTR
02E9 F9                MOV     R1,A
02EA E9                MOV     A,R1
02EB 2402              ADD     A,#02H
02ED F9                MOV     R1,A
02EE EA                MOV     A,R2
02EF 3400              ADDC    A,#00H
02F1 FA                MOV     R2,A
02F2 12000000    E     LCALL   ?C?ILDPTR
C51 COMPILER V8.06   UIP_ARP                                                               03/17/2026 10:18:44 PAGE 76  

02F6 FF                MOV     R7,A
02F7 AEF0              MOV     R6,B
02F9 7800        E     MOV     R0,#LOW uip_arp_draddr+02H
02FB E6                MOV     A,@R0
02FC FC                MOV     R4,A
02FD 08                INC     R0
02FE E6                MOV     A,@R0
02FF FD                MOV     R5,A
0300 ED                MOV     A,R5
0301 6F                XRL     A,R7
0302 7002              JNZ     ?C0084
0304 EC                MOV     A,R4
0305 6E                XRL     A,R6
0306         ?C0084:
0306 6030              JZ      ?C0043
0308         ?C0047:
                                           ; SOURCE LINE # 343
                                           ; SOURCE LINE # 344
0308 90000000    R     MOV     DPTR,#tabptr
030C E0                MOVX    A,@DPTR
030D FB                MOV     R3,A
030E A3                INC     DPTR
030F E0                MOVX    A,@DPTR
0310 FA                MOV     R2,A
0311 A3                INC     DPTR
0312 E0                MOVX    A,@DPTR
0313 F9                MOV     R1,A
0314 E4                CLR     A
0315 75F000            MOV     B,#00H
0318 12000000    E     LCALL   ?C?ISTPTR
                                           ; SOURCE LINE # 345
031C 90000000    R     MOV     DPTR,#tabptr
0320 E0                MOVX    A,@DPTR
0321 FB                MOV     R3,A
0322 A3                INC     DPTR
0323 E0                MOVX    A,@DPTR
0324 FA                MOV     R2,A
0325 A3                INC     DPTR
0326 E0                MOVX    A,@DPTR
0327 F9                MOV     R1,A
0328 E9                MOV     A,R1
0329 2402              ADD     A,#02H
032B F9                MOV     R1,A
032C EA                MOV     A,R2
032D 3400              ADDC    A,#00H
032F FA                MOV     R2,A
0330 E4                CLR     A
0331 75F000            MOV     B,#00H
0334 12000000    E     LCALL   ?C?ISTPTR
                                           ; SOURCE LINE # 346
0338         ?C0046:
                                           ; SOURCE LINE # 347
0338         ?C0045:
                                           ; SOURCE LINE # 348
0338         ?C0044:
                                           ; SOURCE LINE # 349
0338         ?C0043:
0338 90000000    R     MOV     DPTR,#i
033C E0                MOVX    A,@DPTR
033D 04                INC     A
033E F0                MOVX    @DPTR,A
033F 010000      R     AJMP    ?C0041
C51 COMPILER V8.06   UIP_ARP                                                               03/17/2026 10:18:44 PAGE 77  

0342         ?C0042:
                                           ; SOURCE LINE # 350
0342         ?C0040:
                                           ; SOURCE LINE # 351
0342         ?C0039:
                                           ; SOURCE LINE # 352
0342 7B00        E     MOV     R3,#MBYTE uip_buf
0344 7A00        E     MOV     R2,#HIGH uip_buf+01CH
0346 7900        E     MOV     R1,#LOW uip_buf+01CH
0348 C003              PUSH    AR3
034A C002              PUSH    AR2
034C C001              PUSH    AR1
034E 7B00        E     MOV     R3,#MBYTE uip_buf
0350 7A00        E     MOV     R2,#HIGH uip_buf+016H
0352 7900        E     MOV     R1,#LOW uip_buf+016H
0354 90000000    R     MOV     DPTR,#?_uip_arp_update?BYTE+03H
0358 EB                MOV     A,R3
0359 F0                MOVX    @DPTR,A
035A A3                INC     DPTR
035B EA                MOV     A,R2
035C F0                MOVX    @DPTR,A
035D A3                INC     DPTR
035E E9                MOV     A,R1
035F F0                MOVX    @DPTR,A
0360 D001              POP     AR1
0362 D002              POP     AR2
0364 D003              POP     AR3
0366 12000000    R     LCALL   _uip_arp_update
                                           ; SOURCE LINE # 353
036A         ?C0038:
                                           ; SOURCE LINE # 354
                                           ; SOURCE LINE # 355
036A         ?C0048:
                                           ; SOURCE LINE # 356
                                           ; SOURCE LINE # 357
036A         ?C0034:
                                           ; SOURCE LINE # 360
036A         ?C0033:
036A 22                RET     
             ; FUNCTION uip_arp_arpin (END)

             ; FUNCTION uip_arp_out (BEGIN)
                                           ; SOURCE LINE # 390
                                           ; SOURCE LINE # 391
                                           ; SOURCE LINE # 400
0000 90000000    E     MOV     DPTR,#uip_buf+01EH
0004 E0                MOVX    A,@DPTR
0005 FE                MOV     R6,A
0006 A3                INC     DPTR
0007 E0                MOVX    A,@DPTR
0008 FF                MOV     R7,A
0009 EF                MOV     A,R7
000A B4FF17            CJNE    A,#0FFH,?C0049
000D EE                MOV     A,R6
000E B4FF13            CJNE    A,#0FFH,?C0049
                                           ; SOURCE LINE # 401
                                           ; SOURCE LINE # 402
0011 7E00              MOV     R6,#00H
0013 7F06              MOV     R7,#06H
0015 7DFF              MOV     R5,#0FFH
0017 7B00        E     MOV     R3,#MBYTE uip_buf
0019 7A00        E     MOV     R2,#HIGH uip_buf
C51 COMPILER V8.06   UIP_ARP                                                               03/17/2026 10:18:44 PAGE 78  

001B 7900        E     MOV     R1,#LOW uip_buf
001D 12000000    E     LCALL   ?C?MEMSET
                                           ; SOURCE LINE # 403
0021 010000      R     AJMP    ?C0050
0024         ?C0049:
                                           ; SOURCE LINE # 404
0024 90000000    E     MOV     DPTR,#uip_buf+01EH
0028 E0                MOVX    A,@DPTR
0029 FE                MOV     R6,A
002A A3                INC     DPTR
002B E0                MOVX    A,@DPTR
002C FF                MOV     R7,A
002D D3                SETB    C
002E EF                MOV     A,R7
002F 9400              SUBB    A,#00H
0031 EE                MOV     A,R6
0032 94E0              SUBB    A,#0E0H
0034 404C              JC      ?C0051
                                           ; SOURCE LINE # 405
                                           ; SOURCE LINE # 406
0036 90000000    E     MOV     DPTR,#uip_buf
003A 7401              MOV     A,#01H
003C F0                MOVX    @DPTR,A
                                           ; SOURCE LINE # 407
003D 90000000    E     MOV     DPTR,#uip_buf+01H
0041 E4                CLR     A
0042 F0                MOVX    @DPTR,A
                                           ; SOURCE LINE # 408
0043 90000000    E     MOV     DPTR,#uip_buf+02H
0047 745E              MOV     A,#05EH
0049 F0                MOVX    @DPTR,A
                                           ; SOURCE LINE # 409
004A 90000000    E     MOV     DPTR,#uip_buf+01EH
004E E0                MOVX    A,@DPTR
004F FE                MOV     R6,A
0050 A3                INC     DPTR
0051 E0                MOVX    A,@DPTR
0052 FF                MOV     R7,A
0053 EF                MOV     A,R7
0054 547F              ANL     A,#07FH
0056 FF                MOV     R7,A
0057 90000000    E     MOV     DPTR,#uip_buf+03H
005B EF                MOV     A,R7
005C F0                MOVX    @DPTR,A
                                           ; SOURCE LINE # 410
005D 90000000    E     MOV     DPTR,#uip_buf+020H
0061 E0                MOVX    A,@DPTR
0062 FE                MOV     R6,A
0063 A3                INC     DPTR
0064 E0                MOVX    A,@DPTR
0065 FF                MOV     R7,A
0066 EE                MOV     A,R6
0067 FF                MOV     R7,A
0068 7E00              MOV     R6,#00H
006A 90000000    E     MOV     DPTR,#uip_buf+04H
006E EF                MOV     A,R7
006F F0                MOVX    @DPTR,A
                                           ; SOURCE LINE # 411
0070 90000000    E     MOV     DPTR,#uip_buf+020H
0074 E0                MOVX    A,@DPTR
0075 FE                MOV     R6,A
0076 A3                INC     DPTR
C51 COMPILER V8.06   UIP_ARP                                                               03/17/2026 10:18:44 PAGE 79  

0077 E0                MOVX    A,@DPTR
0078 FF                MOV     R7,A
0079 90000000    E     MOV     DPTR,#uip_buf+05H
007D EF                MOV     A,R7
007E F0                MOVX    @DPTR,A
                                           ; SOURCE LINE # 412
007F 010000      R     AJMP    ?C0050
0082         ?C0051:
                                           ; SOURCE LINE # 414
                                           ; SOURCE LINE # 417
0082 7800        E     MOV     R0,#LOW uip_arp_netmask
0084 E6                MOV     A,@R0
0085 FE                MOV     R6,A
0086 08                INC     R0
0087 E6                MOV     A,@R0
0088 FF                MOV     R7,A
0089 7800        E     MOV     R0,#LOW uip_hostaddr
008B E6                MOV     A,@R0
008C FC                MOV     R4,A
008D 08                INC     R0
008E E6                MOV     A,@R0
008F FD                MOV     R5,A
0090 EC                MOV     A,R4
0091 5E                ANL     A,R6
0092 FE                MOV     R6,A
0093 ED                MOV     A,R5
0094 5F                ANL     A,R7
0095 FF                MOV     R7,A
0096 7800        E     MOV     R0,#LOW uip_arp_netmask
0098 E6                MOV     A,@R0
0099 FC                MOV     R4,A
009A 08                INC     R0
009B E6                MOV     A,@R0
009C FD                MOV     R5,A
009D 90000000    E     MOV     DPTR,#uip_buf+01EH
00A1 E0                MOVX    A,@DPTR
00A2 FA                MOV     R2,A
00A3 A3                INC     DPTR
00A4 E0                MOVX    A,@DPTR
00A5 FB                MOV     R3,A
00A6 EA                MOV     A,R2
00A7 5C                ANL     A,R4
00A8 FC                MOV     R4,A
00A9 EB                MOV     A,R3
00AA 5D                ANL     A,R5
00AB FD                MOV     R5,A
00AC ED                MOV     A,R5
00AD B50736            CJNE    A,AR7,?C0054
00B0 EC                MOV     A,R4
00B1 B50632            CJNE    A,AR6,?C0054
00B4 7800        E     MOV     R0,#LOW uip_arp_netmask+02H
00B6 E6                MOV     A,@R0
00B7 FE                MOV     R6,A
00B8 08                INC     R0
00B9 E6                MOV     A,@R0
00BA FF                MOV     R7,A
00BB 7800        E     MOV     R0,#LOW uip_hostaddr+02H
00BD E6                MOV     A,@R0
00BE FC                MOV     R4,A
00BF 08                INC     R0
00C0 E6                MOV     A,@R0
00C1 FD                MOV     R5,A
C51 COMPILER V8.06   UIP_ARP                                                               03/17/2026 10:18:44 PAGE 80  

00C2 EC                MOV     A,R4
00C3 5E                ANL     A,R6
00C4 FE                MOV     R6,A
00C5 ED                MOV     A,R5
00C6 5F                ANL     A,R7
00C7 FF                MOV     R7,A
00C8 7800        E     MOV     R0,#LOW uip_arp_netmask+02H
00CA E6                MOV     A,@R0
00CB FC                MOV     R4,A
00CC 08                INC     R0
00CD E6                MOV     A,@R0
00CE FD                MOV     R5,A
00CF 90000000    E     MOV     DPTR,#uip_buf+020H
00D3 E0                MOVX    A,@DPTR
00D4 FA                MOV     R2,A
00D5 A3                INC     DPTR
00D6 E0                MOVX    A,@DPTR
00D7 FB                MOV     R3,A
00D8 EA                MOV     A,R2
00D9 5C                ANL     A,R4
00DA FC                MOV     R4,A
00DB EB                MOV     A,R3
00DC 5D                ANL     A,R5
00DD FD                MOV     R5,A
00DE ED                MOV     A,R5
00DF 6F                XRL     A,R7
00E0 7002              JNZ     ?C0087
00E2 EC                MOV     A,R4
00E3 6E                XRL     A,R6
00E4         ?C0087:
00E4 6022              JZ      ?C0053
00E6         ?C0054:
                                           ; SOURCE LINE # 418
                                           ; SOURCE LINE # 422
00E6 7800        E     MOV     R0,#LOW uip_arp_draddr
00E8 E6                MOV     A,@R0
00E9 FE                MOV     R6,A
00EA 08                INC     R0
00EB E6                MOV     A,@R0
00EC FF                MOV     R7,A
00ED 90000000    R     MOV     DPTR,#ipaddr
00F1 EE                MOV     A,R6
00F2 F0                MOVX    @DPTR,A
00F3 A3                INC     DPTR
00F4 EF                MOV     A,R7
00F5 F0                MOVX    @DPTR,A
                                           ; SOURCE LINE # 423
00F6 7800        E     MOV     R0,#LOW uip_arp_draddr+02H
00F8 E6                MOV     A,@R0
00F9 FE                MOV     R6,A
00FA 08                INC     R0
00FB E6                MOV     A,@R0
00FC FF                MOV     R7,A
00FD 90000000    R     MOV     DPTR,#ipaddr+02H
0101 EE                MOV     A,R6
0102 F0                MOVX    @DPTR,A
0103 A3                INC     DPTR
0104 EF                MOV     A,R7
0105 F0                MOVX    @DPTR,A
                                           ; SOURCE LINE # 424
0106 8024              SJMP    ?C0055
0108         ?C0053:
C51 COMPILER V8.06   UIP_ARP                                                               03/17/2026 10:18:44 PAGE 81  

                                           ; SOURCE LINE # 426
0108 90000000    E     MOV     DPTR,#uip_buf+01EH
010C E0                MOVX    A,@DPTR
010D FE                MOV     R6,A
010E A3                INC     DPTR
010F E0                MOVX    A,@DPTR
0110 FF                MOV     R7,A
0111 90000000    R     MOV     DPTR,#ipaddr
0115 EE                MOV     A,R6
0116 F0                MOVX    @DPTR,A
0117 A3                INC     DPTR
0118 EF                MOV     A,R7
0119 F0                MOVX    @DPTR,A
                                           ; SOURCE LINE # 427
011A 90000000    E     MOV     DPTR,#uip_buf+020H
011E E0                MOVX    A,@DPTR
011F FE                MOV     R6,A
0120 A3                INC     DPTR
0121 E0                MOVX    A,@DPTR
0122 FF                MOV     R7,A
0123 90000000    R     MOV     DPTR,#ipaddr+02H
0127 EE                MOV     A,R6
0128 F0                MOVX    @DPTR,A
0129 A3                INC     DPTR
012A EF                MOV     A,R7
012B F0                MOVX    @DPTR,A
                                           ; SOURCE LINE # 428
012C         ?C0055:
                                           ; SOURCE LINE # 431
012C 90000000    R     MOV     DPTR,#ipaddr
0130 E0                MOVX    A,@DPTR
0131 FE                MOV     R6,A
0132 A3                INC     DPTR
0133 E0                MOVX    A,@DPTR
0134 FF                MOV     R7,A
0135 EF                MOV     A,R7
0136 4E                ORL     A,R6
0137 700D              JNZ     ?C0058
0139 90000000    R     MOV     DPTR,#ipaddr+02H
013D E0                MOVX    A,@DPTR
013E FE                MOV     R6,A
013F A3                INC     DPTR
0140 E0                MOVX    A,@DPTR
0141 FF                MOV     R7,A
0142 EF                MOV     A,R7
0143 4E                ORL     A,R6
0144 6016              JZ      ?C0057
0146         ?C0058:
0146 7800        E     MOV     R0,#LOW uip_hostaddr
0148 E6                MOV     A,@R0
0149 FE                MOV     R6,A
014A 08                INC     R0
014B E6                MOV     A,@R0
014C FF                MOV     R7,A
014D EF                MOV     A,R7
014E 4E                ORL     A,R6
014F 7013              JNZ     ?C0056
0151 7800        E     MOV     R0,#LOW uip_hostaddr+02H
0153 E6                MOV     A,@R0
0154 FE                MOV     R6,A
0155 08                INC     R0
0156 E6                MOV     A,@R0
C51 COMPILER V8.06   UIP_ARP                                                               03/17/2026 10:18:44 PAGE 82  

0157 FF                MOV     R7,A
0158 EF                MOV     A,R7
0159 4E                ORL     A,R6
015A 7008              JNZ     ?C0056
015C         ?C0057:
                                           ; SOURCE LINE # 432
                                           ; SOURCE LINE # 433
015C 7800        E     MOV     R0,#LOW uip_len
015E 7600              MOV     @R0,#00H
0160 08                INC     R0
0161 7600              MOV     @R0,#00H
0163 22                RET     
                                           ; SOURCE LINE # 435
0164         ?C0056:
                                           ; SOURCE LINE # 437
0164 90000000    R     MOV     DPTR,#i
0168 E4                CLR     A
0169 F0                MOVX    @DPTR,A
016A         ?C0060:
016A 90000000    R     MOV     DPTR,#i
016E E0                MOVX    A,@DPTR
016F FF                MOV     R7,A
0170 EF                MOV     A,R7
0171 C3                CLR     C
0172 9408              SUBB    A,#08H
0174 507F              JNC     ?C0061
                                           ; SOURCE LINE # 438
0176 90000000    R     MOV     DPTR,#i
017A E0                MOVX    A,@DPTR
017B FF                MOV     R7,A
017C 7E0B              MOV     R6,#0BH
017E EF                MOV     A,R7
017F 8EF0              MOV     B,R6
0181 A4                MUL     AB
0182 FF                MOV     R7,A
0183 AEF0              MOV     R6,B
0185 7400        R     MOV     A,#LOW arp_table
0187 2F                ADD     A,R7
0188 F9                MOV     R1,A
0189 7400        R     MOV     A,#HIGH arp_table
018B 3E                ADDC    A,R6
018C FA                MOV     R2,A
018D 7B00        R     MOV     R3,#MBYTE arp_table
018F 90000000    R     MOV     DPTR,#tabptr
0193 EB                MOV     A,R3
0194 F0                MOVX    @DPTR,A
0195 A3                INC     DPTR
0196 EA                MOV     A,R2
0197 F0                MOVX    @DPTR,A
0198 A3                INC     DPTR
0199 E9                MOV     A,R1
019A F0                MOVX    @DPTR,A
                                           ; SOURCE LINE # 439
019B 90000000    R     MOV     DPTR,#tabptr
019F E0                MOVX    A,@DPTR
01A0 FB                MOV     R3,A
01A1 A3                INC     DPTR
01A2 E0                MOVX    A,@DPTR
01A3 FA                MOV     R2,A
01A4 A3                INC     DPTR
01A5 E0                MOVX    A,@DPTR
01A6 F9                MOV     R1,A
C51 COMPILER V8.06   UIP_ARP                                                               03/17/2026 10:18:44 PAGE 83  

01A7 12000000    E     LCALL   ?C?ILDPTR
01AB FF                MOV     R7,A
01AC AEF0              MOV     R6,B
01AE 90000000    R     MOV     DPTR,#ipaddr
01B2 E0                MOVX    A,@DPTR
01B3 FC                MOV     R4,A
01B4 A3                INC     DPTR
01B5 E0                MOVX    A,@DPTR
01B6 FD                MOV     R5,A
01B7 ED                MOV     A,R5
01B8 B50730            CJNE    A,AR7,?C0062
01BB EC                MOV     A,R4
01BC B5062C            CJNE    A,AR6,?C0062
01BF 90000000    R     MOV     DPTR,#tabptr
01C3 E0                MOVX    A,@DPTR
01C4 FB                MOV     R3,A
01C5 A3                INC     DPTR
01C6 E0                MOVX    A,@DPTR
01C7 FA                MOV     R2,A
01C8 A3                INC     DPTR
01C9 E0                MOVX    A,@DPTR
01CA F9                MOV     R1,A
01CB E9                MOV     A,R1
01CC 2402              ADD     A,#02H
01CE F9                MOV     R1,A
01CF EA                MOV     A,R2
01D0 3400              ADDC    A,#00H
01D2 FA                MOV     R2,A
01D3 12000000    E     LCALL   ?C?ILDPTR
01D7 FF                MOV     R7,A
01D8 AEF0              MOV     R6,B
01DA 90000000    R     MOV     DPTR,#ipaddr+02H
01DE E0                MOVX    A,@DPTR
01DF FC                MOV     R4,A
01E0 A3                INC     DPTR
01E1 E0                MOVX    A,@DPTR
01E2 FD                MOV     R5,A
01E3 ED                MOV     A,R5
01E4 6F                XRL     A,R7
01E5 7002              JNZ     ?C0089
01E7 EC                MOV     A,R4
01E8 6E                XRL     A,R6
01E9         ?C0089:
01E9 600A              JZ      ?C0061
                                           ; SOURCE LINE # 440
01EB         ?C0063:
                                           ; SOURCE LINE # 441
01EB         ?C0062:
01EB 90000000    R     MOV     DPTR,#i
01EF E0                MOVX    A,@DPTR
01F0 04                INC     A
01F1 F0                MOVX    @DPTR,A
01F2 010000      R     AJMP    ?C0060
01F5         ?C0061:
                                           ; SOURCE LINE # 443
01F5 90000000    R     MOV     DPTR,#i
01F9 E0                MOVX    A,@DPTR
01FA FF                MOV     R7,A
01FB EF                MOV     A,R7
01FC 6408              XRL     A,#08H
01FE 6003              JZ      $ + 5H
0200 010000      R     AJMP    ?C0064
C51 COMPILER V8.06   UIP_ARP                                                               03/17/2026 10:18:44 PAGE 84  

                                           ; SOURCE LINE # 446
0203 7E00              MOV     R6,#00H
0205 7F06              MOV     R7,#06H
0207 7DFF              MOV     R5,#0FFH
0209 7B00        E     MOV     R3,#MBYTE uip_buf
020B 7A00        E     MOV     R2,#HIGH uip_buf
020D 7900        E     MOV     R1,#LOW uip_buf
020F 12000000    E     LCALL   ?C?MEMSET
                                           ; SOURCE LINE # 447
0213 7E00              MOV     R6,#00H
0215 7F06              MOV     R7,#06H
0217 7D00              MOV     R5,#00H
0219 7B00        E     MOV     R3,#MBYTE uip_buf
021B 7A00        E     MOV     R2,#HIGH uip_buf+020H
021D 7900        E     MOV     R1,#LOW uip_buf+020H
021F 12000000    E     LCALL   ?C?MEMSET
                                           ; SOURCE LINE # 448
0223 7B00        R     MOV     R3,#MBYTE uip_ethaddr
0225 7A00        R     MOV     R2,#HIGH uip_ethaddr
0227 7900        R     MOV     R1,#LOW uip_ethaddr
0229 C003              PUSH    AR3
022B C002              PUSH    AR2
022D C001              PUSH    AR1
022F 7B00        E     MOV     R3,#MBYTE uip_buf
0231 7A00        E     MOV     R2,#HIGH uip_buf+06H
0233 7900        E     MOV     R1,#LOW uip_buf+06H
0235 A801              MOV     R0,AR1
0237 AC02              MOV     R4,AR2
0239 AD03              MOV     R5,AR3
023B D001              POP     AR1
023D D002              POP     AR2
023F D003              POP     AR3
0241 7E00              MOV     R6,#00H
0243 7F06              MOV     R7,#06H
0245 12000000    E     LCALL   ?C?COPY
                                           ; SOURCE LINE # 449
0249 7B00        R     MOV     R3,#MBYTE uip_ethaddr
024B 7A00        R     MOV     R2,#HIGH uip_ethaddr
024D 7900        R     MOV     R1,#LOW uip_ethaddr
024F C003              PUSH    AR3
0251 C002              PUSH    AR2
0253 C001              PUSH    AR1
0255 7B00        E     MOV     R3,#MBYTE uip_buf
0257 7A00        E     MOV     R2,#HIGH uip_buf+016H
0259 7900        E     MOV     R1,#LOW uip_buf+016H
025B A801              MOV     R0,AR1
025D AC02              MOV     R4,AR2
025F AD03              MOV     R5,AR3
0261 D001              POP     AR1
0263 D002              POP     AR2
0265 D003              POP     AR3
0267 7E00              MOV     R6,#00H
0269 7F06              MOV     R7,#06H
026B 12000000    E     LCALL   ?C?COPY
                                           ; SOURCE LINE # 451
026F 90000000    R     MOV     DPTR,#ipaddr
0273 E0                MOVX    A,@DPTR
0274 FE                MOV     R6,A
0275 A3                INC     DPTR
0276 E0                MOVX    A,@DPTR
0277 FF                MOV     R7,A
0278 90000000    E     MOV     DPTR,#uip_buf+026H
C51 COMPILER V8.06   UIP_ARP                                                               03/17/2026 10:18:44 PAGE 85  

027C EE                MOV     A,R6
027D F0                MOVX    @DPTR,A
027E A3                INC     DPTR
027F EF                MOV     A,R7
0280 F0                MOVX    @DPTR,A
                                           ; SOURCE LINE # 452
0281 90000000    R     MOV     DPTR,#ipaddr+02H
0285 E0                MOVX    A,@DPTR
0286 FE                MOV     R6,A
0287 A3                INC     DPTR
0288 E0                MOVX    A,@DPTR
0289 FF                MOV     R7,A
028A 90000000    E     MOV     DPTR,#uip_buf+028H
028E EE                MOV     A,R6
028F F0                MOVX    @DPTR,A
0290 A3                INC     DPTR
0291 EF                MOV     A,R7
0292 F0                MOVX    @DPTR,A
                                           ; SOURCE LINE # 453
0293 7800        E     MOV     R0,#LOW uip_hostaddr
0295 E6                MOV     A,@R0
0296 FE                MOV     R6,A
0297 08                INC     R0
0298 E6                MOV     A,@R0
0299 FF                MOV     R7,A
029A 90000000    E     MOV     DPTR,#uip_buf+01CH
029E EE                MOV     A,R6
029F F0                MOVX    @DPTR,A
02A0 A3                INC     DPTR
02A1 EF                MOV     A,R7
02A2 F0                MOVX    @DPTR,A
                                           ; SOURCE LINE # 454
02A3 7800        E     MOV     R0,#LOW uip_hostaddr+02H
02A5 E6                MOV     A,@R0
02A6 FE                MOV     R6,A
02A7 08                INC     R0
02A8 E6                MOV     A,@R0
02A9 FF                MOV     R7,A
02AA 90000000    E     MOV     DPTR,#uip_buf+01EH
02AE EE                MOV     A,R6
02AF F0                MOVX    @DPTR,A
02B0 A3                INC     DPTR
02B1 EF                MOV     A,R7
02B2 F0                MOVX    @DPTR,A
                                           ; SOURCE LINE # 455
02B3 90000000    E     MOV     DPTR,#uip_buf+014H
02B7 E4                CLR     A
02B8 F0                MOVX    @DPTR,A
02B9 A3                INC     DPTR
02BA 7401              MOV     A,#01H
02BC F0                MOVX    @DPTR,A
                                           ; SOURCE LINE # 456
02BD 90000000    E     MOV     DPTR,#uip_buf+0EH
02C1 E4                CLR     A
02C2 F0                MOVX    @DPTR,A
02C3 A3                INC     DPTR
02C4 7401              MOV     A,#01H
02C6 F0                MOVX    @DPTR,A
                                           ; SOURCE LINE # 457
02C7 90000000    E     MOV     DPTR,#uip_buf+010H
02CB 7408              MOV     A,#08H
02CD F0                MOVX    @DPTR,A
C51 COMPILER V8.06   UIP_ARP                                                               03/17/2026 10:18:44 PAGE 86  

02CE A3                INC     DPTR
02CF E4                CLR     A
02D0 F0                MOVX    @DPTR,A
                                           ; SOURCE LINE # 458
02D1 90000000    E     MOV     DPTR,#uip_buf+012H
02D5 7406              MOV     A,#06H
02D7 F0                MOVX    @DPTR,A
                                           ; SOURCE LINE # 459
02D8 90000000    E     MOV     DPTR,#uip_buf+013H
02DC 7404              MOV     A,#04H
02DE F0                MOVX    @DPTR,A
                                           ; SOURCE LINE # 460
02DF 90000000    E     MOV     DPTR,#uip_buf+0CH
02E3 7408              MOV     A,#08H
02E5 F0                MOVX    @DPTR,A
02E6 A3                INC     DPTR
02E7 7406              MOV     A,#06H
02E9 F0                MOVX    @DPTR,A
                                           ; SOURCE LINE # 462
02EA 90000000    E     MOV     DPTR,#TCPIP_EthHeadLen
02EE E0                MOVX    A,@DPTR
02EF FF                MOV     R7,A
02F0 7E00              MOV     R6,#00H
02F2 7400        E     MOV     A,#LOW uip_buf+028H
02F4 2F                ADD     A,R7
02F5 F9                MOV     R1,A
02F6 7400        E     MOV     A,#HIGH uip_buf+028H
02F8 3E                ADDC    A,R6
02F9 FA                MOV     R2,A
02FA 7B00        E     MOV     R3,#MBYTE uip_buf
02FC 90000000    E     MOV     DPTR,#uip_appdata
0300 EB                MOV     A,R3
0301 F0                MOVX    @DPTR,A
0302 A3                INC     DPTR
0303 EA                MOV     A,R2
0304 F0                MOVX    @DPTR,A
0305 A3                INC     DPTR
0306 E9                MOV     A,R1
0307 F0                MOVX    @DPTR,A
                                           ; SOURCE LINE # 464
0308 7800        E     MOV     R0,#LOW uip_len
030A 7600              MOV     @R0,#00H
030C 08                INC     R0
030D 762A              MOV     @R0,#02AH
030F 22                RET     
                                           ; SOURCE LINE # 466
0310         ?C0064:
                                           ; SOURCE LINE # 468
0310 90000000    R     MOV     DPTR,#tabptr
0314 E0                MOVX    A,@DPTR
0315 FB                MOV     R3,A
0316 A3                INC     DPTR
0317 E0                MOVX    A,@DPTR
0318 FA                MOV     R2,A
0319 A3                INC     DPTR
031A E0                MOVX    A,@DPTR
031B F9                MOV     R1,A
031C E9                MOV     A,R1
031D 2404              ADD     A,#04H
031F F9                MOV     R1,A
0320 EA                MOV     A,R2
0321 3400              ADDC    A,#00H
C51 COMPILER V8.06   UIP_ARP                                                               03/17/2026 10:18:44 PAGE 87  

0323 FA                MOV     R2,A
0324 C003              PUSH    AR3
0326 C002              PUSH    AR2
0328 C001              PUSH    AR1
032A 7B00        E     MOV     R3,#MBYTE uip_buf
032C 7A00        E     MOV     R2,#HIGH uip_buf
032E 7900        E     MOV     R1,#LOW uip_buf
0330 A801              MOV     R0,AR1
0332 AC02              MOV     R4,AR2
0334 AD03              MOV     R5,AR3
0336 D001              POP     AR1
0338 D002              POP     AR2
033A D003              POP     AR3
033C 7E00              MOV     R6,#00H
033E 7F06              MOV     R7,#06H
0340 12000000    E     LCALL   ?C?COPY
                                           ; SOURCE LINE # 469
0344         ?C0052:
0344         ?C0050:
                                           ; SOURCE LINE # 471
0344 7B00        R     MOV     R3,#MBYTE uip_ethaddr
0346 7A00        R     MOV     R2,#HIGH uip_ethaddr
0348 7900        R     MOV     R1,#LOW uip_ethaddr
034A C003              PUSH    AR3
034C C002              PUSH    AR2
034E C001              PUSH    AR1
0350 7B00        E     MOV     R3,#MBYTE uip_buf
0352 7A00        E     MOV     R2,#HIGH uip_buf+06H
0354 7900        E     MOV     R1,#LOW uip_buf+06H
0356 A801              MOV     R0,AR1
0358 AC02              MOV     R4,AR2
035A AD03              MOV     R5,AR3
035C D001              POP     AR1
035E D002              POP     AR2
0360 D003              POP     AR3
0362 7E00              MOV     R6,#00H
0364 7F06              MOV     R7,#06H
0366 12000000    E     LCALL   ?C?COPY
                                           ; SOURCE LINE # 473
036A 90000000    E     MOV     DPTR,#uip_buf+0CH
036E 7408              MOV     A,#08H
0370 F0                MOVX    @DPTR,A
0371 A3                INC     DPTR
0372 E4                CLR     A
0373 F0                MOVX    @DPTR,A
                                           ; SOURCE LINE # 475
0374 7800        E     MOV     R0,#LOW uip_len+01H
0376 740E              MOV     A,#0EH
0378 26                ADD     A,@R0
0379 F6                MOV     @R0,A
037A 18                DEC     R0
037B E4                CLR     A
037C 36                ADDC    A,@R0
037D F6                MOV     @R0,A
                                           ; SOURCE LINE # 476
037E         ?C0059:
037E 22                RET     
             ; FUNCTION uip_arp_out (END)

             ; FUNCTION _uip_findarptable (BEGIN)
                                           ; SOURCE LINE # 484
0000 90000000    R     MOV     DPTR,#ipaddr
C51 COMPILER V8.06   UIP_ARP                                                               03/17/2026 10:18:44 PAGE 88  

0004 EB                MOV     A,R3
0005 F0                MOVX    @DPTR,A
0006 A3                INC     DPTR
0007 EA                MOV     A,R2
0008 F0                MOVX    @DPTR,A
0009 A3                INC     DPTR
000A E9                MOV     A,R1
000B F0                MOVX    @DPTR,A
                                           ; SOURCE LINE # 485
                                           ; SOURCE LINE # 490
000C 90000000    R     MOV     DPTR,#i
0010 E4                CLR     A
0011 F0                MOVX    @DPTR,A
0012         ?C0065:
0012 90000000    R     MOV     DPTR,#i
0016 E0                MOVX    A,@DPTR
0017 FF                MOV     R7,A
0018 EF                MOV     A,R7
0019 C3                CLR     C
001A 9408              SUBB    A,#08H
001C 4003              JC      $ + 5H
001E 010000      R     AJMP    ?C0066
                                           ; SOURCE LINE # 491
0021 90000000    R     MOV     DPTR,#i
0025 E0                MOVX    A,@DPTR
0026 FF                MOV     R7,A
0027 7E0B              MOV     R6,#0BH
0029 EF                MOV     A,R7
002A 8EF0              MOV     B,R6
002C A4                MUL     AB
002D FF                MOV     R7,A
002E AEF0              MOV     R6,B
0030 7400        R     MOV     A,#LOW arp_table
0032 2F                ADD     A,R7
0033 F9                MOV     R1,A
0034 7400        R     MOV     A,#HIGH arp_table
0036 3E                ADDC    A,R6
0037 FA                MOV     R2,A
0038 7B00        R     MOV     R3,#MBYTE arp_table
003A 90000000    R     MOV     DPTR,#tabptr
003E EB                MOV     A,R3
003F F0                MOVX    @DPTR,A
0040 A3                INC     DPTR
0041 EA                MOV     A,R2
0042 F0                MOVX    @DPTR,A
0043 A3                INC     DPTR
0044 E9                MOV     A,R1
0045 F0                MOVX    @DPTR,A
                                           ; SOURCE LINE # 493
0046 90000000    R     MOV     DPTR,#tabptr
004A E0                MOVX    A,@DPTR
004B FB                MOV     R3,A
004C A3                INC     DPTR
004D E0                MOVX    A,@DPTR
004E FA                MOV     R2,A
004F A3                INC     DPTR
0050 E0                MOVX    A,@DPTR
0051 F9                MOV     R1,A
0052 12000000    E     LCALL   ?C?ILDPTR
0056 FF                MOV     R7,A
0057 AEF0              MOV     R6,B
0059 EF                MOV     A,R7
C51 COMPILER V8.06   UIP_ARP                                                               03/17/2026 10:18:44 PAGE 89  

005A 4E                ORL     A,R6
005B 7003              JNZ     $ + 5H
005D 010000      R     AJMP    ?C0067
0060 90000000    R     MOV     DPTR,#tabptr
0064 E0                MOVX    A,@DPTR
0065 FB                MOV     R3,A
0066 A3                INC     DPTR
0067 E0                MOVX    A,@DPTR
0068 FA                MOV     R2,A
0069 A3                INC     DPTR
006A E0                MOVX    A,@DPTR
006B F9                MOV     R1,A
006C E9                MOV     A,R1
006D 2402              ADD     A,#02H
006F F9                MOV     R1,A
0070 EA                MOV     A,R2
0071 3400              ADDC    A,#00H
0073 FA                MOV     R2,A
0074 12000000    E     LCALL   ?C?ILDPTR
0078 FF                MOV     R7,A
0079 AEF0              MOV     R6,B
007B EF                MOV     A,R7
007C 4E                ORL     A,R6
007D 6073              JZ      ?C0067
                                           ; SOURCE LINE # 496
007F 90000000    R     MOV     DPTR,#tabptr
0083 E0                MOVX    A,@DPTR
0084 FB                MOV     R3,A
0085 A3                INC     DPTR
0086 E0                MOVX    A,@DPTR
0087 FA                MOV     R2,A
0088 A3                INC     DPTR
0089 E0                MOVX    A,@DPTR
008A F9                MOV     R1,A
008B 12000000    E     LCALL   ?C?ILDPTR
008F FF                MOV     R7,A
0090 AEF0              MOV     R6,B
0092 90000000    R     MOV     DPTR,#ipaddr
0096 E0                MOVX    A,@DPTR
0097 FB                MOV     R3,A
0098 A3                INC     DPTR
0099 E0                MOVX    A,@DPTR
009A FA                MOV     R2,A
009B A3                INC     DPTR
009C E0                MOVX    A,@DPTR
009D F9                MOV     R1,A
009E 12000000    E     LCALL   ?C?ILDPTR
00A2 FD                MOV     R5,A
00A3 ACF0              MOV     R4,B
00A5 ED                MOV     A,R5
00A6 B50749            CJNE    A,AR7,?C0067
00A9 EC                MOV     A,R4
00AA B50645            CJNE    A,AR6,?C0067
00AD 90000000    R     MOV     DPTR,#tabptr
00B1 E0                MOVX    A,@DPTR
00B2 FB                MOV     R3,A
00B3 A3                INC     DPTR
00B4 E0                MOVX    A,@DPTR
00B5 FA                MOV     R2,A
00B6 A3                INC     DPTR
00B7 E0                MOVX    A,@DPTR
00B8 F9                MOV     R1,A
C51 COMPILER V8.06   UIP_ARP                                                               03/17/2026 10:18:44 PAGE 90  

00B9 E9                MOV     A,R1
00BA 2402              ADD     A,#02H
00BC F9                MOV     R1,A
00BD EA                MOV     A,R2
00BE 3400              ADDC    A,#00H
00C0 FA                MOV     R2,A
00C1 12000000    E     LCALL   ?C?ILDPTR
00C5 FF                MOV     R7,A
00C6 AEF0              MOV     R6,B
00C8 90000000    R     MOV     DPTR,#ipaddr
00CC E0                MOVX    A,@DPTR
00CD FB                MOV     R3,A
00CE A3                INC     DPTR
00CF E0                MOVX    A,@DPTR
00D0 FA                MOV     R2,A
00D1 A3                INC     DPTR
00D2 E0                MOVX    A,@DPTR
00D3 F9                MOV     R1,A
00D4 E9                MOV     A,R1
00D5 2402              ADD     A,#02H
00D7 F9                MOV     R1,A
00D8 EA                MOV     A,R2
00D9 3400              ADDC    A,#00H
00DB FA                MOV     R2,A
00DC 12000000    E     LCALL   ?C?ILDPTR
00E0 FD                MOV     R5,A
00E1 ACF0              MOV     R4,B
00E3 ED                MOV     A,R5
00E4 B5070B            CJNE    A,AR7,?C0067
00E7 EC                MOV     A,R4
00E8 B50607            CJNE    A,AR6,?C0067
                                           ; SOURCE LINE # 498
00EB 90000000    R     MOV     DPTR,#i
00EF E0                MOVX    A,@DPTR
00F0 FF                MOV     R7,A
00F1 22                RET     
                                           ; SOURCE LINE # 499
00F2         ?C0069:
                                           ; SOURCE LINE # 500
00F2         ?C0068:
                                           ; SOURCE LINE # 501
00F2         ?C0067:
00F2 90000000    R     MOV     DPTR,#i
00F6 E0                MOVX    A,@DPTR
00F7 04                INC     A
00F8 F0                MOVX    @DPTR,A
00F9 010000      R     AJMP    ?C0065
00FC         ?C0066:
                                           ; SOURCE LINE # 503
00FC 7FFF              MOV     R7,#0FFH
                                           ; SOURCE LINE # 504
00FE         ?C0070:
00FE 22                RET     
             ; FUNCTION _uip_findarptable (END)

C51 COMPILER V8.06   UIP_ARP                                                               03/17/2026 10:18:44 PAGE 91  

NAME                                    CLASS   MSPACE  TYPE    OFFSET  SIZE
====                                    =====   ======  ====    ======  ====


tmpage . . . . . . . . . . . . . . . .  STATIC   XDATA  U_CHAR   0000H  1
uip_arp_ipin . . . . . . . . . . . . .  PUBLIC   CODE   PROC     0000H  -----
uip_arp_init . . . . . . . . . . . . .  PUBLIC   CODE   PROC     0000H  -----
uip_udp_conn . . . . . . . . . . . . .  * TAG *  -----  STRUCT   -----  9
  ripaddr. . . . . . . . . . . . . . .  MEMBER   -----  ARRAY    0000H  4
  lport. . . . . . . . . . . . . . . .  MEMBER   -----  U_INT    0004H  2
  rport. . . . . . . . . . . . . . . .  MEMBER   -----  U_INT    0006H  2
  tcpip_id . . . . . . . . . . . . . .  MEMBER   -----  U_CHAR   0008H  1
uip_hostaddr . . . . . . . . . . . . .  EXTERN   IDATA  ARRAY    -----  4
uip_appdata. . . . . . . . . . . . . .  EXTERN   XDATA  PTR      -----  3
uip_ethaddr. . . . . . . . . . . . . .  PUBLIC   XDATA  STRUCT   0001H  6
size_t . . . . . . . . . . . . . . . .  TYPEDEF  -----  U_INT    -----  2
uip_eth_hdr. . . . . . . . . . . . . .  * TAG *  -----  STRUCT   -----  14
  dest . . . . . . . . . . . . . . . .  MEMBER   -----  STRUCT   0000H  6
  src. . . . . . . . . . . . . . . . .  MEMBER   -----  STRUCT   0006H  6
  type . . . . . . . . . . . . . . . .  MEMBER   -----  U_INT    000CH  2
_TCPIP_LISTEN. . . . . . . . . . . . .  * TAG *  -----  STRUCT   -----  3
  LocalPort. . . . . . . . . . . . . .  MEMBER   -----  U_INT    0000H  2
  InterfaceId. . . . . . . . . . . . .  MEMBER   -----  U_CHAR   0002H  1
_TCPIP_TCP_CONNECT . . . . . . . . . .  * TAG *  -----  STRUCT   -----  30
  State. . . . . . . . . . . . . . . .  MEMBER   -----  U_CHAR   0000H  1
  InterfaceId. . . . . . . . . . . . .  MEMBER   -----  U_CHAR   0001H  1
  AppId. . . . . . . . . . . . . . . .  MEMBER   -----  U_CHAR   0002H  1
  FinalFlag. . . . . . . . . . . . . .  MEMBER   -----  U_CHAR   0003H  1
  Ip . . . . . . . . . . . . . . . . .  MEMBER   -----  U_LONG   0004H  4
  Seq. . . . . . . . . . . . . . . . .  MEMBER   -----  ARRAY    0008H  4
  PSocket. . . . . . . . . . . . . . .  MEMBER   -----  VOID_PTR 000CH  2
  XmitLen. . . . . . . . . . . . . . .  MEMBER   -----  U_INT    000EH  2
  SecXmitLen . . . . . . . . . . . . .  MEMBER   -----  U_INT    0010H  2
  LeftLen. . . . . . . . . . . . . . .  MEMBER   -----  U_INT    0012H  2
  PData. . . . . . . . . . . . . . . .  MEMBER   -----  PTR      0014H  3
  PSecData . . . . . . . . . . . . . .  MEMBER   -----  PTR      0017H  3
  PNextData. . . . . . . . . . . . . .  MEMBER   -----  PTR      001AH  3
  Count. . . . . . . . . . . . . . . .  MEMBER   -----  U_CHAR   001DH  1
_TCPIP_UDP_CONNECT . . . . . . . . . .  * TAG *  -----  STRUCT   -----  22
  State. . . . . . . . . . . . . . . .  MEMBER   -----  U_CHAR   0000H  1
  InterfaceId. . . . . . . . . . . . .  MEMBER   -----  U_CHAR   0001H  1
  AppId. . . . . . . . . . . . . . . .  MEMBER   -----  U_CHAR   0002H  1
  Ip . . . . . . . . . . . . . . . . .  MEMBER   -----  U_LONG   0003H  4
  LocalPort. . . . . . . . . . . . . .  MEMBER   -----  U_INT    0007H  2
  RemotePort . . . . . . . . . . . . .  MEMBER   -----  U_INT    0009H  2
  HeadLen. . . . . . . . . . . . . . .  MEMBER   -----  U_CHAR   000BH  1
  PayloadLen . . . . . . . . . . . . .  MEMBER   -----  U_INT    000CH  2
  PHead. . . . . . . . . . . . . . . .  MEMBER   -----  PTR      000EH  3
  PPayload . . . . . . . . . . . . . .  MEMBER   -----  PTR      0011H  3
  PSocket. . . . . . . . . . . . . . .  MEMBER   -----  VOID_PTR 0014H  2
TCPIP_EthHeadLen . . . . . . . . . . .  EXTERN   XDATA  U_CHAR   -----  1
TCPIP_APPLICATION. . . . . . . . . . .  TYPEDEF  -----  STRUCT   -----  10
  Valid. . . . . . . . . . . . . . . .  MEMBER   -----  U_CHAR   0000H  1
  NewConnHandle. . . . . . . . . . . .  MEMBER   -----  PTR      0001H  3
  EventHandle. . . . . . . . . . . . .  MEMBER   -----  PTR      0004H  3
  ReceiveHandle. . . . . . . . . . . .  MEMBER   -----  PTR      0007H  3
_uip_findarptable. . . . . . . . . . .  PUBLIC   CODE   PROC     0000H  -----
  ipaddr . . . . . . . . . . . . . . .  AUTO     XDATA  PTR      0000H  3
  tabptr . . . . . . . . . . . . . . .  AUTO     XDATA  PTR      0003H  3
ulong. . . . . . . . . . . . . . . . .  TYPEDEF  -----  U_LONG   -----  4
bool . . . . . . . . . . . . . . . . .  TYPEDEF  -----  U_INT    -----  2
C51 COMPILER V8.06   UIP_ARP                                                               03/17/2026 10:18:44 PAGE 92  

NAME                                    CLASS   MSPACE  TYPE    OFFSET  SIZE
====                                    =====   ======  ====    ======  ====


uip_arp_out. . . . . . . . . . . . . .  PUBLIC   CODE   PROC     0000H  -----
  tabptr . . . . . . . . . . . . . . .  AUTO     XDATA  PTR      0000H  3
arp_table. . . . . . . . . . . . . . .  STATIC   XDATA  ARRAY    0007H  88
TCPIP_LISTEN . . . . . . . . . . . . .  TYPEDEF  -----  STRUCT   -----  3
  LocalPort. . . . . . . . . . . . . .  MEMBER   -----  U_INT    0000H  2
  InterfaceId. . . . . . . . . . . . .  MEMBER   -----  U_CHAR   0002H  1
byte . . . . . . . . . . . . . . . . .  TYPEDEF  -----  U_CHAR   -----  1
uip_stats_t. . . . . . . . . . . . . .  TYPEDEF  -----  U_INT    -----  2
TCPIP_TCP_CONNECT. . . . . . . . . . .  TYPEDEF  -----  STRUCT   -----  30
  State. . . . . . . . . . . . . . . .  MEMBER   -----  U_CHAR   0000H  1
  InterfaceId. . . . . . . . . . . . .  MEMBER   -----  U_CHAR   0001H  1
  AppId. . . . . . . . . . . . . . . .  MEMBER   -----  U_CHAR   0002H  1
  FinalFlag. . . . . . . . . . . . . .  MEMBER   -----  U_CHAR   0003H  1
  Ip . . . . . . . . . . . . . . . . .  MEMBER   -----  U_LONG   0004H  4
  Seq. . . . . . . . . . . . . . . . .  MEMBER   -----  ARRAY    0008H  4
  PSocket. . . . . . . . . . . . . . .  MEMBER   -----  VOID_PTR 000CH  2
  XmitLen. . . . . . . . . . . . . . .  MEMBER   -----  U_INT    000EH  2
  SecXmitLen . . . . . . . . . . . . .  MEMBER   -----  U_INT    0010H  2
  LeftLen. . . . . . . . . . . . . . .  MEMBER   -----  U_INT    0012H  2
  PData. . . . . . . . . . . . . . . .  MEMBER   -----  PTR      0014H  3
  PSecData . . . . . . . . . . . . . .  MEMBER   -----  PTR      0017H  3
  PNextData. . . . . . . . . . . . . .  MEMBER   -----  PTR      001AH  3
  Count. . . . . . . . . . . . . . . .  MEMBER   -----  U_CHAR   001DH  1
TCPIP_UDP_CONNECT. . . . . . . . . . .  TYPEDEF  -----  STRUCT   -----  22
  State. . . . . . . . . . . . . . . .  MEMBER   -----  U_CHAR   0000H  1
  InterfaceId. . . . . . . . . . . . .  MEMBER   -----  U_CHAR   0001H  1
  AppId. . . . . . . . . . . . . . . .  MEMBER   -----  U_CHAR   0002H  1
  Ip . . . . . . . . . . . . . . . . .  MEMBER   -----  U_LONG   0003H  4
  LocalPort. . . . . . . . . . . . . .  MEMBER   -----  U_INT    0007H  2
  RemotePort . . . . . . . . . . . . .  MEMBER   -----  U_INT    0009H  2
  HeadLen. . . . . . . . . . . . . . .  MEMBER   -----  U_CHAR   000BH  1
  PayloadLen . . . . . . . . . . . . .  MEMBER   -----  U_INT    000CH  2
  PHead. . . . . . . . . . . . . . . .  MEMBER   -----  PTR      000EH  3
  PPayload . . . . . . . . . . . . . .  MEMBER   -----  PTR      0011H  3
  PSocket. . . . . . . . . . . . . . .  MEMBER   -----  VOID_PTR 0014H  2
ethip_hdr. . . . . . . . . . . . . . .  * TAG *  -----  STRUCT   -----  34
  ethhdr . . . . . . . . . . . . . . .  MEMBER   -----  STRUCT   0000H  14
  vhl. . . . . . . . . . . . . . . . .  MEMBER   -----  U_CHAR   000EH  1
  tos. . . . . . . . . . . . . . . . .  MEMBER   -----  U_CHAR   000FH  1
  len. . . . . . . . . . . . . . . . .  MEMBER   -----  ARRAY    0010H  2
  ipid . . . . . . . . . . . . . . . .  MEMBER   -----  ARRAY    0012H  2
  ipoffset . . . . . . . . . . . . . .  MEMBER   -----  ARRAY    0014H  2
  ttl. . . . . . . . . . . . . . . . .  MEMBER   -----  U_CHAR   0016H  1
  proto. . . . . . . . . . . . . . . .  MEMBER   -----  U_CHAR   0017H  1
  ipchksum . . . . . . . . . . . . . .  MEMBER   -----  U_INT    0018H  2
  srcipaddr. . . . . . . . . . . . . .  MEMBER   -----  ARRAY    001AH  4
  destipaddr . . . . . . . . . . . . .  MEMBER   -----  ARRAY    001EH  4
word . . . . . . . . . . . . . . . . .  TYPEDEF  -----  U_INT    -----  2
sint . . . . . . . . . . . . . . . . .  TYPEDEF  -----  INT      -----  2
uint . . . . . . . . . . . . . . . . .  TYPEDEF  -----  U_INT    -----  2
uip_arp_draddr . . . . . . . . . . . .  EXTERN   IDATA  ARRAY    -----  4
uip_arp_netmask. . . . . . . . . . . .  EXTERN   IDATA  ARRAY    -----  4
uip_icmpip_hdr . . . . . . . . . . . .  TYPEDEF  -----  STRUCT   -----  28
  vhl. . . . . . . . . . . . . . . . .  MEMBER   -----  U_CHAR   0000H  1
  tos. . . . . . . . . . . . . . . . .  MEMBER   -----  U_CHAR   0001H  1
  len. . . . . . . . . . . . . . . . .  MEMBER   -----  ARRAY    0002H  2
  ipid . . . . . . . . . . . . . . . .  MEMBER   -----  ARRAY    0004H  2
C51 COMPILER V8.06   UIP_ARP                                                               03/17/2026 10:18:44 PAGE 93  

NAME                                    CLASS   MSPACE  TYPE    OFFSET  SIZE
====                                    =====   ======  ====    ======  ====


  ipoffset . . . . . . . . . . . . . .  MEMBER   -----  ARRAY    0006H  2
  ttl. . . . . . . . . . . . . . . . .  MEMBER   -----  U_CHAR   0008H  1
  proto. . . . . . . . . . . . . . . .  MEMBER   -----  U_CHAR   0009H  1
  ipchksum . . . . . . . . . . . . . .  MEMBER   -----  U_INT    000AH  2
  srcipaddr. . . . . . . . . . . . . .  MEMBER   -----  ARRAY    000CH  4
  destipaddr . . . . . . . . . . . . .  MEMBER   -----  ARRAY    0010H  4
  type . . . . . . . . . . . . . . . .  MEMBER   -----  U_CHAR   0014H  1
  icode. . . . . . . . . . . . . . . .  MEMBER   -----  U_CHAR   0015H  1
  icmpchksum . . . . . . . . . . . . .  MEMBER   -----  U_INT    0016H  2
  id . . . . . . . . . . . . . . . . .  MEMBER   -----  U_INT    0018H  2
  seqno. . . . . . . . . . . . . . . .  MEMBER   -----  U_INT    001AH  2
uip_getgatewaymacaddrflag. . . . . . .  PUBLIC   XDATA  U_CHAR   005FH  1
arp_entry. . . . . . . . . . . . . . .  * TAG *  -----  STRUCT   -----  11
  ipaddr . . . . . . . . . . . . . . .  MEMBER   -----  ARRAY    0000H  4
  ethaddr. . . . . . . . . . . . . . .  MEMBER   -----  STRUCT   0004H  6
  time . . . . . . . . . . . . . . . .  MEMBER   -----  U_CHAR   000AH  1
_uip_arp_update. . . . . . . . . . . .  STATIC   CODE   PROC     0000H  -----
  ipaddr . . . . . . . . . . . . . . .  AUTO     XDATA  PTR      0000H  3
  ethaddr. . . . . . . . . . . . . . .  AUTO     XDATA  PTR      0003H  3
  tabptr . . . . . . . . . . . . . . .  AUTO     XDATA  PTR      0006H  3
uip_conn . . . . . . . . . . . . . . .  * TAG *  -----  STRUCT   -----  35
  ripaddr. . . . . . . . . . . . . . .  MEMBER   -----  ARRAY    0000H  4
  lport. . . . . . . . . . . . . . . .  MEMBER   -----  U_INT    0004H  2
  rport. . . . . . . . . . . . . . . .  MEMBER   -----  U_INT    0006H  2
  rcv_nxt. . . . . . . . . . . . . . .  MEMBER   -----  ARRAY    0008H  4
  snd_nxt. . . . . . . . . . . . . . .  MEMBER   -----  ARRAY    000CH  4
  len. . . . . . . . . . . . . . . . .  MEMBER   -----  U_INT    0010H  2
  mss. . . . . . . . . . . . . . . . .  MEMBER   -----  U_INT    0012H  2
  initialmss . . . . . . . . . . . . .  MEMBER   -----  U_INT    0014H  2
  sa . . . . . . . . . . . . . . . . .  MEMBER   -----  U_CHAR   0016H  1
  sv . . . . . . . . . . . . . . . . .  MEMBER   -----  U_CHAR   0017H  1
  rto. . . . . . . . . . . . . . . . .  MEMBER   -----  U_CHAR   0018H  1
  tcpstateflags. . . . . . . . . . . .  MEMBER   -----  U_CHAR   0019H  1
  timer. . . . . . . . . . . . . . . .  MEMBER   -----  U_CHAR   001AH  1
  nrtx . . . . . . . . . . . . . . . .  MEMBER   -----  U_CHAR   001BH  1
  window . . . . . . . . . . . . . . .  MEMBER   -----  ARRAY    001CH  2
  keepaliveflag. . . . . . . . . . . .  MEMBER   -----  U_CHAR   001EH  1
  sndkeepalive . . . . . . . . . . . .  MEMBER   -----  U_CHAR   001FH  1
  keepalivetick. . . . . . . . . . . .  MEMBER   -----  U_INT    0020H  2
  tcpip_id . . . . . . . . . . . . . .  MEMBER   -----  U_CHAR   0022H  1
c. . . . . . . . . . . . . . . . . . .  STATIC   XDATA  U_CHAR   0060H  1
uip_stats. . . . . . . . . . . . . . .  * TAG *  -----  STRUCT   -----  44
  ip . . . . . . . . . . . . . . . . .  MEMBER   -----  STRUCT   0000H  18
  icmp . . . . . . . . . . . . . . . .  MEMBER   -----  STRUCT   0012H  8
  tcp. . . . . . . . . . . . . . . . .  MEMBER   -----  STRUCT   001AH  18
arp_hdr. . . . . . . . . . . . . . . .  * TAG *  -----  STRUCT   -----  42
  ethhdr . . . . . . . . . . . . . . .  MEMBER   -----  STRUCT   0000H  14
  hwtype . . . . . . . . . . . . . . .  MEMBER   -----  U_INT    000EH  2
  protocol . . . . . . . . . . . . . .  MEMBER   -----  U_INT    0010H  2
  hwlen. . . . . . . . . . . . . . . .  MEMBER   -----  U_CHAR   0012H  1
  protolen . . . . . . . . . . . . . .  MEMBER   -----  U_CHAR   0013H  1
  opcode . . . . . . . . . . . . . . .  MEMBER   -----  U_INT    0014H  2
  shwaddr. . . . . . . . . . . . . . .  MEMBER   -----  STRUCT   0016H  6
  sipaddr. . . . . . . . . . . . . . .  MEMBER   -----  ARRAY    001CH  4
  dhwaddr. . . . . . . . . . . . . . .  MEMBER   -----  STRUCT   0020H  6
  dipaddr. . . . . . . . . . . . . . .  MEMBER   -----  ARRAY    0026H  4
i. . . . . . . . . . . . . . . . . . .  STATIC   XDATA  U_CHAR   0061H  1
C51 COMPILER V8.06   UIP_ARP                                                               03/17/2026 10:18:44 PAGE 94  

NAME                                    CLASS   MSPACE  TYPE    OFFSET  SIZE
====                                    =====   ======  ====    ======  ====


uip_buf. . . . . . . . . . . . . . . .  EXTERN   XDATA  ARRAY    -----  -----
uip_eth_addr . . . . . . . . . . . . .  * TAG *  -----  STRUCT   -----  6
  addr . . . . . . . . . . . . . . . .  MEMBER   -----  ARRAY    0000H  6
uip_len. . . . . . . . . . . . . . . .  EXTERN   IDATA  U_INT    -----  2
uip_arp_arpin. . . . . . . . . . . . .  PUBLIC   CODE   PROC     0000H  -----
  tabptr . . . . . . . . . . . . . . .  AUTO     XDATA  PTR      0000H  3
uip_tcpip_hdr. . . . . . . . . . . . .  TYPEDEF  -----  STRUCT   -----  44
  vhl. . . . . . . . . . . . . . . . .  MEMBER   -----  U_CHAR   0000H  1
  tos. . . . . . . . . . . . . . . . .  MEMBER   -----  U_CHAR   0001H  1
  len. . . . . . . . . . . . . . . . .  MEMBER   -----  ARRAY    0002H  2
  ipid . . . . . . . . . . . . . . . .  MEMBER   -----  ARRAY    0004H  2
  ipoffset . . . . . . . . . . . . . .  MEMBER   -----  ARRAY    0006H  2
  ttl. . . . . . . . . . . . . . . . .  MEMBER   -----  U_CHAR   0008H  1
  proto. . . . . . . . . . . . . . . .  MEMBER   -----  U_CHAR   0009H  1
  ipchksum . . . . . . . . . . . . . .  MEMBER   -----  U_INT    000AH  2
  srcipaddr. . . . . . . . . . . . . .  MEMBER   -----  ARRAY    000CH  4
  destipaddr . . . . . . . . . . . . .  MEMBER   -----  ARRAY    0010H  4
  srcport. . . . . . . . . . . . . . .  MEMBER   -----  U_INT    0014H  2
  destport . . . . . . . . . . . . . .  MEMBER   -----  U_INT    0016H  2
  seqno. . . . . . . . . . . . . . . .  MEMBER   -----  ARRAY    0018H  4
  ackno. . . . . . . . . . . . . . . .  MEMBER   -----  ARRAY    001CH  4
  tcpoffset. . . . . . . . . . . . . .  MEMBER   -----  U_CHAR   0020H  1
  flags. . . . . . . . . . . . . . . .  MEMBER   -----  U_CHAR   0021H  1
  wnd. . . . . . . . . . . . . . . . .  MEMBER   -----  ARRAY    0022H  2
  tcpchksum. . . . . . . . . . . . . .  MEMBER   -----  U_INT    0024H  2
  urgp . . . . . . . . . . . . . . . .  MEMBER   -----  ARRAY    0026H  2
  optdata. . . . . . . . . . . . . . .  MEMBER   -----  ARRAY    0028H  4
uip_udpip_hdr. . . . . . . . . . . . .  TYPEDEF  -----  STRUCT   -----  28
  vhl. . . . . . . . . . . . . . . . .  MEMBER   -----  U_CHAR   0000H  1
  tos. . . . . . . . . . . . . . . . .  MEMBER   -----  U_CHAR   0001H  1
  len. . . . . . . . . . . . . . . . .  MEMBER   -----  ARRAY    0002H  2
  ipid . . . . . . . . . . . . . . . .  MEMBER   -----  ARRAY    0004H  2
  ipoffset . . . . . . . . . . . . . .  MEMBER   -----  ARRAY    0006H  2
  ttl. . . . . . . . . . . . . . . . .  MEMBER   -----  U_CHAR   0008H  1
  proto. . . . . . . . . . . . . . . .  MEMBER   -----  U_CHAR   0009H  1
  ipchksum . . . . . . . . . . . . . .  MEMBER   -----  U_INT    000AH  2
  srcipaddr. . . . . . . . . . . . . .  MEMBER   -----  ARRAY    000CH  4
  destipaddr . . . . . . . . . . . . .  MEMBER   -----  ARRAY    0010H  4
  srcport. . . . . . . . . . . . . . .  MEMBER   -----  U_INT    0014H  2
  destport . . . . . . . . . . . . . .  MEMBER   -----  U_INT    0016H  2
  udplen . . . . . . . . . . . . . . .  MEMBER   -----  U_INT    0018H  2
  udpchksum. . . . . . . . . . . . . .  MEMBER   -----  U_INT    001AH  2
arptime. . . . . . . . . . . . . . . .  STATIC   XDATA  U_CHAR   0062H  1
ipaddr . . . . . . . . . . . . . . . .  STATIC   XDATA  ARRAY    0063H  4
uip_gatewaymacaddr . . . . . . . . . .  PUBLIC   XDATA  STRUCT   0067H  6
uip_arp_timer. . . . . . . . . . . . .  PUBLIC   CODE   PROC     0000H  -----
  tabptr . . . . . . . . . . . . . . .  AUTO     XDATA  PTR      0000H  3
_TCPIP_APPLICATION . . . . . . . . . .  * TAG *  -----  STRUCT   -----  10
  Valid. . . . . . . . . . . . . . . .  MEMBER   -----  U_CHAR   0000H  1
  NewConnHandle. . . . . . . . . . . .  MEMBER   -----  PTR      0001H  3
  EventHandle. . . . . . . . . . . . .  MEMBER   -----  PTR      0004H  3
  ReceiveHandle. . . . . . . . . . . .  MEMBER   -----  PTR      0007H  3


MODULE INFORMATION:   STATIC OVERLAYABLE
   CODE SIZE        =   3379    ----
   CONSTANT SIZE    =   ----    ----
   XDATA SIZE       =    133    ----
C51 COMPILER V8.06   UIP_ARP                                                               03/17/2026 10:18:44 PAGE 95  

   PDATA SIZE       =   ----    ----
   DATA SIZE        =   ----    ----
   IDATA SIZE       =   ----    ----
   BIT SIZE         =   ----    ----
   EDATA SIZE       =   ----    ----
   HDATA SIZE       =   ----    ----
   XDATA CONST SIZE =   ----    ----
   FAR CONST SIZE   =   ----    ----
END OF MODULE INFORMATION.


C51 COMPILATION COMPLETE.  0 WARNING(S),  0 ERROR(S)
