C51 COMPILER V8.06   DMA                                                                   03/13/2026 10:21:42 PAGE 1   


C51 COMPILER V8.06, COMPILATION OF MODULE DMA
OBJECT MODULE PLACED IN dma.obj
COMPILER INVOKED BY: C:\Keil\C51\BIN\C51.EXE src\swdma\dma.c LARGE OMF2 ROM(D16M) OPTIMIZE(0,SPEED) BROWSE INTVECTOR(0X6
                    -020) INCDIR(.\src\cpu\;.\src\ethernet;.\src\swdma\;.\src\mstimer\;.\src\uart\;.\src\main\;.\src\tcpip\;.\src\hsur\;.\src
                    -\gs2e\;.\src\debug\;.\src\dhcp;.\src\dns\;.\src\adapter\;.\src\pppoe\;.\src\console;.\src\telnet;.\src\smtp;.\src\http;.
                    -\src\web_page;.\src\si2c;.\src\eeprom;.\src\ping;.\src\fpga;.\src\menu;.\src\spi) DEFINE(RuntimeCodeAt24KH) VARBANKING D
                    -EBUG CODE LISTINCLUDE SYMBOLS PRINT(.\dma.lst) OBJECT(dma.obj)

line level    source

   1          //=============================================================================
   2          //     Copyright (c) 2006       ASIX Electronic Corporation      All rights reserved.
   3          //
   4          //     This is unpublished proprietary source code of ASIX Electronic Corporation
   5          //
   6          //     The copyright notice above does not evidence any actual or intended
   7          //     publication of such source code.
   8          //=============================================================================
   9          //
  10          //=============================================================================
  11          // Module Name: dma.c
  12          // Purpose:
  13          // Author:
  14          // Date:
  15          // Notes:
  16          // $Log: dma.c,v $
  17          // Revision 1.1  2006/05/12 14:24:19  robin6633
  18          // no message
  19          //
  20          // Revision 1.1.1.1  2006/02/23 00:55:10  borbin
  21          // no message
  22          //
  23          //=============================================================================
  24          
  25          // INCLUDE FILE DECLARATIONS //
  26          #include "reg80390.h"
   1      =1  //--------------------------------------------------------------------------
   2      =1  // AX110XX.H
   3      =1  //
   4      =1  // Header file for the AX110XX.
   5      =1  // Copyright (c) 2001 Keil Software, Inc.  All rights reserved.
   6      =1  //--------------------------------------------------------------------------
   7      =1  //
   8      =1  // --------------------------------------------------------------------------*/
   9      =1  // Make sure that this file gets included only once.
  10      =1  // --------------------------------------------------------------------------*/
  11      =1  #ifndef AX110XX_HEADER_FILE
  12      =1  #define AX110XX_HEADER_FILE             1
  13      =1  // --------------------------------------------------------------------------*/
  14      =1  // Byte Registers
  15      =1  // --------------------------------------------------------------------------*/
  16      =1  sfr     P0                      = 0x80;// Port 0
  17      =1  sfr     SP                      = 0x81;// Stack Pointer
  18      =1  sfr     DPL0            = 0x82;// Data Pointer 0 Low Byte
  19      =1  sfr     DPH0            = 0x83;// Data Pointer 0 High Byte
  20      =1  sfr     DPL                     = 0x82;// Data Pointer 0 Low Byte
  21      =1  sfr     DPH                     = 0x83;// Data Pointer 0 High Byte
  22      =1  sfr     DPL1            = 0x84;// Data Pointer 1 Low Byte
  23      =1  sfr     DPH1            = 0x85;// Data Pointer 1 High Byte
  24      =1  sfr     DPS                     = 0x86;// Data Pointers Select Register
  25      =1  sfr     PCON            = 0x87;// Power Configuration Register
C51 COMPILER V8.06   DMA                                                                   03/13/2026 10:21:42 PAGE 2   

  26      =1  sfr TCON                = 0x88;// Timer 0,1 Configuration Register
  27      =1  sfr TMOD                = 0x89;// Timer 0,1 Control Mode Register
  28      =1  sfr TL0                 = 0x8A;// Timer 0 Low Byte Counter
  29      =1  sfr TL1                 = 0x8B;// Timer 1 Low Byte Counter
  30      =1  sfr TH0                 = 0x8C;// Timer 0 High Byte Counter
  31      =1  sfr TH1                 = 0x8D;// Timer 1 High Byte Counter
  32      =1  sfr CKCON               = 0x8E;// Clock Control Register
  33      =1  sfr CSREPR              = 0x8F;// Software Reset and External Program RAM Select Register
  34      =1  
  35      =1  sfr P1                  = 0x90;// Port 1
  36      =1  sfr EIF                 = 0x91;// Extended Interrupt Flag Register
  37      =1  sfr WTST                = 0x92;// Program Wait States Register
  38      =1  sfr DPX0                = 0x93;// Data Pointer Extended Register 0
  39      =1  sfr DPX                 = 0x93;// Data Pointer Extended Register 0
  40      =1  sfr     SDSTSR          = 0x94;// Software Timer and Software DMA complete interrupt status
  41      =1  sfr DPX1                = 0x95;// Data Pointer Extended Register 1
  42      =1  sfr I2CCIR              = 0x96;// I2C Command Index Register
  43      =1  sfr I2CDR               = 0x97;// I2C Data Register
  44      =1  sfr SCON0               = 0x98;// UART 0 Configuration Register
  45      =1  sfr SBUF0               = 0x99;// UART 0 Buffer Register
  46      =1  sfr DBAR                = 0x9A;// DMA Bus Arbitration Register
  47      =1  sfr DCIR                = 0x9B;// DMA Command Index Register
  48      =1  sfr DDR                 = 0x9C;// DMA Data Register
  49      =1  sfr ACON                = 0x9D;// Address Control Register
  50      =1  sfr PISSR1              = 0x9E;// Peripheral Interrupt Status Summary Register 1
  51      =1  sfr PISSR2              = 0x9F;// Peripheral Interrupt Status Summary Register 2
  52      =1  
  53      =1  sfr P2                  = 0xA0;// Port 2
  54      =1  // Local Bus Master Mode //
  55      =1  sfr LMSR                = 0xA1;// Local Bus Mode Setup Register
  56      =1  sfr LCR                 = 0xA2;// Local Bus Command Register
  57      =1  sfr LSR                 = 0xA3;// Local Bus Status Register
  58      =1  sfr LDALR               = 0xA4;// Local Bus Device Address Low Register
  59      =1  sfr LDAHR               = 0xA5;// Local Bus Device Address High Register
  60      =1  sfr LDCSR               = 0xA6;// Local Bus Device Chip Select Register
  61      =1  // Local Bus Slave Mode //
  62      =1  sfr LSAIER              = 0xA1;// Local Bus Slave mode Action and Interrupt Enable Register
  63      =1  sfr LSCR                = 0xA2;// Local Bus Slave mode Command Register
  64      =1  sfr LSSR                = 0xA3;// Local Bus Slave mode Status Register
  65      =1  sfr XMWLR               = 0xA4;// External Master Write-read Low Register
  66      =1  sfr XMWHR               = 0xA5;// External Master Write-read High Register
  67      =1  sfr XMRLR               = 0xA6;// External Master Read-only Low Register
  68      =1  sfr XMRHR               = 0xA7;// External Master Read-only High Register
  69      =1  
  70      =1  sfr IE                  = 0xA8;// Interrupt Enable register
  71      =1  sfr LDLR                = 0xA9;// Local Bus Data Low Register
  72      =1  sfr LDHR                = 0xAA;// Local Bus Data High Register
  73      =1  sfr DMALR               = 0xAB;// Local Bus DMA Address Low Register
  74      =1  sfr DMAMR               = 0xAC;// Local Bus DMA Address Medium Register
  75      =1  sfr DMAHR               = 0xAD;// Local Bus DMA Address High Register
  76      =1  sfr TCIR                = 0xAE;// TOE Command Index Register
  77      =1  sfr     TDR                     = 0xAF;// TOE Data Register
  78      =1  
  79      =1  sfr P3                  = 0xB0;// Port 3
  80      =1  sfr CCAPL0      = 0xB1;// PCA Module 0 Compare/Capture Low Byte Register
  81      =1  sfr CCAPL1      = 0xB2;// PCA Module 1 Compare/Capture Low Byte Register
  82      =1  sfr CCAPL2      = 0xB3;// PCA Module 2 Compare/Capture Low Byte Register
  83      =1  sfr CCAPL3      = 0xB4;// PCA Module 3 Compare/Capture Low Byte Register
  84      =1  sfr CCAPL4      = 0xB5;// PCA Module 4 Compare/Capture Low Byte Register
  85      =1  sfr MCIR                = 0xB6;// MAC Command Index Register
  86      =1  sfr MDR                 = 0xB7;// MAC Data Register
  87      =1  sfr IP                  = 0xB8;// Interrupt Priority Register
C51 COMPILER V8.06   DMA                                                                   03/13/2026 10:21:42 PAGE 3   

  88      =1  sfr CCAPH0      = 0xB9;// PCA Module 0 Compare/Capture High Byte Register
  89      =1  sfr CCAPH1      = 0xBA;// PCA Module 1 Compare/Capture High Byte Register
  90      =1  sfr CCAPH2      = 0xBB;// PCA Module 2 Compare/Capture High Byte Register
  91      =1  sfr CCAPH3      = 0xBC;// PCA Module 3 Compare/Capture High Byte Register
  92      =1  sfr CCAPH4      = 0xBD;// PCA Module 4 Compare/Capture High Byte Register
  93      =1  sfr EPCR                = 0xBE;// Ethernet PHY Command Index Register
  94      =1  sfr EPDR                = 0xBF;// Ethernet PHY Data Register
  95      =1  
  96      =1  sfr SCON1               = 0xC0;// UART 1 Configuration Register
  97      =1  sfr SBUF1               = 0xC1;// UART 1 Buffer Register
  98      =1  sfr CMOD                = 0xC2;// PCA Timer/Counter Mode Register
  99      =1  sfr CCON                = 0xC3;// PCA Timer/Counter Control Register
 100      =1  sfr CL                  = 0xC4;// PCA Timer/Counter Low
 101      =1  sfr CH                  = 0xC5;// PCA Timer/Counter High
 102      =1  sfr T2CON               = 0xC8;// Timer 2 Configuration Register
 103      =1  sfr T2IF                = 0xC9;// Timer 2 Interrupt Flags
 104      =1  sfr RLDL                = 0xCA;// Timer 2 Reload Low Byte
 105      =1  sfr RLDH                = 0xCB;// Timer 2 Reload High Byte
 106      =1  sfr TL2                 = 0xCC;// Timer 2 Low Byte Counter
 107      =1  sfr TH2                 = 0xCD;// Timer 2 High Byte Counter
 108      =1  sfr SPICIR              = 0xCE;// SPI Command Index Register
 109      =1  sfr SPIDR               = 0xCF;// SPI Data Register
 110      =1  
 111      =1  sfr PSW                 = 0xD0;// Program Status Word
 112      =1  sfr CCAPM0              = 0xD1;// PCA Compare/Capture Module Mode Register 0
 113      =1  sfr CCAPM1              = 0xD2;// PCA Compare/Capture Module Mode Register 1
 114      =1  sfr CCAPM2              = 0xD3;// PCA Compare/Capture Module Mode Register 2
 115      =1  sfr CCAPM3              = 0xD4;// PCA Compare/Capture Module Mode Register 3
 116      =1  sfr CCAPM4              = 0xD5;// PCA Compare/Capture Module Mode Register 4
 117      =1  sfr OWCIR               = 0xD6;// OneWire Command Index Register
 118      =1  sfr OWDR                = 0xD7;// OneWire Data Register
 119      =1  sfr WDCON               = 0xD8;// Watchdog Configuration
 120      =1  sfr CANCIR              = 0xDE;// CAN Bus Command Index Register
 121      =1  sfr CANDR               = 0xDF;// CAN Bus Data Register
 122      =1  
 123      =1  sfr ACC                 = 0xE0;// Accumulator
 124      =1  
 125      =1  // UART2 registers //
 126      =1  sfr     UR2_DLL         = 0xE1;// High Speed UART2 Divisor Latch Low Register
 127      =1  sfr     UR2_THR         = 0xE1;// High Speed UART2 Transmit Holding Register for Writing
 128      =1  sfr     UR2_RBR         = 0xE1;// High Speed UART2 Receive Buffer Register for Reading
 129      =1  sfr     UR2_DLH         = 0xE2;// High Speed UART2 Divisor Latch High Register
 130      =1  sfr     UR2_IER         = 0xE2;// High Speed UART2 Interrupt Enable Register
 131      =1  sfr     UR2_FCR         = 0xE3;// High Speed UART2 FIFO Control Register for Writing
 132      =1  sfr     UR2_IIR         = 0xE3;// High Speed UART2 Interrupt Identification Register for Reading
 133      =1  sfr     UR2_LCR         = 0xE4;// High Speed UART2 Line Control Register
 134      =1  sfr     UR2_MCR         = 0xE5;// High Speed UART2 Modem Control Register
 135      =1  sfr     UR2_LSR         = 0xE6;// High Speed UART2 Line Status Register
 136      =1  sfr     UR2_MSR         = 0xE7;// High Speed UART2 Modem Status Register
 137      =1  
 138      =1  sfr EIE                 = 0xE8;// External Interrupt Enable
 139      =1  sfr STATUS              = 0xE9;// Status Register
 140      =1  sfr MXAX                = 0xEA;// MOVX @Ri Extended Register
 141      =1  sfr TA                  = 0xEB;// Timed Access Protection
 142      =1  
 143      =1  sfr B                   = 0xF0;// B Working Register
 144      =1  sfr EIP                 = 0xF8;// Extended Interrupt Priority Register
 145      =1  sfr MD0                 = 0xF9;// MDU Data 0
 146      =1  sfr MD1                 = 0xFA;// MDU Data 1
 147      =1  sfr MD2                 = 0xFB;// MDU Data 2
 148      =1  sfr MD3                 = 0xFC;// MDU Data 3
 149      =1  sfr MD4                 = 0xFD;// MDU Data 4
C51 COMPILER V8.06   DMA                                                                   03/13/2026 10:21:42 PAGE 4   

 150      =1  sfr MD5                 = 0xFE;// MDU Data 5
 151      =1  sfr ARCON               = 0xFF;// MDU Control Register
 152      =1  //--------------------------------------------------------------------------
 153      =1  // P0 (0x80) Bit Registers
 154      =1  //--------------------------------------------------------------------------
 155      =1  sbit P0_0               = 0x80;
 156      =1  sbit P0_1               = 0x81;
 157      =1  sbit P0_2               = 0x82;
 158      =1  sbit P0_3               = 0x83;
 159      =1  sbit P0_4               = 0x84;
 160      =1  sbit P0_5               = 0x85;
 161      =1  sbit P0_6               = 0x86;
 162      =1  sbit P0_7               = 0x87;
 163      =1  //--------------------------------------------------------------------------
 164      =1  // DPS (0x86) Bit Values
 165      =1  //--------------------------------------------------------------------------
 166      =1  #define SEL_    0x01
 167      =1  #define TSL_    0x20
 168      =1  #define ID0_    0x40
 169      =1  #define ID1_    0x80
 170      =1  //--------------------------------------------------------------------------
 171      =1  // PCON (0x87) Bit Values
 172      =1  //--------------------------------------------------------------------------
 173      =1  #define PMM_    0x01
 174      =1  #define STOP_   0x02
 175      =1  #define SWB_    0x04
 176      =1  #define PWE_    0x10
 177      =1  #define SMOD1_  0x40
 178      =1  #define SMOD2_  0x80
 179      =1  //--------------------------------------------------------------------------
 180      =1  // TCON (0x88) Bit Registers
 181      =1  //--------------------------------------------------------------------------
 182      =1  sbit    IT0             = 0x88;
 183      =1  sbit    IE0             = 0x89;
 184      =1  sbit    IT1             = 0x8A;
 185      =1  sbit    IE1             = 0x8B;
 186      =1  sbit    TR0             = 0x8C;
 187      =1  sbit    TF0             = 0x8D;
 188      =1  sbit    TR1             = 0x8E;
 189      =1  sbit    TF1             = 0x8F;
 190      =1  //--------------------------------------------------------------------------
 191      =1  // TMOD (0x89) Bit Values
 192      =1  //--------------------------------------------------------------------------
 193      =1  #define T0_M0_          0x01
 194      =1  #define T0_M1_          0x02
 195      =1  #define T0_CT_          0x04
 196      =1  #define T0_GATE_        0x08
 197      =1  #define T1_M0_          0x10
 198      =1  #define T1_M1_          0x20
 199      =1  #define T1_CT_          0x40
 200      =1  #define T1_GATE_        0x80
 201      =1  
 202      =1  #define T1_MASK_        0xF0
 203      =1  #define T0_MASK_        0x0F
 204      =1  //--------------------------------------------------------------------------
 205      =1  // CKCON (0x8E) Bit Values
 206      =1  //--------------------------------------------------------------------------
 207      =1  #define MD0_    0x01
 208      =1  #define MD1_    0x02
 209      =1  #define MD2_    0x04
 210      =1  #define T0M_    0x08
 211      =1  #define T1M_    0x10
C51 COMPILER V8.06   DMA                                                                   03/13/2026 10:21:42 PAGE 5   

 212      =1  #define T2M_    0x20
 213      =1  #define WD0_    0x40
 214      =1  #define WD1_    0x80
 215      =1  //--------------------------------------------------------------------------
 216      =1  // CSREPR (0x8F) Bit Values
 217      =1  //--------------------------------------------------------------------------
 218      =1  #define SW_RST                          0x01
 219      =1  #define SW_RBT                          0x02
 220      =1  #define FARM                            0x04
 221      =1  #define FAES                            0x08
 222      =1  #define PMS                                     0x10
 223      =1  #define SCS_100M                        0xC0
 224      =1  #define SCS_75M                         0x80
 225      =1  #define SCS_50M                         0x40
 226      =1  #define SCS_25M                         0x00
 227      =1  //--------------------------------------------------------------------------
 228      =1  // P1 (0x90) Bit Registers
 229      =1  //--------------------------------------------------------------------------
 230      =1  sbit P1_0               = 0x90;
 231      =1  sbit P1_1               = 0x91;
 232      =1  sbit P1_2               = 0x92;
 233      =1  sbit P1_3               = 0x93;
 234      =1  sbit P1_4               = 0x94;
 235      =1  sbit P1_5               = 0x95;
 236      =1  sbit P1_6               = 0x96;
 237      =1  sbit P1_7               = 0x97;
 238      =1  //--------------------------------------------------------------------------
 239      =1  // EIF (0x91) Bit Values
 240      =1  //--------------------------------------------------------------------------
 241      =1  #define INT2F           0x01
 242      =1  #define INT3F           0x02
 243      =1  #define INT4F           0x04
 244      =1  #define INT5F           0x08
 245      =1  #define INT6F           0x10
 246      =1  //--------------------------------------------------------------------------
 247      =1  // SCON0 (0x98) Bit Registers
 248      =1  //--------------------------------------------------------------------------
 249      =1  sbit RI0                        = 0x98;
 250      =1  sbit TI0                        = 0x99;
 251      =1  sbit RB08                       = 0x9A;
 252      =1  sbit TB08                       = 0x9B;
 253      =1  sbit REN0                       = 0x9C;
 254      =1  sbit SM02                       = 0x9D;
 255      =1  sbit SM01                       = 0x9E;
 256      =1  sbit SM00                       = 0x9F;
 257      =1  //--------------------------------------------------------------------------
 258      =1  // DBAR (0x9A) Bit Values
 259      =1  //--------------------------------------------------------------------------
 260      =1  #define BUS_REQ                         0x01
 261      =1  #define BUS_GRANT                       0x80
 262      =1  //--------------------------------------------------------------------------
 263      =1  // ACON (0x9D) Bit Values
 264      =1  //--------------------------------------------------------------------------
 265      =1  #define FLAT_MODE                       0x02
 266      =1  #define LARGE_MODE                      0x00
 267      =1  //--------------------------------------------------------------------------
 268      =1  // PISSR1 (0x9E) Bit Values
 269      =1  //--------------------------------------------------------------------------
 270      =1  #define LB_INT_STU                      0x01
 271      =1  #define LB_EXT_INT_STU          0x02
 272      =1  #define ETH_INT_STU                     0x04
 273      =1  #define TOE_INT_STU                     0x08
C51 COMPILER V8.06   DMA                                                                   03/13/2026 10:21:42 PAGE 6   

 274      =1  #define OW_INT_STU                      0x10
 275      =1  #define SPI_INT_STU                     0x20
 276      =1  #define I2C_INT_STU                     0x40
 277      =1  #define CAN_INT_STU                     0x80
 278      =1  //--------------------------------------------------------------------------
 279      =1  // PISSR2 (0x9F) Bit Values
 280      =1  //--------------------------------------------------------------------------
 281      =1  #define UART2_INT_STU           0x01
 282      =1  //--------------------------------------------------------------------------
 283      =1  // P2 (0xA0) Bit Registers
 284      =1  //--------------------------------------------------------------------------
 285      =1  sbit P2_0               = 0xA0;
 286      =1  sbit P2_1               = 0xA1;
 287      =1  sbit P2_2               = 0xA2;
 288      =1  sbit P2_3               = 0xA3;
 289      =1  sbit P2_4               = 0xA4;
 290      =1  sbit P2_5               = 0xA5;
 291      =1  sbit P2_6               = 0xA6;
 292      =1  sbit P2_7               = 0xA7;
 293      =1  //--------------------------------------------------------------------------
 294      =1  // IE (0xA8) Bit Registers
 295      =1  //--------------------------------------------------------------------------
 296      =1  sbit EX0                    = 0xA8;                                                       // 1=Enable Exte
             -rnal interrupt 0
 297      =1  sbit ET0                    = 0xA9;                                                       // 1=Enable Time
             -r 0 interrupt
 298      =1  sbit EX1                    = 0xAA;                                                       // 1=Enable Exte
             -rnal interrupt 1
 299      =1  sbit ET1                    = 0xAB;                                                       // 1=Enable Time
             -r 1 interrupt
 300      =1  sbit ES0                    = 0xAC;                                                       // 1=Enable Seri
             -al port 0 interrupt
 301      =1  sbit ET2                    = 0xAD;                                                       // 1=Enable Time
             -r 2 interrupt
 302      =1  sbit ES1                    = 0xAE;                                                       // 1=Enable Seri
             -al port 1 interrupt
 303      =1  sbit EA                     = 0xAF;                                                       // 0=Disabe all 
             -interrupts
 304      =1  //--------------------------------------------------------------------------
 305      =1  // P3 (0xB0) Bit Registers (Mnemonics & Ports)
 306      =1  //--------------------------------------------------------------------------
 307      =1  sbit P3_0               = 0xB0;
 308      =1  sbit P3_1               = 0xB1;
 309      =1  sbit P3_2               = 0xB2;
 310      =1  sbit P3_3               = 0xB3;
 311      =1  sbit P3_4               = 0xB4;
 312      =1  sbit P3_5               = 0xB5;
 313      =1  sbit P3_6               = 0xB6;
 314      =1  sbit P3_7               = 0xB7;
 315      =1  
 316      =1  sbit RXD                    = 0xB0;                                                       // Serial data i
             -nput
 317      =1  sbit TXD                    = 0xB1;                                                       // Serial data o
             -utput
 318      =1  sbit INT0                   = 0xB2;                                                       // External inte
             -rrupt 0
 319      =1  sbit INT1                   = 0xB3;                                                       // External inte
             -rrupt 1
 320      =1  sbit T0                     = 0xB4;                                                       // Timer 0 exter
             -nal input
 321      =1  sbit T1                     = 0xB5;                                                       // Timer 1 exter
             -nal input
C51 COMPILER V8.06   DMA                                                                   03/13/2026 10:21:42 PAGE 7   

 322      =1  sbit WR                     = 0xB6;                                                       // External data
             - memory write strobe
 323      =1  sbit RD                     = 0xB7;                                                       // External data
             - memory read strobe
 324      =1  //--------------------------------------------------------------------------
 325      =1  // IP (0xB8) Bit Registers
 326      =1  //--------------------------------------------------------------------------
 327      =1  sbit PX0                = 0xB8;
 328      =1  sbit PT0                = 0xB9;
 329      =1  sbit PX1                = 0xBA;
 330      =1  sbit PT1                = 0xBB;
 331      =1  sbit PS0                = 0xBC;
 332      =1  sbit PT2                = 0xBD;
 333      =1  sbit PS1                = 0xBE;
 334      =1  //--------------------------------------------------------------------------
 335      =1  // SCON1 (0xC0) Bit Registers
 336      =1  //--------------------------------------------------------------------------
 337      =1  sbit RI1                = 0xC0;
 338      =1  sbit TI1                = 0xC1;
 339      =1  sbit RB18               = 0xC2;
 340      =1  sbit TB18               = 0xC3;
 341      =1  sbit REN1               = 0xC4;
 342      =1  sbit SM12               = 0xC5;
 343      =1  sbit SM11               = 0xC6;
 344      =1  sbit SM10               = 0xC7;
 345      =1  //--------------------------------------------------------------------------
 346      =1  // CMOM (0xC2) Bit Values
 347      =1  //--------------------------------------------------------------------------
 348      =1  #define PCA_ECF                 0x01
 349      =1  #define PCA_T0_OF               0x08
 350      =1  #define PCA_EXT_CLK             0x0E
 351      =1  #define PCA_GATE_OFF    0x80
 352      =1  //--------------------------------------------------------------------------
 353      =1  // CCON (0xC3) Bit Values
 354      =1  //--------------------------------------------------------------------------
 355      =1  #define PCA_CCF0                0x01
 356      =1  #define PCA_CCF1                0x02
 357      =1  #define PCA_CCF2                0x04
 358      =1  #define PCA_CCF3                0x08
 359      =1  #define PCA_CCF4                0x10
 360      =1  #define PCA_CR                  0x40
 361      =1  #define PCA_CF                  0x80
 362      =1  //--------------------------------------------------------------------------
 363      =1  // T2CON (0xC8) Bit Registers
 364      =1  //--------------------------------------------------------------------------
 365      =1  sbit CPRL2              = 0xC8;
 366      =1  sbit CT2                = 0xC9;
 367      =1  sbit TR2                = 0xCA;
 368      =1  sbit EXEN2              = 0xCB;
 369      =1  sbit TCLK               = 0xCC;
 370      =1  sbit RCLK               = 0xCD;
 371      =1  sbit EXF2               = 0xCE;
 372      =1  sbit TF2                = 0xCF;
 373      =1  //--------------------------------------------------------------------------
 374      =1  // PSW (0xD0) Bit Registers
 375      =1  //--------------------------------------------------------------------------
 376      =1  sbit P                  = 0xD0;
 377      =1  sbit F1                 = 0xD1;
 378      =1  sbit OV                 = 0xD2;
 379      =1  sbit RS0                = 0xD3;
 380      =1  sbit RS1                = 0xD4;
 381      =1  sbit F0                 = 0xD5;
C51 COMPILER V8.06   DMA                                                                   03/13/2026 10:21:42 PAGE 8   

 382      =1  sbit AC                 = 0xD6;
 383      =1  sbit CY                 = 0xD7;
 384      =1  //--------------------------------------------------------------------------
 385      =1  // CCAPM0-4 (0xD1-0xD5) Bit Values
 386      =1  //--------------------------------------------------------------------------
 387      =1  #define ECCFs           0x01
 388      =1  #define PWMs            0x02
 389      =1  #define TOGs            0x04
 390      =1  #define MATs            0x08
 391      =1  #define CAPNs           0x10
 392      =1  #define CAPPs           0x20
 393      =1  #define ECOMs           0x40
 394      =1  #define CEXs            0x80
 395      =1  //--------------------------------------------------------------------------
 396      =1  // PSW (0xD8) Bit Registers
 397      =1  //--------------------------------------------------------------------------
 398      =1  sbit RWT                = 0xD8;
 399      =1  sbit EWT                = 0xD9;
 400      =1  sbit WTRF               = 0xDA;
 401      =1  sbit WDIF               = 0xDB;
 402      =1  
 403      =1  //--------------------------------------------------------------------------
 404      =1  // Interrupt Vectors:
 405      =1  // Interrupt Address = (Number * 8) + 3
 406      =1  //--------------------------------------------------------------------------
 407      =1  #define IE0_VECTOR            0                                                           // 0x03 External
             - Interrupt 0
 408      =1  #define TF0_VECTOR            1                                                           // 0x0B Timer 0
 409      =1  #define IE1_VECTOR            2                                                           // 0x13 External
             - Interrupt
 410      =1  #define TF1_VECTOR            3                                                           // 0x1B Timer 1
 411      =1  #define SIO_VECTOR            4                                                           // 0x23 Serial p
             -ort
 412      =1  //--------------------------------------------------------------------------
 413      =1  // UR2_IER (0xE2) Bit Values
 414      =1  //--------------------------------------------------------------------------
 415      =1  #define UR2_RDI_ENB             0x01
 416      =1  #define UR2_THRI_ENB    0x02
 417      =1  #define UR2_RLSI_ENB    0x04
 418      =1  #define UR2_MSI_ENB             0x08
 419      =1  //--------------------------------------------------------------------------
 420      =1  // UR2_IIR (0xE3) Bit Values
 421      =1  //--------------------------------------------------------------------------
 422      =1  #define UR2_NONE_INTR           0x01
 423      =1  #define UR2_RLS_INTR            0x06
 424      =1  #define UR2_RD_TRIG_INTR        0x04
 425      =1  #define UR2_RD_TI_INTR          0x0C
 426      =1  #define UR2_THRE_INTR           0x02
 427      =1  #define UR2_MS_INTR                     0x00
 428      =1  //--------------------------------------------------------------------------
 429      =1  // UR2_FCR (0xE3) Bit Values
 430      =1  //--------------------------------------------------------------------------
 431      =1  #define UR2_FIFO_MODE   0x01
 432      =1  #define UR2_RXFIFO_RST  0x02
 433      =1  #define UR2_TXFIFO_RST  0x04
 434      =1  #define UR2_TRIG_01             0x00
 435      =1  #define UR2_TRIG_04             0x40
 436      =1  #define UR2_TRIG_08             0x80
 437      =1  #define UR2_TRIG_14             0xC0
 438      =1  //--------------------------------------------------------------------------
 439      =1  // UR2_LCR (0xE4) Bit Values
 440      =1  //--------------------------------------------------------------------------
C51 COMPILER V8.06   DMA                                                                   03/13/2026 10:21:42 PAGE 9   

 441      =1  #define UR2_CHAR_5                      0x00
 442      =1  #define UR2_CHAR_6                      0x01
 443      =1  #define UR2_CHAR_7                      0x02
 444      =1  #define UR2_CHAR_8                      0x03
 445      =1  #define UR2_STOP_10                     0x00
 446      =1  #define UR2_STOP_15                     0x04
 447      =1  #define UR2_PARITY_ENB          0x08
 448      =1  #define UR2_EVEN_PARITY         0x10
 449      =1  #define UR2_STICK_PARITY        0x20
 450      =1  #define UR2_BREAK_ENB           0x40
 451      =1  #define UR2_DLAB_ENB            0x80
 452      =1  //--------------------------------------------------------------------------
 453      =1  // UR2_MCR (0xE5) Bit Values
 454      =1  //--------------------------------------------------------------------------
 455      =1  #define UR2_DTR                         0x01
 456      =1  #define UR2_RTS                         0x02
 457      =1  #define UR2_OUT1                        0x04
 458      =1  #define UR2_OUT2                        0x08
 459      =1  #define UR2_LOOPBACK            0x10
 460      =1  #define UR2_RS485_RECEIVE       0x40
 461      =1  #define UR2_RS485_DRIVE         0x80
 462      =1  //--------------------------------------------------------------------------
 463      =1  // UR2_LSR (0xE6) Bit Values
 464      =1  //--------------------------------------------------------------------------
 465      =1  #define UR2_DR                          0x01
 466      =1  #define UR2_OE                          0x02
 467      =1  #define UR2_PE                          0x04
 468      =1  #define UR2_FE                          0x08
 469      =1  #define UR2_BI                          0x10
 470      =1  #define UR2_THRE                        0x20
 471      =1  #define UR2_TEMT                        0x40
 472      =1  #define UR2_FRAME_ERR           0x80
 473      =1  //--------------------------------------------------------------------------
 474      =1  // UR2_MSR (0xE7) Bit Values
 475      =1  //--------------------------------------------------------------------------
 476      =1  #define UR2_DCTS                        0x01
 477      =1  #define UR2_DDSR                        0x02
 478      =1  #define UR2_TERI                        0x04
 479      =1  #define UR2_DDCD                        0x08
 480      =1  #define UR2_CTS                         0x10
 481      =1  #define UR2_DSR                         0x20
 482      =1  #define UR2_RI                          0x40
 483      =1  #define UR2_DCD                         0x80
 484      =1  //--------------------------------------------------------------------------
 485      =1  // EIE (0xE8) Bit Registers
 486      =1  //--------------------------------------------------------------------------
 487      =1  sbit EINT2              = 0xE8;
 488      =1  sbit EINT3              = 0xE9;
 489      =1  sbit EINT4              = 0xEA;
 490      =1  sbit EINT5              = 0xEB;
 491      =1  sbit EINT6              = 0xEC;
 492      =1  sbit EWDI               = 0xED;
 493      =1  //--------------------------------------------------------------------------
 494      =1  // EIP (0xF8) Bit Registers
 495      =1  //--------------------------------------------------------------------------
 496      =1  sbit PINT2              = 0xF8;
 497      =1  sbit PINT3              = 0xF9;
 498      =1  sbit PINT4              = 0xFA;
 499      =1  sbit PINT5              = 0xFB;
 500      =1  sbit PINT6              = 0xFC;
 501      =1  sbit PWDI               = 0xFD;
 502      =1  //--------------------------------------------------------------------------
C51 COMPILER V8.06   DMA                                                                   03/13/2026 10:21:42 PAGE 10  

 503      =1  //--------------------------------------------------------------------------
 504      =1  #endif
  27          #include "dma.h"
   1      =1  /*
   2      =1   ******************************************************************************
   3      =1   *     Copyright (c) 2006       ASIX Electronic Corporation      All rights reserved.
   4      =1   *
   5      =1   *     This is unpublished proprietary source code of ASIX Electronic Corporation
   6      =1   *
   7      =1   *     The copyright notice above does not evidence any actual or intended
   8      =1   *     publication of such source code.
   9      =1   ******************************************************************************
  10      =1   */
  11      =1  /*=============================================================================
  12      =1   * Module Name:dma.h
  13      =1   * Purpose:
  14      =1   * Author:
  15      =1   * Date:
  16      =1   * Notes:
  17      =1   * $Log: dma.h,v $
  18      =1   * Revision 1.1  2006/05/12 14:24:19  robin6633
  19      =1   * no message
  20      =1   *
  21      =1   * Revision 1.1.1.1  2006/02/23 00:55:10  borbin
  22      =1   * no message
  23      =1   *
  24      =1   *=============================================================================
  25      =1   */
  26      =1  
  27      =1  #ifndef __DMA_H__
  28      =1  #define __DMA_H__
  29      =1  
  30      =1  
  31      =1  /* INCLUDE FILE DECLARATIONS */
  32      =1  #include "types.h"
   1      =2  //----------------------------------------------------------------------------------------
   2      =2  //     Copyright (c) 2005       Simtek, Incorporated      All rights reserved.
   3      =2  //
   4      =2  //     This is unpublished proprietary source code of Simtek, Inc
   5      =2  //
   6      =2  //     The copyright notice above does not evidence any actual or intended
   7      =2  //     publication of such source code.
   8      =2  //----------------------------------------------------------------------------------------
   9      =2  // Module Name : types.h
  10      =2  // Purpose     : Definition of type.
  11      =2  // Author      : Robin Lee
  12      =2  // Date        : 2005-12-28
  13      =2  // Notes       : None.
  14      =2  // $Log: types.h,v $
  15      =2  //----------------------------------------------------------------------------------------
  16      =2  // Revision 1.2  2006/05/18 05:02:30  Louis
  17      =2  // no message
  18      =2  //----------------------------------------------------------------------------------------
  19      =2  // Revision 1.1  2006/04/07 11:36:17  robin6633
  20      =2  // no message
  21      =2  //----------------------------------------------------------------------------------------
  22      =2  
  23      =2  #ifndef TYPES_H
  24      =2  #define TYPES_H
  25      =2  
  26      =2  typedef unsigned short int          bool;                                                 // boolean
  27      =2  typedef unsigned char               byte;                                                 //  8-bit unsign
C51 COMPILER V8.06   DMA                                                                   03/13/2026 10:21:42 PAGE 11  

             -ed
  28      =2  typedef unsigned short int          uint;                                                 // 16-bit unsign
             -ed
  29      =2  typedef short int                   sint;                                                 // 16-bit signed
  30      =2  typedef unsigned long               ulong;                                                // 32-bit unsign
             -ed
  31      =2  typedef unsigned short int          word;                                                 // 16-bit unsign
             -ed
  32      =2  
  33      =2  #ifndef NULL
  34      =2    #define NULL ((void *) 0L)
  35      =2  #endif
  36      =2  
  37      =2  #define TRUE                  1
  38      =2  #define FALSE                 0
  39      =2  #define ON                    1
  40      =2  #define OFF                   0
  41      =2  #define Client                1
  42      =2  #define Server                0
  43      =2  
  44      =2  // Bit Definitions for Bitwise Operation //
  45      =2  #define BIT0            0x01
  46      =2  #define BIT1            0x02
  47      =2  #define BIT2            0x04
  48      =2  #define BIT3            0x08
  49      =2  #define BIT4            0x10
  50      =2  #define BIT5            0x20
  51      =2  #define BIT6            0x40
  52      =2  #define BIT7            0x80
  53      =2  #define BIT8            0x0100
  54      =2  #define BIT9            0x0200
  55      =2  #define BIT10           0x0400
  56      =2  #define BIT11           0x0800
  57      =2  #define BIT12           0x1000
  58      =2  #define BIT13           0x2000
  59      =2  #define BIT14           0x4000
  60      =2  #define BIT15           0x8000
  61      =2  #define BIT16           0x00010000
  62      =2  #define BIT17           0x00020000
  63      =2  #define BIT18           0x00040000
  64      =2  #define BIT19           0x00080000
  65      =2  #define BIT20           0x00100000
  66      =2  #define BIT21           0x00200000
  67      =2  #define BIT22           0x00400000
  68      =2  #define BIT23           0x00800000
  69      =2  #define BIT24           0x01000000
  70      =2  #define BIT25           0x02000000
  71      =2  #define BIT26           0x04000000
  72      =2  #define BIT27           0x08000000
  73      =2  #define BIT28           0x10000000
  74      =2  #define BIT29           0x20000000
  75      =2  #define BIT30           0x40000000
  76      =2  #define BIT31           0x80000000
  77      =2  
  78      =2  #define LOW_BYTE(dat)   (byte) (dat & 0x00FF)
  79      =2  #define HIGH_BYTE(dat)  (byte)((dat & 0xFF00) >> 8)
  80      =2  
  81      =2  #define U32BYTE0(dat)   (byte) (dat  & 0x000000FF)
  82      =2  #define U32BYTE1(dat)   (byte)((dat  & 0x0000FF00) >> 8)
  83      =2  #define U32BYTE2(dat)   (byte)((dat  & 0x00FF0000) >> 16)
  84      =2  #define U32BYTE3(dat)   (byte)((dat  & 0xFF000000) >> 24)
  85      =2   
C51 COMPILER V8.06   DMA                                                                   03/13/2026 10:21:42 PAGE 12  

  86      =2  // Keil compiler user define //
  87      =2  #define     KEIL_CPL
  88      =2  
  89      =2  #ifdef KEIL_CPL
  90      =2   #define XDATA    xdata
  91      =2   #define IDATA    idata
  92      =2   #define BDATA    bdata
  93      =2   #define CODE     code
  94      =2   #define FAR      far
  95      =2  #else
           =2  #define XDATA
           =2  #define IDATA
           =2  #define BDATA
           =2  #define CODE
           =2  #define FAR
           =2 #endif
 102      =2  
 103      =2  // Serial interface command direction //
 104      =2  #define     SI_WR                   BIT0
 105      =2  #define     SI_RD                   BIT1
 106      =2  
 107      =2  #define     FLASH_WR_ENB            (PCON |= PWE_)
 108      =2  #define     FLASH_WR_DISB           (PCON &= ~PWE_)
 109      =2  
 110      =2  #endif  // end of TYPES_H //
  33      =1  #include "dma_cfg.h"
   1      =2  //
   2      =2  //=============================================================================
   3      =2  //     Copyright (c) 2006       ASIX Electronic Corporation      All rights reserved.
   4      =2  //
   5      =2  //     This is unpublished proprietary source code of ASIX Electronic Corporation
   6      =2  //
   7      =2  //     The copyright notice above does not evidence any actual or intended
   8      =2  //     publication of such source code.
   9      =2  //=============================================================================
  10      =2  //
  11      =2  //=============================================================================
  12      =2  // Module Name:dma_cfg.h
  13      =2  // Purpose:
  14      =2  // Author:
  15      =2  // Date:
  16      =2  // Notes:
  17      =2  // $Log: dma_cfg.h,v $
  18      =2  // Revision 1.1  2006/05/12 14:24:19  robin6633
  19      =2  // no message
  20      =2  //
  21      =2  // Revision 1.1.1.1  2006/02/23 00:55:10  borbin
  22      =2  // no message
  23      =2  //
  24      =2  //=============================================================================
  25      =2  //
  26      =2  
  27      =2  #ifndef __DMA_CFG_H__
  28      =2  #define __DMA_CFG_H__
  29      =2  
  30      =2  
  31      =2  //-------------------------------------------------------------//
  32      =2  #define DMA_GAP                                         2       // 2 * 64 cycle, don't set '0' //
  33      =2  
  34      =2  //-------------------------------------------------------------//
  35      =2  // NAMING CONSTANT DECLARATIONS //
  36      =2  #define DMA_COPY_LESS_THAN_64K          0       // scope that dma copy, small than 64k //
C51 COMPILER V8.06   DMA                                                                   03/13/2026 10:21:42 PAGE 13  

  37      =2  #define DMA_COPY_LARGE_THAN_64K         1       // scope that dma copy, large than 64k //
  38      =2  
  39      =2  #define DMA_SRAM_RANGE                  (DMA_COPY_LARGE_THAN_64K)
  40      =2                                                                                  // if set DMA_COPY_LARGE_THAN_64K, driver
  41      =2                                                                                  // include DMA_Grant() function.
  42      =2                                                                                  // Call this function, the source and
  43      =2                                                                                  // destination address may be in ether XDATA
  44      =2                                                                                  // or FAR memory.
  45      =2  //-------------------------------------------------------------//
  46      =2  // NAMING CONSTANT DECLARATIONS //
  47      =2  #define DMA_NO                                          0
  48      =2  #define DMA_YES                                         1
  49      =2  
  50      =2  #define DMA_INCLUDE_ETHERNET_MODULE     (DMA_YES)
  51      =2  //-------------------------------------------------------------//
  52      =2  
  53      =2  
  54      =2  #endif // End of __DMA_CFG_H__ //
  55      =2  
  56      =2  
  57      =2  // End of dma_cfg.h //
  34      =1  
  35      =1  /* NAMING CONSTANT DECLARATIONS */
  36      =1  /* SFR 0x94 definitions*/
  37      =1  #define DMA_COMPLETE                    BIT0
  38      =1  
  39      =1  /* DMA register definitions */
  40      =1  #define SW_DMA_CMD_REG                  0x00
  41      =1  #define SW_DMA_SOUR_ADDR_REG    0x02
  42      =1  #define SW_DMA_TARGET_ADDR_REG  0x06
  43      =1  #define SW_DMA_BYTE_COUNT_REG   0x0A
  44      =1  
  45      =1  /* Bit definitions: SW_DMA_CMD_REG */
  46      =1  #define DMA_CMD_GO                              BIT0
  47      =1  #define DMA_FORCE_STOP                  BIT1
  48      =1  #define DMA_ERROR_BIT                   BIT2
  49      =1  #define DMA_ADDR_IN_RPBR                BIT4
  50      =1  #define DMA_ADDR_IN_TPBR                BIT5
  51      =1  #define DMA_COMPLETE_INT_ENABLE BIT7
  52      =1  
  53      =1  /* for software definition */
  54      =1  #define DMA_NORMAL                              0
  55      =1  #define DMA_FROM_RPBR                   BIT4
  56      =1  #define DMA_TO_TPBR                             BIT5
  57      =1  
  58      =1  /* EXPORTED SUBPROGRAM SPECIFICATIONS */
  59      =1  /*-------------------------------------------------------------*/
  60      =1  void DMA_ReadReg(byte, byte XDATA*, byte);
  61      =1  void DMA_WriteReg(byte, byte XDATA*, byte);
  62      =1  void DMA_Init(void);
  63      =1  void DMA_Start(void);
  64      =1  byte XDATA* DMA_GrantXdata(byte XDATA*, byte XDATA*, uint);
  65      =1  #if (DMA_SRAM_RANGE == DMA_COPY_LARGE_THAN_64K)
  66      =1  byte* DMA_Grant(byte*, byte*, uint);
  67      =1  #endif
  68      =1  
  69      =1  
  70      =1  #endif /* End of __DMA_H__ */
  71      =1  
  72      =1  
  73      =1  /* End of dma.h */
  28          #if (DMA_INCLUDE_ETHERNET_MODULE ==     DMA_YES)
C51 COMPILER V8.06   DMA                                                                   03/13/2026 10:21:42 PAGE 14  

  29          #include "stoe.h"
   1      =1  //=============================================================================
   2      =1  //     Copyright (c) 2006       ASIX Electronic Corporation      All rights reserved.
   3      =1  //
   4      =1  //     This is unpublished proprietary source code of ASIX Electronic Corporation
   5      =1  //
   6      =1  //     The copyright notice above does not evidence any actual or intended
   7      =1  //     publication of such source code.
   8      =1  //=============================================================================
   9      =1  // Module Name: stoe.h
  10      =1  // Purpose:
  11      =1  // Author:
  12      =1  // Date:
  13      =1  // Notes:
  14      =1  // $Log: stoe.h,v $
  15      =1  // Revision 1.1.1.1  2006/06/20 05:50:28  borbin
  16      =1  // no message
  17      =1  //=============================================================================
  18      =1  
  19      =1  #ifndef __STOE_H__
  20      =1  #define __STOE_H__
  21      =1  
  22      =1  
  23      =1  // INCLUDE FILE DECLARATIONS //
  24      =1  #include "types.h"
   1      =2  //----------------------------------------------------------------------------------------
   2      =2  //     Copyright (c) 2005       Simtek, Incorporated      All rights reserved.
   3      =2  //
   4      =2  //     This is unpublished proprietary source code of Simtek, Inc
   5      =2  //
   6      =2  //     The copyright notice above does not evidence any actual or intended
   7      =2  //     publication of such source code.
   8      =2  //----------------------------------------------------------------------------------------
   9      =2  // Module Name : types.h
  10      =2  // Purpose     : Definition of type.
  11      =2  // Author      : Robin Lee
  12      =2  // Date        : 2005-12-28
  13      =2  // Notes       : None.
  14      =2  // $Log: types.h,v $
  15      =2  //----------------------------------------------------------------------------------------
  16      =2  // Revision 1.2  2006/05/18 05:02:30  Louis
  17      =2  // no message
  18      =2  //----------------------------------------------------------------------------------------
  19      =2  // Revision 1.1  2006/04/07 11:36:17  robin6633
  20      =2  // no message
  21      =2  //----------------------------------------------------------------------------------------
  22      =2  
  23      =2  #ifndef TYPES_H
           =2 #define TYPES_H
           =2 
           =2 typedef unsigned short int          bool;                                                 // boolean
           =2 typedef unsigned char               byte;                                                 //  8-bit unsign
             -ed
           =2 typedef unsigned short int          uint;                                                 // 16-bit unsign
             -ed
           =2 typedef short int                   sint;                                                 // 16-bit signed
           =2 typedef unsigned long               ulong;                                                // 32-bit unsign
             -ed
           =2 typedef unsigned short int          word;                                                 // 16-bit unsign
             -ed
           =2 
           =2 #ifndef NULL
C51 COMPILER V8.06   DMA                                                                   03/13/2026 10:21:42 PAGE 15  

           =2   #define NULL ((void *) 0L)
           =2 #endif
           =2 
           =2 #define TRUE                  1
           =2 #define FALSE                 0
           =2 #define ON                    1
           =2 #define OFF                   0
           =2 #define Client                1
           =2 #define Server                0
           =2 
           =2 // Bit Definitions for Bitwise Operation //
           =2 #define BIT0            0x01
           =2 #define BIT1            0x02
           =2 #define BIT2            0x04
           =2 #define BIT3            0x08
           =2 #define BIT4            0x10
           =2 #define BIT5            0x20
           =2 #define BIT6            0x40
           =2 #define BIT7            0x80
           =2 #define BIT8            0x0100
           =2 #define BIT9            0x0200
           =2 #define BIT10           0x0400
           =2 #define BIT11           0x0800
           =2 #define BIT12           0x1000
           =2 #define BIT13           0x2000
           =2 #define BIT14           0x4000
           =2 #define BIT15           0x8000
           =2 #define BIT16           0x00010000
           =2 #define BIT17           0x00020000
           =2 #define BIT18           0x00040000
           =2 #define BIT19           0x00080000
           =2 #define BIT20           0x00100000
           =2 #define BIT21           0x00200000
           =2 #define BIT22           0x00400000
           =2 #define BIT23           0x00800000
           =2 #define BIT24           0x01000000
           =2 #define BIT25           0x02000000
           =2 #define BIT26           0x04000000
           =2 #define BIT27           0x08000000
           =2 #define BIT28           0x10000000
           =2 #define BIT29           0x20000000
           =2 #define BIT30           0x40000000
           =2 #define BIT31           0x80000000
           =2 
           =2 #define LOW_BYTE(dat)   (byte) (dat & 0x00FF)
           =2 #define HIGH_BYTE(dat)  (byte)((dat & 0xFF00) >> 8)
           =2 
           =2 #define U32BYTE0(dat)   (byte) (dat  & 0x000000FF)
           =2 #define U32BYTE1(dat)   (byte)((dat  & 0x0000FF00) >> 8)
           =2 #define U32BYTE2(dat)   (byte)((dat  & 0x00FF0000) >> 16)
           =2 #define U32BYTE3(dat)   (byte)((dat  & 0xFF000000) >> 24)
           =2  
           =2 // Keil compiler user define //
           =2 #define     KEIL_CPL
           =2 
           =2 #ifdef KEIL_CPL
           =2  #define XDATA    xdata
           =2  #define IDATA    idata
           =2  #define BDATA    bdata
           =2  #define CODE     code
           =2  #define FAR      far
           =2 #else
C51 COMPILER V8.06   DMA                                                                   03/13/2026 10:21:42 PAGE 16  

           =2  #define XDATA
           =2  #define IDATA
           =2  #define BDATA
           =2  #define CODE
           =2  #define FAR
           =2 #endif
           =2 
           =2 // Serial interface command direction //
           =2 #define     SI_WR                   BIT0
           =2 #define     SI_RD                   BIT1
           =2 
           =2 #define     FLASH_WR_ENB            (PCON |= PWE_)
           =2 #define     FLASH_WR_DISB           (PCON &= ~PWE_)
           =2 
           =2 #endif  // end of TYPES_H //
  25      =1  #include "stoe_cfg.h"
   1      =2  //========================================================================================
   2      =2  //     Copyright (c) 2006     ASIX Electronic Corporation      All rights reserved.
   3      =2  //
   4      =2  //     This is unpublished proprietary source code of ASIX Electronic Corporation
   5      =2  //
   6      =2  //     The copyright notice above does not evidence any actual or intended
   7      =2  //     publication of such source code.
   8      =2  //========================================================================================
   9      =2  // Module Name    : stoe_cfg.h
  10      =2  // Purpose        : 
  11      =2  // Author         :
  12      =2  // Date           :
  13      =2  // Notes          :
  14      =2  // $Log           : stoe_cfg.h,v $
  15      =2  //~~~~~~~~~~~~~~~~~~~~~~~~~~~~~~~~~~~~~~~~~~~~~~~~~~~~~~~~~~~~~~~~~~~~~~~~~~~~~~~~~~~~~~~~
  16      =2  // Revision 1.2      2006/07/25 05:32:12  borbin
  17      =2  // no message
  18      =2  //~~~~~~~~~~~~~~~~~~~~~~~~~~~~~~~~~~~~~~~~~~~~~~~~~~~~~~~~~~~~~~~~~~~~~~~~~~~~~~~~~~~~~~~~
  19      =2  // Revision 1.1.1.1  2006/06/20 05:50:28  borbin
  20      =2  // no message
  21      =2  //~~~~~~~~~~~~~~~~~~~~~~~~~~~~~~~~~~~~~~~~~~~~~~~~~~~~~~~~~~~~~~~~~~~~~~~~~~~~~~~~~~~~~~~~
  22      =2  //========================================================================================
  23      =2  //
  24      =2  #ifndef __STOE_CFG_H__
  25      =2  #define __STOE_CFG_H__
  26      =2  //          INCLUDE FILE DECLARATIONS                                                     //
  27      =2  //----------------------------------------------------------------------------------------
  28      =2  #define PAGES_OF_XMIT                           8                                         // pages. 2k // 
             -//16     // pages, 4k //
  29      =2  #define PAGES_OF_RCV                            16                                        // pages. 4k // 
             -//24  // pages, 6k //
  30      =2  //----------------------------------------------------------------------------------------
  31      =2  #define STOE_ARP_TIMEOUT                        16                                        // hardware arp 
             -table timeout is 128 sec. //
  32      =2  //----------------------------------------------------------------------------------------
  33      =2  //          NAMING CONSTANT DECLARATIONS                                                  //
  34      =2  //----------------------------------------------------------------------------------------
  35      =2  #define STOE_HW_CHECKSUN_DISABLE                0                                         //    0: disable
             - stoe checksum offload engine //
  36      =2  #define STOE_HW_CHECKSUN_ENABLE                 1                                         //    1: enable 
             -stoe checksum offload engine. //
  37      =2  #define STOE_CHECKSUM_OFFLOAD                   (STOE_HW_CHECKSUN_ENABLE)                 //
  38      =2  //----------------------------------------------------------------------------------------
  39      =2  #endif                                    //    End of __STOE_CFG_H__         //
  40      =2  // End of stoe_cfg.h //
  26      =1  #include "mac.h"
C51 COMPILER V8.06   DMA                                                                   03/13/2026 10:21:42 PAGE 17  

   1      =2  //----------------------------------------------------------------------------------------
   2      =2  //     Copyright (c) 2006     ASIX Electronic Corporation      All rights reserved.
   3      =2  //
   4      =2  //     This is unpublished proprietary source code of ASIX Electronic Corporation
   5      =2  //
   6      =2  //     The copyright notice above does not evidence any actual or intended
   7      =2  //     publication of such source code.
   8      =2  //----------------------------------------------------------------------------------------
   9      =2  // Module Name: mac.h
  10      =2  // Purpose:
  11      =2  // Author:
  12      =2  // Date:
  13      =2  // Notes:
  14      =2  // $Log: mac.h,v $
  15      =2  //----------------------------------------------------------------------------------------
  16      =2  // Revision 1.1.1.1  2006/06/20 05:50:28  borbin
  17      =2  // no message
  18      =2  //----------------------------------------------------------------------------------------
  19      =2  
  20      =2  #ifndef __MAC_H__
  21      =2  #define __MAC_H__
  22      =2  
  23      =2  // INCLUDE FILE DECLARATIONS //
  24      =2  #include "types.h"
   1      =3  //----------------------------------------------------------------------------------------
   2      =3  //     Copyright (c) 2005       Simtek, Incorporated      All rights reserved.
   3      =3  //
   4      =3  //     This is unpublished proprietary source code of Simtek, Inc
   5      =3  //
   6      =3  //     The copyright notice above does not evidence any actual or intended
   7      =3  //     publication of such source code.
   8      =3  //----------------------------------------------------------------------------------------
   9      =3  // Module Name : types.h
  10      =3  // Purpose     : Definition of type.
  11      =3  // Author      : Robin Lee
  12      =3  // Date        : 2005-12-28
  13      =3  // Notes       : None.
  14      =3  // $Log: types.h,v $
  15      =3  //----------------------------------------------------------------------------------------
  16      =3  // Revision 1.2  2006/05/18 05:02:30  Louis
  17      =3  // no message
  18      =3  //----------------------------------------------------------------------------------------
  19      =3  // Revision 1.1  2006/04/07 11:36:17  robin6633
  20      =3  // no message
  21      =3  //----------------------------------------------------------------------------------------
  22      =3  
  23      =3  #ifndef TYPES_H
           =3 #define TYPES_H
           =3 
           =3 typedef unsigned short int          bool;                                                 // boolean
           =3 typedef unsigned char               byte;                                                 //  8-bit unsign
             -ed
           =3 typedef unsigned short int          uint;                                                 // 16-bit unsign
             -ed
           =3 typedef short int                   sint;                                                 // 16-bit signed
           =3 typedef unsigned long               ulong;                                                // 32-bit unsign
             -ed
           =3 typedef unsigned short int          word;                                                 // 16-bit unsign
             -ed
           =3 
           =3 #ifndef NULL
           =3   #define NULL ((void *) 0L)
C51 COMPILER V8.06   DMA                                                                   03/13/2026 10:21:42 PAGE 18  

           =3 #endif
           =3 
           =3 #define TRUE                  1
           =3 #define FALSE                 0
           =3 #define ON                    1
           =3 #define OFF                   0
           =3 #define Client                1
           =3 #define Server                0
           =3 
           =3 // Bit Definitions for Bitwise Operation //
           =3 #define BIT0            0x01
           =3 #define BIT1            0x02
           =3 #define BIT2            0x04
           =3 #define BIT3            0x08
           =3 #define BIT4            0x10
           =3 #define BIT5            0x20
           =3 #define BIT6            0x40
           =3 #define BIT7            0x80
           =3 #define BIT8            0x0100
           =3 #define BIT9            0x0200
           =3 #define BIT10           0x0400
           =3 #define BIT11           0x0800
           =3 #define BIT12           0x1000
           =3 #define BIT13           0x2000
           =3 #define BIT14           0x4000
           =3 #define BIT15           0x8000
           =3 #define BIT16           0x00010000
           =3 #define BIT17           0x00020000
           =3 #define BIT18           0x00040000
           =3 #define BIT19           0x00080000
           =3 #define BIT20           0x00100000
           =3 #define BIT21           0x00200000
           =3 #define BIT22           0x00400000
           =3 #define BIT23           0x00800000
           =3 #define BIT24           0x01000000
           =3 #define BIT25           0x02000000
           =3 #define BIT26           0x04000000
           =3 #define BIT27           0x08000000
           =3 #define BIT28           0x10000000
           =3 #define BIT29           0x20000000
           =3 #define BIT30           0x40000000
           =3 #define BIT31           0x80000000
           =3 
           =3 #define LOW_BYTE(dat)   (byte) (dat & 0x00FF)
           =3 #define HIGH_BYTE(dat)  (byte)((dat & 0xFF00) >> 8)
           =3 
           =3 #define U32BYTE0(dat)   (byte) (dat  & 0x000000FF)
           =3 #define U32BYTE1(dat)   (byte)((dat  & 0x0000FF00) >> 8)
           =3 #define U32BYTE2(dat)   (byte)((dat  & 0x00FF0000) >> 16)
           =3 #define U32BYTE3(dat)   (byte)((dat  & 0xFF000000) >> 24)
           =3  
           =3 // Keil compiler user define //
           =3 #define     KEIL_CPL
           =3 
           =3 #ifdef KEIL_CPL
           =3  #define XDATA    xdata
           =3  #define IDATA    idata
           =3  #define BDATA    bdata
           =3  #define CODE     code
           =3  #define FAR      far
           =3 #else
           =3  #define XDATA
C51 COMPILER V8.06   DMA                                                                   03/13/2026 10:21:42 PAGE 19  

           =3  #define IDATA
           =3  #define BDATA
           =3  #define CODE
           =3  #define FAR
           =3 #endif
           =3 
           =3 // Serial interface command direction //
           =3 #define     SI_WR                   BIT0
           =3 #define     SI_RD                   BIT1
           =3 
           =3 #define     FLASH_WR_ENB            (PCON |= PWE_)
           =3 #define     FLASH_WR_DISB           (PCON &= ~PWE_)
           =3 
           =3 #endif  // end of TYPES_H //
  25      =2  #include "stoe_cfg.h"
   1      =3  //========================================================================================
   2      =3  //     Copyright (c) 2006     ASIX Electronic Corporation      All rights reserved.
   3      =3  //
   4      =3  //     This is unpublished proprietary source code of ASIX Electronic Corporation
   5      =3  //
   6      =3  //     The copyright notice above does not evidence any actual or intended
   7      =3  //     publication of such source code.
   8      =3  //========================================================================================
   9      =3  // Module Name    : stoe_cfg.h
  10      =3  // Purpose        : 
  11      =3  // Author         :
  12      =3  // Date           :
  13      =3  // Notes          :
  14      =3  // $Log           : stoe_cfg.h,v $
  15      =3  //~~~~~~~~~~~~~~~~~~~~~~~~~~~~~~~~~~~~~~~~~~~~~~~~~~~~~~~~~~~~~~~~~~~~~~~~~~~~~~~~~~~~~~~~
  16      =3  // Revision 1.2      2006/07/25 05:32:12  borbin
  17      =3  // no message
  18      =3  //~~~~~~~~~~~~~~~~~~~~~~~~~~~~~~~~~~~~~~~~~~~~~~~~~~~~~~~~~~~~~~~~~~~~~~~~~~~~~~~~~~~~~~~~
  19      =3  // Revision 1.1.1.1  2006/06/20 05:50:28  borbin
  20      =3  // no message
  21      =3  //~~~~~~~~~~~~~~~~~~~~~~~~~~~~~~~~~~~~~~~~~~~~~~~~~~~~~~~~~~~~~~~~~~~~~~~~~~~~~~~~~~~~~~~~
  22      =3  //========================================================================================
  23      =3  //
  24      =3  #ifndef __STOE_CFG_H__
           =3 #define __STOE_CFG_H__
           =3 //          INCLUDE FILE DECLARATIONS                                                     //
           =3 //----------------------------------------------------------------------------------------
           =3 #define PAGES_OF_XMIT                           8                                         // pages. 2k // 
             -//16     // pages, 4k //
           =3 #define PAGES_OF_RCV                            16                                        // pages. 4k // 
             -//24  // pages, 6k //
           =3 //----------------------------------------------------------------------------------------
           =3 #define STOE_ARP_TIMEOUT                        16                                        // hardware arp 
             -table timeout is 128 sec. //
           =3 //----------------------------------------------------------------------------------------
           =3 //          NAMING CONSTANT DECLARATIONS                                                  //
           =3 //----------------------------------------------------------------------------------------
           =3 #define STOE_HW_CHECKSUN_DISABLE                0                                         //    0: disable
             - stoe checksum offload engine //
           =3 #define STOE_HW_CHECKSUN_ENABLE                 1                                         //    1: enable 
             -stoe checksum offload engine. //
           =3 #define STOE_CHECKSUM_OFFLOAD                   (STOE_HW_CHECKSUN_ENABLE)                 //
           =3 //----------------------------------------------------------------------------------------
           =3 #endif                                    //    End of __STOE_CFG_H__         //
  40      =3  // End of stoe_cfg.h //
  26      =2  
  27      =2  // NAMING CONSTANT DECLARATIONS //
C51 COMPILER V8.06   DMA                                                                   03/13/2026 10:21:42 PAGE 20  

  28      =2  #define MAC_RCV_PROMISCUOUS                             1
  29      =2  #define MAC_RCV_ALL_MULTICAST                   2
  30      =2  #define MAC_RCV_BROADCAST                               4
  31      =2  #define MAC_RCV_MULTICAST                               8
  32      =2  
  33      =2  #define MAC_PRIMARY_PHY_LINK_WAKEUP             1                
  34      =2  #define MAC_MAGIC_PACKET_WAKEUP                 2
  35      =2  #define MAC_EXTERNAL_PIN_WAKEUP                 4
  36      =2  #define MAC_MS_FRAME_WAKEUP                             8
  37      =2  
  38      =2  // MAC register definitions //
  39      =2  #define MAC_SRAM_CMD_REG                                0x00
  40      =2  #define MAC_SRAM_DATA_REG                               0x02
  41      =2  #define MAC_RX_CTL_REG                                  0x0A
  42      =2  #define MAC_IPG_CTL_REG                                 0x0C
  43      =2  #define MAC_ADDR_REG                                    0x10
  44      =2  #define MAC_MULTICASE_REG                               0x16
  45      =2  #define MAC_TEST_REG                                    0x1E
  46      =2  #define MAC_MEDIUM_STATUS_MODE_REG              0x20
  47      =2  #define MAC_PHY_CTL_REG                                 0x22
  48      =2  #define MAC_WAKEUP_INT_ENABLE_REG               0x24
  49      =2  #define MAC_LINK_CHANGE_INT_ENABLE_REG  0x26
  50      =2  #define MAC_WAKEUP_LINK_INT_STATUS_REG  0x28
  51      =2  #define MAC_WAKEUP_FRAME_COMMAND                0x30
  52      =2  #define MAC_WAKEUP_FRAME_MASK0                  0x32
  53      =2  #define MAC_WAKEUP_FRAME_CRC0                   0x36
  54      =2  #define MAC_WAKEUP_FRAME_OFFSET0                0x38
  55      =2  #define MAC_WAKEUP_FRAME_LAST_BYTE0             0x3a
  56      =2  #define MAC_WAKEUP_FRAME_MASK1                  0x40
  57      =2  #define MAC_WAKEUP_FRAME_CRC1                   0x44
  58      =2  #define MAC_WAKEUP_FRAME_OFFSET1                0x46
  59      =2  #define MAC_WAKEUP_FRAME_LAST_BYTE1             0x48
  60      =2  #define MAC_CMD_ABORT                                   0xFF
  61      =2  
  62      =2  // Bit definitions: MAC_RX_CTL_REG //
  63      =2  #define PACKET_TYPE_PROMISCOUS                  BIT0
  64      =2  #define PACKET_TYPE_ALL_MULTI                   BIT1
  65      =2  #define PACKET_TYPE_RCV_CRC_ERROR               BIT2
  66      =2  #define PACKET_TYPE_BROADCAST                   BIT3
  67      =2  #define PACKET_TYPE_MULTICAST                   BIT4
  68      =2  #define PACKET_TYPE_UNICAST_MATCH               BIT5
  69      =2  #define START_OPERATION                                 BIT7
  70      =2  
  71      =2  // Bit definitions: MAC_MEDIUM_STATUS_MODE_REG //
  72      =2  #define MEDIUM_SUPER_MAC                                BIT0
  73      =2  #define MEDIUM_STOP_BACKPRESSURE                BIT1
  74      =2  #define MEDIUM_ENABLE_RECEIVE                   BIT2
  75      =2  #define MEDIUM_CHECK_ONLY_TYPE_PAUSE    BIT3
  76      =2  #define MEDIUM_ENABLE_TX_FLOWCTRL               BIT4
  77      =2  #define MEDIUM_FULL_DUPLEX_MODE                 BIT5
  78      =2  #define MEDIUM_MII_100M_MODE                    BIT6
  79      =2  #define MEDIUM_ENABLE_RX_FLOWCTRL               BIT7
  80      =2  
  81      =2  // Bit definitions: MAC_PHY_CTL_REG //
  82      =2  #define PHY_SELECT_EXTERNAL_PHY                 0
  83      =2  #define PHY_SELECT_EMBEDDED                             BIT0
  84      =2  #define PHY_AUTO_SELECT                                 BIT1
  85      =2  #define PHY_INTERNAL_PHY_OPERA_STATE    BIT2
  86      =2  
  87      =2  // Bit definitions: MAC_WAKEUP_INT_ENABLE_REG //
  88      =2  #define WAKEUP_BY_PRIMARY_LINK_UP               BIT0
  89      =2  #define WAKEUP_BY_SECONDARY_LINK_UP             BIT2
C51 COMPILER V8.06   DMA                                                                   03/13/2026 10:21:42 PAGE 21  

  90      =2  #define WAKEUP_BY_MAGIC_PACKET                  BIT4
  91      =2  #define WAKEUP_BY_EXTER_PIN_TRIG                BIT5
  92      =2  #define WAKEUP_BY_MICROSOFT_FRAME               BIT6
  93      =2  
  94      =2  // Bit definitions: MAC_LINK_CHANGE_INT_ENABLE_REG //
  95      =2  #define PRIMARY_LINK_CHANGE_ENABLE              BIT0
  96      =2  #define SECOND_LINK_CHANGE_ENABLE               BIT2
  97      =2  
  98      =2  // Bit definitions: MAC_WAKEUP_LINK_INT_STATUS_REG //
  99      =2  #define STATUS_PRIMARY_LINK_CHANGE              BIT0
 100      =2  #define STATUS_PRIMARY_IS_LINK_UP               BIT1
 101      =2  #define STATUS_SECOND_LINK_CHANGE               BIT2
 102      =2  #define STATUS_SECOND_IS_LINK_UP                BIT3
 103      =2  #define STATUS_RCV_MAGIC_PKT                    BIT4
 104      =2  #define STATUS_TRIG_EXTER_PIN_TRIG              BIT5
 105      =2  #define STATUS_MICROSOFT_FRAME                  BIT6
 106      =2  
 107      =2  // Bit definitions: WUF_WAKEUP_FRAME_COMMAND, 0x30 //
 108      =2  #define WAKEUP_FRAME_FILTER0_ENABLE             BIT0
 109      =2  #define WAKEUP_FRAME_FILTER0_UNI_ENABLE BIT1
 110      =2  #define WAKEUP_FRAME_FILTER1_ENABLE             BIT2
 111      =2  #define WAKEUP_FRAME_FILTER1_UNI_ENABLE BIT3
 112      =2  #define WAKEUP_FRAME_CASCADE_ENABLE             BIT4
 113      =2  
 114      =2  // wakeup frame Mode //
 115      =2  #define WUF_ONLY_USE_FILTER0                    0
 116      =2  #define WUF_ONLY_USE_FILTER1                    1
 117      =2  #define WUF_ONLY_FILTER0_MACADDR                2
 118      =2  #define WUF_ONLY_FILTER1_MACADDR                3
 119      =2  #define WUF_BOTH_FILTERS                                4
 120      =2  #define WUF_BOTH_FILTERS_MACADDR                6
 121      =2  #define WUF_CASCADE                                             8
 122      =2  #define WUF_CASCADE_MACADDR                             10
 123      =2  
 124      =2  // TYPE DECLARATIONS //
 125      =2  //----------------------------------------------------------------------------------------
 126      =2  typedef struct _MAC_INFORMATION
 127      =2  {
 128      =2  // definition for NetworkType member. //
 129      =2  #define MAC_AUTO_NEGOTIATION                    0
 130      =2  #define MAC_LINK_100M_SPEED                             100
 131      =2  #define MAC_LINK_10M_SPEED                              10
 132      =2  #define MAC_LINK_FULL_DUPLEX                    0x80
 133      =2  #define MAC_FORCE_ENBEDDED_PHY_10_HALF  0x4A
 134      =2  
 135      =2          byte    LinkSpeed;
 136      =2          byte    FullDuplex;
 137      =2        byte  MediumLinkType;   // map to mac register MAC_MEDIUM_STATUS_MODE_REG //
 138      =2          byte    NetworkType;
 139      =2          byte    InterruptMask;
 140      =2  
 141      =2  } MAC_INFO;
 142      =2  
 143      =2  //----------------------------------------------------------------------------------------
 144      =2  typedef struct _MAC_WAKEUP_FRAME
 145      =2  {
 146      =2        byte  Mode;       // see above wakeup frame Mode //
 147      =2        byte  Offset0;    // filter0 offset //
 148      =2        byte  Offset1;    // filter1 offset //
 149      =2        ulong Mask0;      // filter0 mask //
 150      =2        ulong Mask1;      // filter1 mask //
 151      =2        byte* Pframe;     // point to the first byte of wakeup frame (destination address) //
C51 COMPILER V8.06   DMA                                                                   03/13/2026 10:21:42 PAGE 22  

 152      =2          byte    Length;
 153      =2  
 154      =2  } MAC_WUF;
 155      =2  
 156      =2  // GLOBAL VARIABLES //
 157      =2  
 158      =2  // EXPORTED SUBPROGRAM SPECIFICATIONS //
 159      =2  //----------------------------------------------------------------------------------------
 160      =2  void MAC_Init(byte);
 161      =2  void MAC_Start(void);
 162      =2  void mac_StopOperate(void);
 163      =2  void mac_InterruptDisable(void);
 164      =2  byte* MAC_GetMacAddr(void);
 165      =2  void MAC_SetMacAddr(byte*);
 166      =2  void MAC_SetRxFilter(byte);
 167      =2  void  MAC_SetInterruptFlag(void);
 168      =2  byte  MAC_GetInterruptFlag(void);
 169      =2  void  MAC_ProcessInterrupt(void);
 170      =2  byte  MAC_ProcessInterruptExt(void);
 171      =2  void  MAC_MultiFilter(byte*, byte);
 172      =2  
 173      =2  #endif // __MAC_H__ //
 174      =2  
 175      =2  // End of mac.h //
  27      =1  #include "phy.h"
   1      =2  //=============================================================================
   2      =2  //     Copyright (c) 2006       ASIX Electronic Corporation      All rights reserved.
   3      =2  //
   4      =2  //     This is unpublished proprietary source code of ASIX Electronic Corporation
   5      =2  //
   6      =2  //     The copyright notice above does not evidence any actual or intended
   7      =2  //     publication of such source code.
   8      =2  //=============================================================================
   9      =2  // Module Name:phy.h
  10      =2  // Purpose:
  11      =2  // Author:
  12      =2  // Date:
  13      =2  // Notes:
  14      =2  // $Log: phy.h,v $
  15      =2  // Revision 1.1.1.1  2006/06/20 05:50:28  borbin
  16      =2  // no message
  17      =2  //
  18      =2  //=============================================================================
  19      =2  
  20      =2  #ifndef __PHY_H__
  21      =2  #define __PHY_H__
  22      =2  
  23      =2  
  24      =2  // INCLUDE FILE DECLARATIONS //
  25      =2  #include "types.h"
   1      =3  //----------------------------------------------------------------------------------------
   2      =3  //     Copyright (c) 2005       Simtek, Incorporated      All rights reserved.
   3      =3  //
   4      =3  //     This is unpublished proprietary source code of Simtek, Inc
   5      =3  //
   6      =3  //     The copyright notice above does not evidence any actual or intended
   7      =3  //     publication of such source code.
   8      =3  //----------------------------------------------------------------------------------------
   9      =3  // Module Name : types.h
  10      =3  // Purpose     : Definition of type.
  11      =3  // Author      : Robin Lee
  12      =3  // Date        : 2005-12-28
C51 COMPILER V8.06   DMA                                                                   03/13/2026 10:21:42 PAGE 23  

  13      =3  // Notes       : None.
  14      =3  // $Log: types.h,v $
  15      =3  //----------------------------------------------------------------------------------------
  16      =3  // Revision 1.2  2006/05/18 05:02:30  Louis
  17      =3  // no message
  18      =3  //----------------------------------------------------------------------------------------
  19      =3  // Revision 1.1  2006/04/07 11:36:17  robin6633
  20      =3  // no message
  21      =3  //----------------------------------------------------------------------------------------
  22      =3  
  23      =3  #ifndef TYPES_H
           =3 #define TYPES_H
           =3 
           =3 typedef unsigned short int          bool;                                                 // boolean
           =3 typedef unsigned char               byte;                                                 //  8-bit unsign
             -ed
           =3 typedef unsigned short int          uint;                                                 // 16-bit unsign
             -ed
           =3 typedef short int                   sint;                                                 // 16-bit signed
           =3 typedef unsigned long               ulong;                                                // 32-bit unsign
             -ed
           =3 typedef unsigned short int          word;                                                 // 16-bit unsign
             -ed
           =3 
           =3 #ifndef NULL
           =3   #define NULL ((void *) 0L)
           =3 #endif
           =3 
           =3 #define TRUE                  1
           =3 #define FALSE                 0
           =3 #define ON                    1
           =3 #define OFF                   0
           =3 #define Client                1
           =3 #define Server                0
           =3 
           =3 // Bit Definitions for Bitwise Operation //
           =3 #define BIT0            0x01
           =3 #define BIT1            0x02
           =3 #define BIT2            0x04
           =3 #define BIT3            0x08
           =3 #define BIT4            0x10
           =3 #define BIT5            0x20
           =3 #define BIT6            0x40
           =3 #define BIT7            0x80
           =3 #define BIT8            0x0100
           =3 #define BIT9            0x0200
           =3 #define BIT10           0x0400
           =3 #define BIT11           0x0800
           =3 #define BIT12           0x1000
           =3 #define BIT13           0x2000
           =3 #define BIT14           0x4000
           =3 #define BIT15           0x8000
           =3 #define BIT16           0x00010000
           =3 #define BIT17           0x00020000
           =3 #define BIT18           0x00040000
           =3 #define BIT19           0x00080000
           =3 #define BIT20           0x00100000
           =3 #define BIT21           0x00200000
           =3 #define BIT22           0x00400000
           =3 #define BIT23           0x00800000
           =3 #define BIT24           0x01000000
           =3 #define BIT25           0x02000000
C51 COMPILER V8.06   DMA                                                                   03/13/2026 10:21:42 PAGE 24  

           =3 #define BIT26           0x04000000
           =3 #define BIT27           0x08000000
           =3 #define BIT28           0x10000000
           =3 #define BIT29           0x20000000
           =3 #define BIT30           0x40000000
           =3 #define BIT31           0x80000000
           =3 
           =3 #define LOW_BYTE(dat)   (byte) (dat & 0x00FF)
           =3 #define HIGH_BYTE(dat)  (byte)((dat & 0xFF00) >> 8)
           =3 
           =3 #define U32BYTE0(dat)   (byte) (dat  & 0x000000FF)
           =3 #define U32BYTE1(dat)   (byte)((dat  & 0x0000FF00) >> 8)
           =3 #define U32BYTE2(dat)   (byte)((dat  & 0x00FF0000) >> 16)
           =3 #define U32BYTE3(dat)   (byte)((dat  & 0xFF000000) >> 24)
           =3  
           =3 // Keil compiler user define //
           =3 #define     KEIL_CPL
           =3 
           =3 #ifdef KEIL_CPL
           =3  #define XDATA    xdata
           =3  #define IDATA    idata
           =3  #define BDATA    bdata
           =3  #define CODE     code
           =3  #define FAR      far
           =3 #else
           =3  #define XDATA
           =3  #define IDATA
           =3  #define BDATA
           =3  #define CODE
           =3  #define FAR
           =3 #endif
           =3 
           =3 // Serial interface command direction //
           =3 #define     SI_WR                   BIT0
           =3 #define     SI_RD                   BIT1
           =3 
           =3 #define     FLASH_WR_ENB            (PCON |= PWE_)
           =3 #define     FLASH_WR_DISB           (PCON &= ~PWE_)
           =3 
           =3 #endif  // end of TYPES_H //
  26      =2  
  27      =2  // internal phy id address //
  28      =2  #define PHY_ADDRESS                                     0x10
  29      =2  #define PHY_INTERNAL                            0
  30      =2  #define PHY_EXTERNAL                            1
  31      =2  
  32      =2  // network type //
  33      =2  #define AUTO_NEGOTIATION                        0
  34      =2  #define FIXED_100_FULL                          1
  35      =2  #define FIXED_100_HALF                          2
  36      =2  #define FIXED_10_FULL                           3
  37      =2  #define FIXED_10_HALF                           4
  38      =2  #define FORCE_EMBEDDED_PHY_10_HALF      5
  39      =2  
  40      =2  // NAMING CONSTANT DECLARATIONS //
  41      =2  // SFR 0xBE definitions //
  42      =2  #define PHY_READ_REG                            BIT7
  43      =2  #define PHY_ACCESS_GO                           BIT6
  44      =2  #define PHY_CMD_ABORT                           0xFF
  45      =2  
  46      =2  // MII register definitions //
  47      =2  #define MII_PHY_CONTROL                         0x00    // control reg
C51 COMPILER V8.06   DMA                                                                   03/13/2026 10:21:42 PAGE 25  

  48      =2  #define MII_PHY_STATUS                          0x01    // status reg
  49      =2  #define MII_PHY_OUI                                     0x02    // most of the OUI bits
  50      =2  #define MII_PHY_MODEL                           0x03    // model/rev bits, and rest of OUI
  51      =2  #define MII_PHY_ANAR                            0x04    // AN advertisement reg
  52      =2  #define MII_PHY_ANLPAR                          0x05    // AN Link Partner
  53      =2  #define MII_PHY_ANER                            0x06    // AN expansion reg
  54      =2  
  55      =2  // Bit definitions: MII Control //
  56      =2  #define CONTROL_RESET                           0x8000  // reset bit in control reg
  57      =2  #define CONTROL_LOOPBACK                        0x4000  // loopback bit in control reg
  58      =2  #define CONTROL_10MB                            0x0000  // 10 Mbit
  59      =2  #define CONTROL_100MB                           0x2000  // 100Mbit
  60      =2  #define CONTROL_ENABLE_AUTO                     0x1000  // autonegotiate enable
  61      =2  #define CONTROL_POWER_DOWN                      0x0800
  62      =2  #define CONTROL_ISOLATE                         0x0400  // islolate bit
  63      =2  #define CONTROL_START_AUTO                      0x0200  // restart autonegotiate
  64      =2  #define CONTROL_FULL_DUPLEX                     0x0100
  65      =2  
  66      =2  // Bit definitions: Auto-Negotiation Advertisement //
  67      =2  #define ANAR_PAUSE                                      0x0400  // support pause packets
  68      =2  #define ANAR_100T4                                      0x0200  // support 100BT4
  69      =2  #define ANAR_100TXFD                            0x0100  // support 100BTX full duplex
  70      =2  #define ANAR_100TX                                      0x0080  // support 100BTX half duplex
  71      =2  #define ANAR_10TFD                                      0x0040  // support 10BT full duplex
  72      =2  #define ANAR_10T                                        0x0020  // support 10BT half duplex
  73      =2  #define ANAR_SELECTOR_FIELD                     0x001F  // selector field.
  74      =2  #define ANAR_SELECTOR_8023                      0x0001
  75      =2  
  76      =2  // Bit definitions: Auto-Negotiation Link Partner Ability //
  77      =2  #define ANLPAR_PAUSE                            0x0400  // support pause packets
  78      =2  #define ANLPAR_100T4                            0x0200  // support 100BT4
  79      =2  #define ANLPAR_100TXFD                          0x0100  // support 100BTX full duplex
  80      =2  #define ANLPAR_100TX                            0x0080  // support 100BTX half duplex
  81      =2  #define ANLPAR_10TFD                            0x0040  // support 10BT full duplex
  82      =2  #define ANLPAR_10T                                      0x0020  // support 10BT half duplex
  83      =2  
  84      =2  // TYPE DECLARATIONS //
  85      =2  //---------------------------------------------------------------
  86      =2  typedef struct _PHY_INFORMATION
  87      =2  {
  88      =2          byte    PhyAddr;
  89      =2          byte    PhyType;
  90      =2  
  91      =2  } PHY_INFO;
  92      =2  
  93      =2  // EXPORTED SUBPROGRAM SPECIFICATIONS //
  94      =2  //---------------------------------------------------------------
  95      =2  void PHY_Init(byte);
  96      =2  uint PHY_CheckMediaType(void);
  97      =2  void PHY_PowerUp(void);
  98      =2  void PHY_WatchDog(void);
  99      =2  void phy_WriteReg(byte regaddr, uint value);
 100      =2  
 101      =2  #endif // End of __PHY_H__ //
 102      =2  // End of phy.h //
  28      =1  
  29      =1  
  30      =1  // NAMING CONSTANT DECLARATIONS //
  31      =1  #define MAX_ETHERNET_LEN                1514
  32      =1  #define MAC_ADDRESS_LEN                 6
  33      =1  #define ETH_HEADER_LEN                  14
  34      =1  #define VLAN_HEADER_LEN                 4
C51 COMPILER V8.06   DMA                                                                   03/13/2026 10:21:42 PAGE 26  

  35      =1  #define SNAP_LEN                                8
  36      =1  
  37      =1  #define MAX_FRAME_SIZE                  (MAX_ETHERNET_LEN + VLAN_HEADER_LEN)
  38      =1  
  39      =1  #define PAGE_SIZE                               256
  40      =1  
  41      =1  // STOE header //
  42      =1  #define MAC_TX_RX_HEADER                6
  43      =1  
  44      =1  // calculate BDP start address //
  45      =1  #define STOE_SOCKET_BUFFER_SIZE ((PAGES_OF_XMIT + PAGES_OF_RCV + 1) * PAGE_SIZE)
  46      =1  #define DEFAULT_STACK_BOUNDARY  0x8000  // 32 K //
  47      =1  #define STOE_BDP_START_ADDR             (DEFAULT_STACK_BOUNDARY - STOE_SOCKET_BUFFER_SIZE)
  48      =1  #define STOE_RCV_BUF_SIZE               (PAGES_OF_RCV * PAGE_SIZE)
  49      =1  #define STOE_XMIT_BUF_SIZE              (PAGES_OF_XMIT * PAGE_SIZE)
  50      =1  
  51      =1  // STOE register definitions //
  52      =1  #define STOE_L2_CTL_REG                 0x00
  53      =1  #define STOE_RX_VLAN_TAG_REG            0x02
  54      =1  #define STOE_TX_VLAN_TAG_REG            0x04
  55      =1  #define STOE_ARP_CMD_REG                0x06
  56      =1  #define STOE_ARP_ADDR_REG               0x07
  57      =1  #define STOE_ARP_DATA_REG               0x08
  58      =1  #define STOE_ARP_TIMEOUT_REG            0x0E
  59      =1  #define STOE_IP_ADDR_REG                0x10
  60      =1  #define STOE_SUBNET_MASK_REG            0x14
  61      =1  #define STOE_GATEWAY_IP_REG             0x18
  62      =1  #define STOE_CHKSUM_STATUS_REG  0x1C
  63      =1  #define STOE_L4_CTL_REG                 0x20
  64      =1  #define STOE_L4_CMD_REG                 0x21
  65      =1  #define STOE_L4_BDP_PNT_REG             0x22
  66      =1  #define STOE_L4_DMA_GAP_REG             0x24
  67      =1  #define STOE_INT_STATUS_REG             0x30
  68      =1  #define STOE_INT_MASK_REG               0x31
  69      =1  
  70      =1  // Bit definitions: STOE_L2_CTL_REG      //
  71      =1  #define RX_VLAN_ENABLE                  BIT0
  72      =1  #define RX_TRANSPARENT                  BIT1
  73      =1  #define RX_START_OPERA                  BIT3
  74      =1  #define TX_VLAN_ENABLE                  BIT4
  75      =1  #define TX_TRANSPARENT                  BIT5
  76      =1  #define TX_SNAP_ENABLE                  BIT6
  77      =1  #define TX_START_OPERA                  BIT7
  78      =1  
  79      =1  // Bit definitions: STOE_ARP_CMD_REG //
  80      =1  #define ARP_CACHE_CMD_READ              BIT0
  81      =1  #define ARP_CACHE_CMD_GO                BIT1
  82      =1  
  83      =1  // Bit definitions: STOE_L4_CTL_REG      //
  84      =1  #define DROP_CHKSUMERR_PKT              BIT0
  85      =1  #define ENABLE_XMIT_CHKSUM              BIT1
  86      =1  #define ENABLE_RCV_CROSS                BIT2
  87      =1  #define ENABLE_XMIT_CROSS               BIT3 
  88      =1  
  89      =1  // Bit definitions: STOE_L4_CMD_REG      //
  90      =1  #define RESUME_PKT_RCV                  BIT0
  91      =1  #define XMIT_PACKET                     BIT4
  92      =1  
  93      =1  // Bit definitions: STOE_STATUS_REG      //
  94      =1  // Bit definitions: STOE_INT_MASK_REG //
  95      =1  #define ARP_HASH_COLLISION              BIT0
  96      =1  #define RCV_PACKET                      BIT1
C51 COMPILER V8.06   DMA                                                                   03/13/2026 10:21:42 PAGE 27  

  97      =1  #define RCV_BUF_RING_FULL               BIT2
  98      =1  #define ARP_CACHE_NOT_FIND              BIT4
  99      =1  #define XMIT_EMPTY_BUF                  BIT5
 100      =1  #define XMIT_COMPLETE                   BIT6
 101      =1  #define STOE_DEFAULT_INT_MASK   (RCV_BUF_RING_FULL | RCV_PACKET)
 102      =1  
 103      =1  // TYPE DECLARATIONS //
 104      =1  //---------------------------------------------------------------
 105      =1  typedef struct _LOCAL_STATION
 106      =1  {
 107      =1          // MAC address //
 108      =1          byte    PermStaAddr[MAC_ADDRESS_LEN];
 109      =1          byte    CurrStaAddr[MAC_ADDRESS_LEN];
 110      =1  
 111      =1          // IP address //
 112      =1          ulong   StationIP;
 113      =1          ulong   SubnetMask;
 114      =1          ulong   Gateway;
 115      =1          ulong   DefaultIP;
 116      =1          ulong   DefaultMask;
 117      =1          ulong   DefaultGateway;
 118      =1  
 119      =1  } LOCAL_STATION;
 120      =1  
 121      =1  //---------------------------------------------------------------
 122      =1  typedef struct _PACKET_INFORMATION
 123      =1  {
 124      =1          byte XDATA*     PBuf;
 125      =1          byte XDATA*     PIpHeader;
 126      =1          byte XDATA*     PTUIHeader;     // TCP Header, Udp Header, or ICMP IGMP Header //
 127      =1          byte XDATA*     PData;
 128      =1  
 129      =1          uint            TotalLen;
 130      =1          uint            IpTotalLen;
 131      =1          uint            TUITotalLen;
 132      =1          uint            DataLen;
 133      =1          byte            Protocol;
 134      =1          byte            IpHeaderLen;
 135      =1          byte            TcpHeaderLen;
 136      =1          byte            SocketId;
 137      =1          byte            Pages;
 138      =1  
 139      =1  } PACKET_INFORMATION;
 140      =1  
 141      =1  //---------------------------------------------------------------
 142      =1  typedef struct _BUF_DESC_PAGE
 143      =1  {
 144      =1  #define RX_DESCRIPTOR_SIZE                      128
 145      =1  #define RX_DESCRIPTOR_HEADER_SIZE       12
 146      =1  #define RX_RESERVED_BUFFER_SIZE         (RX_DESCRIPTOR_SIZE - RX_DESCRIPTOR_HEADER_SIZE -       \
 147      =1                                                                          sizeof (LOCAL_STATION) - sizeof (PHY_INFO) -            \
 148      =1                                                                          sizeof (MAC_INFO))
 149      =1  
 150      =1          // hardware RX descriptor header //
 151      =1          byte    BDP_ID;
 152      =1          byte    Pad0;
 153      =1          uint    RSPP;
 154      =1          uint    REPP;
 155      =1          uint    RHPR;
 156      =1          uint    RTPR;
 157      =1          byte    RFP;
 158      =1          byte    Pad1;
C51 COMPILER V8.06   DMA                                                                   03/13/2026 10:21:42 PAGE 28  

 159      =1  
 160      =1          LOCAL_STATION   NetStation;
 161      =1          PHY_INFO                PhyInfo;
 162      =1          MAC_INFO                MacInfo;
 163      =1  
 164      =1          byte    RcvReserved[RX_RESERVED_BUFFER_SIZE];
 165      =1  
 166      =1          // hardware TX descriptor header //
 167      =1          uint    TSPP;
 168      =1          uint    TEPP;
 169      =1          uint    THPR;
 170      =1          uint    TTPR;
 171      =1          byte    TFP;
 172      =1          byte    Pad2;
 173      =1  
 174      =1          uint    VSPP;
 175      =1  
 176      =1          byte XDATA*     RcvStartAddr;
 177      =1          byte XDATA*     RcvEndAddr;
 178      =1          byte XDATA*     XmtStartAddr;
 179      =1          byte XDATA*     XmtEndAddr;
 180      =1  
 181      =1          PACKET_INFORMATION      STOE_TxInform;
 182      =1          PACKET_INFORMATION      STOE_RxInform;
 183      =1  
 184      =1  } BUF_DESC_PAGE;
 185      =1  
 186      =1  //---------------------------------------------------------------
 187      =1  typedef struct _STOE_FRAME_HEADER
 188      =1  {
 189      =1          uint    NPR;
 190      =1          uint    Length;
 191      =1          byte    Protocol;
 192      =1          byte    DataOffset;
 193      =1          byte    Packet;
 194      =1  
 195      =1  } STOE_FRAME_HEADER;
 196      =1  
 197      =1  // GLOBAL VARIABLES //
 198      =1  extern LOCAL_STATION XDATA*     PNetStation;
 199      =1  extern BUF_DESC_PAGE XDATA* PBDP;
 200      =1  extern void (*STOE_RcvCallback)(byte XDATA*, uint, byte);
 201      =1  
 202      =1  // EXPORTED SUBPROGRAM SPECIFICATIONS //
 203      =1  //---------------------------------------------------------------
 204      =1  void STOE_Init(byte);
 205      =1  void STOE_Start(void);
 206      =1  void stoe_StopOperate(void);
 207      =1  
 208      =1  // MACRO DECLARATIONS //
 209      =1  #define STOE_GetIPAddr()                (PNetStation->StationIP)
 210      =1  #define STOE_GetSubnetMask()    (PNetStation->SubnetMask)
 211      =1  #define STOE_GetGateway()               (PNetStation->Gateway)
 212      =1  
 213      =1  void STOE_SetIPAddr(ulong);
 214      =1  void STOE_SetSubnetMask(ulong);
 215      =1  void STOE_SetGateway(ulong);
 216      =1  void STOE_WaitHwReleaseRcvBuf(void);
 217      =1  void STOE_ProcessInterrupt(void);
 218      =1  void STOE_Send(byte XDATA*, uint, byte);
 219      =1  byte XDATA* STOE_AssignSendBuf(uint);
 220      =1  byte XDATA* STOE_CopyCode2TPBR(byte XDATA*, byte*, uint);
C51 COMPILER V8.06   DMA                                                                   03/13/2026 10:21:42 PAGE 29  

 221      =1  byte STOE_CHECK_MAC(ulong *ip_addr);
 222      =1  
 223      =1  #endif // End of __STOE_H__ //
 224      =1  // End of stoe.h //
  30          #endif
  31          #include <intrins.h>
   1      =1  /*--------------------------------------------------------------------------
   2      =1  INTRINS.H
   3      =1  
   4      =1  Intrinsic functions for C51.
   5      =1  Copyright (c) 1988-2004 Keil Elektronik GmbH and Keil Software, Inc.
   6      =1  All rights reserved.
   7      =1  --------------------------------------------------------------------------*/
   8      =1  
   9      =1  #ifndef __INTRINS_H__
  10      =1  #define __INTRINS_H__
  11      =1  
  12      =1  extern void          _nop_     (void);
  13      =1  extern bit           _testbit_ (bit);
  14      =1  extern unsigned char _cror_    (unsigned char, unsigned char);
  15      =1  extern unsigned int  _iror_    (unsigned int,  unsigned char);
  16      =1  extern unsigned long _lror_    (unsigned long, unsigned char);
  17      =1  extern unsigned char _crol_    (unsigned char, unsigned char);
  18      =1  extern unsigned int  _irol_    (unsigned int,  unsigned char);
  19      =1  extern unsigned long _lrol_    (unsigned long, unsigned char);
  20      =1  extern unsigned char _chkfloat_(float);
  21      =1  extern void          _push_    (unsigned char _sfr);
  22      =1  extern void          _pop_     (unsigned char _sfr);
  23      =1  
  24      =1  #endif
  25      =1  
  32          
  33          // ----------------------------------------------------------------------------
  34          // Function Name : DMA_ReadReg
  35          // Purpose       : Read software-dma register.
  36          // Params        :
  37          // Returns       :
  38          // Note          :
  39          // ----------------------------------------------------------------------------
  40          void DMA_ReadReg(byte regaddr, byte XDATA* pbuf, byte length)
  41          {
  42   1              byte    isr;
  43   1      
  44   1              isr = EA;
  45   1              EA = 0;
  46   1              _nop_();
  47   1              DCIR = regaddr;
  48   1              while (length--)
  49   1                      pbuf[length] = DDR;
  50   1              EA = isr;
  51   1      
  52   1      } // End of DMA_ReadReg //
  53          
  54          // ----------------------------------------------------------------------------
  55          // Function Name : DMA_WriteReg
  56          // Purpose       : Set software-dma register.
  57          // Params        :
  58          // Returns       :
  59          // Note          :
  60          // ----------------------------------------------------------------------------
  61          void DMA_WriteReg(byte regaddr, byte XDATA* pbuf, byte length)
  62          {
C51 COMPILER V8.06   DMA                                                                   03/13/2026 10:21:42 PAGE 30  

  63   1              byte    isr;
  64   1      
  65   1              isr = EA;
  66   1              EA = 0;
  67   1              while (length--)
  68   1                      DDR = pbuf[length];
  69   1              DCIR = regaddr;
  70   1              EA = isr;
  71   1      
  72   1      } // End of STOE_DMA_WriteReg //
  73          
  74          // ----------------------------------------------------------------------------
  75          // Function Name : DMA_Init
  76          // Purpose       : Initial software-dma module.
  77          // Params        :
  78          // Returns       :
  79          // Note          :
  80          // ----------------------------------------------------------------------------
  81          void DMA_Init(void)
  82          {
  83   1              // set DMA gap //
  84   1              TDR = DMA_GAP;
  85   1              TCIR = 0x24;
  86   1      
  87   1      } // End of DMA_Init //
  88          
  89          // ----------------------------------------------------------------------------
  90          // Function Name : DMA_Start
  91          // Purpose       : Start software-dma module.
  92          // Params        :
  93          // Returns       :
  94          // Note          :
  95          // ----------------------------------------------------------------------------
  96          void DMA_Start(void)
  97          {
  98   1              EINT2 = 1;      // Enable INT2 interrupt for DMA request. //
  99   1      
 100   1      } // End of DMA_Start //
 101          
 102          // ----------------------------------------------------------------------------
 103          // Function Name: dma_CheckStatus
 104          // Purpose      : Wait software-dma to complete, and check if dma error happened or not?
 105          // Params       : 
 106          // Returns      : 0 : dma error had happened, so set DMA_FORCE_STOP bit for
 107          //                              dma can work next time.
 108          //                      1 :     dma had completed.
 109          // Note         :
 110          // ----------------------------------------------------------------------------
 111          byte dma_CheckStatus(void)
 112          {
 113   1              byte XDATA      temp;
 114   1      
 115   1              while (1)
 116   1              {
 117   2                      DMA_ReadReg(SW_DMA_CMD_REG, &temp, 1);
 118   2                      if (temp & 0x37)
 119   2                      {
 120   3                              if (temp & DMA_ERROR_BIT)
 121   3                              {
 122   4                                      temp &= ~0x7f;
 123   4                                      temp |= DMA_FORCE_STOP;
 124   4                                      DMA_WriteReg(SW_DMA_CMD_REG, &temp, 1);
C51 COMPILER V8.06   DMA                                                                   03/13/2026 10:21:42 PAGE 31  

 125   4                                      return 0;
 126   4                              }
 127   3                      }
 128   2                      else
 129   2                              return 1;
 130   2              }
 131   1      } // End of dma_CheckStatus //
 132          
 133          #if (DMA_INCLUDE_ETHERNET_MODULE == DMA_YES)
 134          // ----------------------------------------------------------------------------
 135          // Function Name : DMA_GrantXdata
 136          // Purpose       : Use sw-dma doing memory copy. The scope of source and destination
 137          //                              target must     be smaller than 64k sram memory.
 138          //                      If the scope of either source or destination target is large than
 139          //                              64k memory,     the programmers can call DMA_Grant() instead of
 140          //                              this function.
 141          //                      DMA_GrantXdata() can run faster than DMA_Grant() function.
 142          // Params        : 
 143          // Returns       : A address of XDATA memory that point to the next address of
 144          //                              the end address of the scope of destination target.
 145          // Note          :
 146          // ----------------------------------------------------------------------------
 147          byte XDATA* DMA_GrantXdata(byte XDATA* pdest, byte XDATA* psour, uint length)
 148          {
 149   1              byte XDATA                 temp[3];
 150   1              uint XDATA*        ptempshort = (uint XDATA*)&temp[1];
 151   1              byte                       dmatype    = 0;
 152   1      
 153   1              temp[0] = 0;
 154   1              *ptempshort = psour;
 155   1              DMA_WriteReg(SW_DMA_SOUR_ADDR_REG, temp, 3);
 156   1              *ptempshort = pdest;
 157   1              DMA_WriteReg(SW_DMA_TARGET_ADDR_REG, temp, 3);
 158   1              *ptempshort = length;
 159   1              DMA_WriteReg(SW_DMA_BYTE_COUNT_REG, temp + 1, 2);
 160   1      
 161   1              if ((psour >= PBDP->RcvStartAddr) && (psour <= PBDP->RcvEndAddr))
 162   1                      dmatype = DMA_FROM_RPBR;
 163   1              if ((pdest >= PBDP->XmtStartAddr) && (pdest <= PBDP->XmtEndAddr))
 164   1                      dmatype |= DMA_TO_TPBR;
 165   1      
 166   1              temp[0] = (DMA_CMD_GO | dmatype);
 167   1              DMA_WriteReg(SW_DMA_CMD_REG, temp, 1);
 168   1      
 169   1              if (dmatype | DMA_TO_TPBR)
 170   1              {
 171   2                      pdest += length;
 172   2                      if (pdest > PBDP->XmtEndAddr)
 173   2                              pdest -= STOE_XMIT_BUF_SIZE;
 174   2              }
 175   1      
 176   1              // check software dma had completed. //
 177   1              if (dma_CheckStatus())
 178   1                      return pdest;
 179   1              else
 180   1              return 0;
 181   1      
 182   1      } // DMA_GrantXdata //
 183          
 184          #if (DMA_SRAM_RANGE == DMA_COPY_LARGE_THAN_64K)
 185          // ----------------------------------------------------------------------------
 186          // Function Name : DMA_Grant
C51 COMPILER V8.06   DMA                                                                   03/13/2026 10:21:42 PAGE 32  

 187          // Purpose       : Use sw-dma doing memory copy. 
 188          // Params        : 
 189          // Returns       : A address of sram memory that point to the next address of
 190          //                              the end address of the scope of destination target.
 191          // Note          :
 192          // ----------------------------------------------------------------------------
 193          byte* DMA_Grant(byte* pdest, byte* psour, uint length)
 194          {
 195   1              byte  XDATA                sourtemp[4];
 196   1              byte  XDATA                desttemp[4];
 197   1              ulong XDATA*    psourtemplong = (ulong XDATA*)&sourtemp[0];
 198   1              ulong XDATA*    pdesttemplong = (ulong XDATA*)&desttemp[0];
 199   1              uint XDATA*                ptempshort;
 200   1              byte                       dmatype       = 0;
 201   1              byte*                      ptemp;
 202   1      
 203   1              *psourtemplong = (ulong)psour;
 204   1              *pdesttemplong = (ulong)pdest;
 205   1      
 206   1              sourtemp[1]--;  // for Keil C memory type //
 207   1              DMA_WriteReg(SW_DMA_SOUR_ADDR_REG, &sourtemp[1], 3);
 208   1      
 209   1              if (sourtemp[1] == 0)
 210   1              {
 211   2                ptempshort     = (uint XDATA*)&sourtemp[2];
 212   2                if ((*ptempshort >= (uint)PBDP->RcvStartAddr) && (*ptempshort <= (uint)PBDP->RcvEndAddr))
 213   2                              dmatype = DMA_FROM_RPBR;
 214   2              }
 215   1      
 216   1              desttemp[1]--;  // for Keil C memory type //
 217   1              DMA_WriteReg(SW_DMA_TARGET_ADDR_REG, &desttemp[1], 3);
 218   1      
 219   1              if (desttemp[1] == 0)
 220   1              {
 221   2                ptempshort     = (uint XDATA*)&desttemp[2];
 222   2                if ((*ptempshort >= (uint)PBDP->XmtStartAddr) && (*ptempshort <= (uint)PBDP->XmtEndAddr))
 223   2                              dmatype |= DMA_TO_TPBR;
 224   2              }
 225   1      
 226   1              ptempshort       = (uint XDATA*)&sourtemp[0];
 227   1              *ptempshort = length;
 228   1              DMA_WriteReg(SW_DMA_BYTE_COUNT_REG, sourtemp, 2);
 229   1      
 230   1              sourtemp[0] = (DMA_CMD_GO | dmatype);
 231   1              DMA_WriteReg(SW_DMA_CMD_REG, sourtemp, 1);
 232   1      
 233   1              if (dmatype | DMA_TO_TPBR)
 234   1              {
 235   2                      ptemp = pdest;
 236   2                      pdest += length;
 237   2      // for KEIL //
 238   2                      if (ptemp > pdest)
 239   2                              pdest += 0x10000;
 240   2      // end //
 241   2                ptempshort     = (uint XDATA*)&desttemp[2];
 242   2                      (*ptempshort) += length;
 243   2                if (*ptempshort > (uint)PBDP->XmtEndAddr)
 244   2                              pdest -= STOE_XMIT_BUF_SIZE;
 245   2              }
 246   1      
 247   1              // check software dma had completed. //
 248   1              if (dma_CheckStatus())
C51 COMPILER V8.06   DMA                                                                   03/13/2026 10:21:42 PAGE 33  

 249   1                      return pdest;
 250   1              else
 251   1              return 0;
 252   1      
 253   1      } // DMA_Grant //
 254          #endif // End of #if (DMA_SRAM_RANGE == DMA_COPY_LARGE_THAN_64K) //
 255          #else
              // ----------------------------------------------------------------------------
              // Function Name : DMA_GrantXdata
              // Purpose       : Use sw-dma doing memory copy. The scope of source and destination
              //                              target must     be smaller than 64k sram memory.
              //                      If the scope of either source or destination target is large than
              //                              64k memory,     the programmers can call DMA_Grant() instead of
              //                              this function.
              //                      DMA_GrantXdata() can run faster than DMA_Grant() function.
              // Params        : 
              // Returns       :  A address of XDATA memory that point to the next address of
              //                              the end address of the scope of destination target.
              // Note          :
              // ----------------------------------------------------------------------------
              byte XDATA* DMA_GrantXdata(byte XDATA* pdest, byte XDATA* psour, uint length)
              {
                      byte XDATA         temp[3];
                      uint XDATA*   ptempshort = (uint XDATA*)&temp[1];
                              
                      temp[0] = 0;
                      *ptempshort = psour;
                      DMA_WriteReg(SW_DMA_SOUR_ADDR_REG, temp, 3);
                      *ptempshort = pdest;
                      DMA_WriteReg(SW_DMA_TARGET_ADDR_REG, temp, 3);
                      *ptempshort = length;
                      DMA_WriteReg(SW_DMA_BYTE_COUNT_REG, temp + 1, 2);
              
                      temp[0] = DMA_CMD_GO;
                      DMA_WriteReg(SW_DMA_CMD_REG, temp, 1);
              
                      pdest += length;
              
                      // check software dma had completed. //
                      if (dma_CheckStatus())
                              return pdest;
                      else
                              return 0;
              
              } // DMA_GrantXdata //
              
              #if (DMA_SRAM_RANGE == DMA_COPY_LARGE_THAN_64K)
              // ----------------------------------------------------------------------------
              // Function Name : DMA_Grant
              // Purpose       : Use dma doing memory copy. 
              // Params        :
              // Returns       : A address of sram memory that point to the next address of
              //                              the end address of the scope of destination target.
              // Note          :
              // ----------------------------------------------------------------------------
              byte* DMA_Grant(byte* pdest, byte* psour, uint length)
              {
                      byte XDATA              temp[4];
                      ulong XDATA*    ptemplong = (ulong XDATA*)&temp[0];
                      uint XDATA*     ptempshort;
                      byte*                   ptemp;
              
C51 COMPILER V8.06   DMA                                                                   03/13/2026 10:21:42 PAGE 34  

                      *ptemplong = (ulong)psour;
                      temp[1]--;      // for Keil C memory type //
                      DMA_WriteReg(SW_DMA_SOUR_ADDR_REG, &temp[1], 3);
              
                      *ptemplong = (ulong)pdest;
                      temp[1]--;      // for Keil C memory type //
                      DMA_WriteReg(SW_DMA_TARGET_ADDR_REG, &temp[1], 3);
              
                      ptempshort  = (uint XDATA*)&temp[0];
                      *ptempshort = length;
                      DMA_WriteReg(SW_DMA_BYTE_COUNT_REG, temp, 2);
              
                      temp[0] = DMA_CMD_GO;
                      DMA_WriteReg(SW_DMA_CMD_REG, temp, 1);
              
                      ptemp = pdest;
                      pdest += length;
              // for KEIL //
                      if (ptemp > pdest)
                              pdest += 0x10000;
              // end //
                      // check software dma had completed. //
                      if (dma_CheckStatus())
                              return pdest;
                      else
                              return 0;
              
              } // DMA_Grant //
              #endif // End of #if (DMA_SRAM_RANGE == DMA_COPY_LARGE_THAN_64K) //
              
              
              #endif // End of #if (DMA_INCLUDE_ETHERNET_MODULE == DMA_YES) //
 343          
 344          // End of dma.c //
C51 COMPILER V8.06   DMA                                                                   03/13/2026 10:21:42 PAGE 35  

ASSEMBLY LISTING OF GENERATED OBJECT CODE


             ; FUNCTION _DMA_ReadReg (BEGIN)
                                           ; SOURCE LINE # 40
0000 90000000    R     MOV     DPTR,#regaddr
0004 EF                MOV     A,R7
0005 F0                MOVX    @DPTR,A
0006 90000000    R     MOV     DPTR,#pbuf
000A EC                MOV     A,R4
000B F0                MOVX    @DPTR,A
000C A3                INC     DPTR
000D ED                MOV     A,R5
000E F0                MOVX    @DPTR,A
000F 90000000    R     MOV     DPTR,#length
0013 EB                MOV     A,R3
0014 F0                MOVX    @DPTR,A
                                           ; SOURCE LINE # 41
                                           ; SOURCE LINE # 44
0015 A2AF              MOV     C,EA
0017 E4                CLR     A
0018 33                RLC     A
0019 FF                MOV     R7,A
001A 90000000    R     MOV     DPTR,#isr
001E EF                MOV     A,R7
001F F0                MOVX    @DPTR,A
                                           ; SOURCE LINE # 45
0020 C2AF              CLR     EA
                                           ; SOURCE LINE # 46
0022 00                NOP     
                                           ; SOURCE LINE # 47
0023 90000000    R     MOV     DPTR,#regaddr
0027 E0                MOVX    A,@DPTR
0028 FF                MOV     R7,A
0029 8F9B              MOV     DCIR,R7
002B         ?C0001:
                                           ; SOURCE LINE # 48
002B 90000000    R     MOV     DPTR,#length
002F E0                MOVX    A,@DPTR
0030 FF                MOV     R7,A
0031 14                DEC     A
0032 F0                MOVX    @DPTR,A
0033 EF                MOV     A,R7
0034 6028              JZ      ?C0002
                                           ; SOURCE LINE # 49
0036 90000000    R     MOV     DPTR,#length
003A E0                MOVX    A,@DPTR
003B FF                MOV     R7,A
003C 90000000    R     MOV     DPTR,#pbuf
0040 E0                MOVX    A,@DPTR
0041 FC                MOV     R4,A
0042 A3                INC     DPTR
0043 E0                MOVX    A,@DPTR
0044 FD                MOV     R5,A
0045 8D82              MOV     DPL,R5
0047 8C83              MOV     DPH,R4
0049 759300      E     MOV     DPX,#?C?XDATASEG
004C E582              MOV     A,DPL
004E 2F                ADD     A,R7
004F F582              MOV     DPL,A
0051 E4                CLR     A
0052 3583              ADDC    A,DPH
C51 COMPILER V8.06   DMA                                                                   03/13/2026 10:21:42 PAGE 36  

0054 F583              MOV     DPH,A
0056 759300      E     MOV     DPX,#?C?XDATASEG
0059 E59C              MOV     A,DDR
005B F0                MOVX    @DPTR,A
005C 80CD              SJMP    ?C0001
005E         ?C0002:
                                           ; SOURCE LINE # 50
005E 90000000    R     MOV     DPTR,#isr
0062 E0                MOVX    A,@DPTR
0063 FF                MOV     R7,A
0064 EF                MOV     A,R7
0065 24FF              ADD     A,#0FFH
0067 92AF              MOV     EA,C
                                           ; SOURCE LINE # 52
0069         ?C0003:
0069 22                RET     
             ; FUNCTION _DMA_ReadReg (END)

             ; FUNCTION _DMA_WriteReg (BEGIN)
                                           ; SOURCE LINE # 61
0000 90000000    R     MOV     DPTR,#regaddr
0004 EF                MOV     A,R7
0005 F0                MOVX    @DPTR,A
0006 90000000    R     MOV     DPTR,#pbuf
000A EC                MOV     A,R4
000B F0                MOVX    @DPTR,A
000C A3                INC     DPTR
000D ED                MOV     A,R5
000E F0                MOVX    @DPTR,A
000F 90000000    R     MOV     DPTR,#length
0013 EB                MOV     A,R3
0014 F0                MOVX    @DPTR,A
                                           ; SOURCE LINE # 62
                                           ; SOURCE LINE # 65
0015 A2AF              MOV     C,EA
0017 E4                CLR     A
0018 33                RLC     A
0019 FF                MOV     R7,A
001A 90000000    R     MOV     DPTR,#isr
001E EF                MOV     A,R7
001F F0                MOVX    @DPTR,A
                                           ; SOURCE LINE # 66
0020 C2AF              CLR     EA
0022         ?C0004:
                                           ; SOURCE LINE # 67
0022 90000000    R     MOV     DPTR,#length
0026 E0                MOVX    A,@DPTR
0027 FF                MOV     R7,A
0028 14                DEC     A
0029 F0                MOVX    @DPTR,A
002A EF                MOV     A,R7
002B 6029              JZ      ?C0005
                                           ; SOURCE LINE # 68
002D 90000000    R     MOV     DPTR,#length
0031 E0                MOVX    A,@DPTR
0032 FF                MOV     R7,A
0033 90000000    R     MOV     DPTR,#pbuf
0037 E0                MOVX    A,@DPTR
0038 FC                MOV     R4,A
0039 A3                INC     DPTR
003A E0                MOVX    A,@DPTR
003B FD                MOV     R5,A
C51 COMPILER V8.06   DMA                                                                   03/13/2026 10:21:42 PAGE 37  

003C 8D82              MOV     DPL,R5
003E 8C83              MOV     DPH,R4
0040 759300      E     MOV     DPX,#?C?XDATASEG
0043 E582              MOV     A,DPL
0045 2F                ADD     A,R7
0046 F582              MOV     DPL,A
0048 E4                CLR     A
0049 3583              ADDC    A,DPH
004B F583              MOV     DPH,A
004D 759300      E     MOV     DPX,#?C?XDATASEG
0050 E0                MOVX    A,@DPTR
0051 FF                MOV     R7,A
0052 8F9C              MOV     DDR,R7
0054 80CC              SJMP    ?C0004
0056         ?C0005:
                                           ; SOURCE LINE # 69
0056 90000000    R     MOV     DPTR,#regaddr
005A E0                MOVX    A,@DPTR
005B FF                MOV     R7,A
005C 8F9B              MOV     DCIR,R7
                                           ; SOURCE LINE # 70
005E 90000000    R     MOV     DPTR,#isr
0062 E0                MOVX    A,@DPTR
0063 FF                MOV     R7,A
0064 EF                MOV     A,R7
0065 24FF              ADD     A,#0FFH
0067 92AF              MOV     EA,C
                                           ; SOURCE LINE # 72
0069         ?C0006:
0069 22                RET     
             ; FUNCTION _DMA_WriteReg (END)

             ; FUNCTION DMA_Init (BEGIN)
                                           ; SOURCE LINE # 81
                                           ; SOURCE LINE # 82
                                           ; SOURCE LINE # 84
0000 75AF02            MOV     TDR,#02H
                                           ; SOURCE LINE # 85
0003 75AE24            MOV     TCIR,#024H
                                           ; SOURCE LINE # 87
0006         ?C0007:
0006 22                RET     
             ; FUNCTION DMA_Init (END)

             ; FUNCTION DMA_Start (BEGIN)
                                           ; SOURCE LINE # 96
                                           ; SOURCE LINE # 97
                                           ; SOURCE LINE # 98
0000 D2E8              SETB    EINT2
                                           ; SOURCE LINE # 100
0002         ?C0008:
0002 22                RET     
             ; FUNCTION DMA_Start (END)

             ; FUNCTION dma_CheckStatus (BEGIN)
                                           ; SOURCE LINE # 111
                                           ; SOURCE LINE # 112
0000         ?C0009:
                                           ; SOURCE LINE # 115
                                           ; SOURCE LINE # 116
                                           ; SOURCE LINE # 117
0000 7C00        R     MOV     R4,#HIGH temp
C51 COMPILER V8.06   DMA                                                                   03/13/2026 10:21:42 PAGE 38  

0002 7D00        R     MOV     R5,#LOW temp
0004 7B01              MOV     R3,#01H
0006 7F00              MOV     R7,#00H
0008 12000000    R     LCALL   _DMA_ReadReg
                                           ; SOURCE LINE # 118
000C 90000000    R     MOV     DPTR,#temp
0010 E0                MOVX    A,@DPTR
0011 FF                MOV     R7,A
0012 EF                MOV     A,R7
0013 5437              ANL     A,#037H
0015 FF                MOV     R7,A
0016 EF                MOV     A,R7
0017 603B              JZ      ?C0011
                                           ; SOURCE LINE # 119
                                           ; SOURCE LINE # 120
0019 90000000    R     MOV     DPTR,#temp
001D E0                MOVX    A,@DPTR
001E FF                MOV     R7,A
001F EF                MOV     A,R7
0020 30E2DD            JNB     ACC.2,?C0009
                                           ; SOURCE LINE # 121
                                           ; SOURCE LINE # 122
0023 90000000    R     MOV     DPTR,#temp
0027 E0                MOVX    A,@DPTR
0028 FF                MOV     R7,A
0029 EF                MOV     A,R7
002A 5480              ANL     A,#080H
002C FF                MOV     R7,A
002D 90000000    R     MOV     DPTR,#temp
0031 EF                MOV     A,R7
0032 F0                MOVX    @DPTR,A
                                           ; SOURCE LINE # 123
0033 90000000    R     MOV     DPTR,#temp
0037 E0                MOVX    A,@DPTR
0038 FF                MOV     R7,A
0039 EF                MOV     A,R7
003A 4402              ORL     A,#02H
003C FF                MOV     R7,A
003D 90000000    R     MOV     DPTR,#temp
0041 EF                MOV     A,R7
0042 F0                MOVX    @DPTR,A
                                           ; SOURCE LINE # 124
0043 7C00        R     MOV     R4,#HIGH temp
0045 7D00        R     MOV     R5,#LOW temp
0047 7B01              MOV     R3,#01H
0049 7F00              MOV     R7,#00H
004B 12000000    R     LCALL   _DMA_WriteReg
                                           ; SOURCE LINE # 125
004F 7F00              MOV     R7,#00H
0051 22                RET     
                                           ; SOURCE LINE # 126
0052         ?C0012:
                                           ; SOURCE LINE # 127
0052 80AC              SJMP    ?C0009
0054         ?C0011:
                                           ; SOURCE LINE # 129
0054 7F01              MOV     R7,#01H
0056 22                RET     
0057         ?C0014:
                                           ; SOURCE LINE # 130
0057 80A7              SJMP    ?C0009
0059         ?C0010:
C51 COMPILER V8.06   DMA                                                                   03/13/2026 10:21:42 PAGE 39  

                                           ; SOURCE LINE # 131
0059         ?C0013:
0059 22                RET     
             ; FUNCTION dma_CheckStatus (END)

             ; FUNCTION _DMA_GrantXdata (BEGIN)
                                           ; SOURCE LINE # 147
0000 90000000    R     MOV     DPTR,#pdest
0004 EE                MOV     A,R6
0005 F0                MOVX    @DPTR,A
0006 A3                INC     DPTR
0007 EF                MOV     A,R7
0008 F0                MOVX    @DPTR,A
0009 90000000    R     MOV     DPTR,#psour
000D EC                MOV     A,R4
000E F0                MOVX    @DPTR,A
000F A3                INC     DPTR
0010 ED                MOV     A,R5
0011 F0                MOVX    @DPTR,A
0012 90000000    R     MOV     DPTR,#length
0016 EA                MOV     A,R2
0017 F0                MOVX    @DPTR,A
0018 A3                INC     DPTR
0019 EB                MOV     A,R3
001A F0                MOVX    @DPTR,A
                                           ; SOURCE LINE # 148
                                           ; SOURCE LINE # 150
001B 7E00        R     MOV     R6,#HIGH temp+01H
001D 7F00        R     MOV     R7,#LOW temp+01H
001F 90000000    R     MOV     DPTR,#ptempshort
0023 EE                MOV     A,R6
0024 F0                MOVX    @DPTR,A
0025 A3                INC     DPTR
0026 EF                MOV     A,R7
0027 F0                MOVX    @DPTR,A
                                           ; SOURCE LINE # 151
0028 90000000    R     MOV     DPTR,#dmatype
002C E4                CLR     A
002D F0                MOVX    @DPTR,A
                                           ; SOURCE LINE # 153
002E 90000000    R     MOV     DPTR,#temp
0032 E4                CLR     A
0033 F0                MOVX    @DPTR,A
                                           ; SOURCE LINE # 154
0034 90000000    R     MOV     DPTR,#psour
0038 E0                MOVX    A,@DPTR
0039 FE                MOV     R6,A
003A A3                INC     DPTR
003B E0                MOVX    A,@DPTR
003C FF                MOV     R7,A
003D 90000000    R     MOV     DPTR,#ptempshort
0041 E0                MOVX    A,@DPTR
0042 FC                MOV     R4,A
0043 A3                INC     DPTR
0044 E0                MOVX    A,@DPTR
0045 FD                MOV     R5,A
0046 8D82              MOV     DPL,R5
0048 8C83              MOV     DPH,R4
004A 759300      E     MOV     DPX,#?C?XDATASEG
004D EE                MOV     A,R6
004E F0                MOVX    @DPTR,A
004F A3                INC     DPTR
C51 COMPILER V8.06   DMA                                                                   03/13/2026 10:21:42 PAGE 40  

0050 EF                MOV     A,R7
0051 F0                MOVX    @DPTR,A
                                           ; SOURCE LINE # 155
0052 7C00        R     MOV     R4,#HIGH temp
0054 7D00        R     MOV     R5,#LOW temp
0056 7B03              MOV     R3,#03H
0058 7F02              MOV     R7,#02H
005A 12000000    R     LCALL   _DMA_WriteReg
                                           ; SOURCE LINE # 156
005E 90000000    R     MOV     DPTR,#pdest
0062 E0                MOVX    A,@DPTR
0063 FE                MOV     R6,A
0064 A3                INC     DPTR
0065 E0                MOVX    A,@DPTR
0066 FF                MOV     R7,A
0067 90000000    R     MOV     DPTR,#ptempshort
006B E0                MOVX    A,@DPTR
006C FC                MOV     R4,A
006D A3                INC     DPTR
006E E0                MOVX    A,@DPTR
006F FD                MOV     R5,A
0070 8D82              MOV     DPL,R5
0072 8C83              MOV     DPH,R4
0074 759300      E     MOV     DPX,#?C?XDATASEG
0077 EE                MOV     A,R6
0078 F0                MOVX    @DPTR,A
0079 A3                INC     DPTR
007A EF                MOV     A,R7
007B F0                MOVX    @DPTR,A
                                           ; SOURCE LINE # 157
007C 7C00        R     MOV     R4,#HIGH temp
007E 7D00        R     MOV     R5,#LOW temp
0080 7B03              MOV     R3,#03H
0082 7F06              MOV     R7,#06H
0084 12000000    R     LCALL   _DMA_WriteReg
                                           ; SOURCE LINE # 158
0088 90000000    R     MOV     DPTR,#length
008C E0                MOVX    A,@DPTR
008D FE                MOV     R6,A
008E A3                INC     DPTR
008F E0                MOVX    A,@DPTR
0090 FF                MOV     R7,A
0091 90000000    R     MOV     DPTR,#ptempshort
0095 E0                MOVX    A,@DPTR
0096 FC                MOV     R4,A
0097 A3                INC     DPTR
0098 E0                MOVX    A,@DPTR
0099 FD                MOV     R5,A
009A 8D82              MOV     DPL,R5
009C 8C83              MOV     DPH,R4
009E 759300      E     MOV     DPX,#?C?XDATASEG
00A1 EE                MOV     A,R6
00A2 F0                MOVX    @DPTR,A
00A3 A3                INC     DPTR
00A4 EF                MOV     A,R7
00A5 F0                MOVX    @DPTR,A
                                           ; SOURCE LINE # 159
00A6 7C00        R     MOV     R4,#HIGH temp+01H
00A8 7D00        R     MOV     R5,#LOW temp+01H
00AA 7B02              MOV     R3,#02H
00AC 7F0A              MOV     R7,#0AH
00AE 12000000    R     LCALL   _DMA_WriteReg
C51 COMPILER V8.06   DMA                                                                   03/13/2026 10:21:42 PAGE 41  

                                           ; SOURCE LINE # 161
00B2 90000000    E     MOV     DPTR,#PBDP
00B6 E0                MOVX    A,@DPTR
00B7 FE                MOV     R6,A
00B8 A3                INC     DPTR
00B9 E0                MOVX    A,@DPTR
00BA FF                MOV     R7,A
00BB 8F82              MOV     DPL,R7
00BD 8E83              MOV     DPH,R6
00BF 759300      E     MOV     DPX,#?C?XDATASEG
00C2 E582              MOV     A,DPL
00C4 248C              ADD     A,#08CH
00C6 F582              MOV     DPL,A
00C8 E583              MOV     A,DPH
00CA 3400              ADDC    A,#00H
00CC F583              MOV     DPH,A
00CE 759300      E     MOV     DPX,#?C?XDATASEG
00D1 E0                MOVX    A,@DPTR
00D2 FE                MOV     R6,A
00D3 A3                INC     DPTR
00D4 E0                MOVX    A,@DPTR
00D5 FF                MOV     R7,A
00D6 90000000    R     MOV     DPTR,#psour
00DA E0                MOVX    A,@DPTR
00DB FC                MOV     R4,A
00DC A3                INC     DPTR
00DD E0                MOVX    A,@DPTR
00DE FD                MOV     R5,A
00DF C3                CLR     C
00E0 ED                MOV     A,R5
00E1 9F                SUBB    A,R7
00E2 EC                MOV     A,R4
00E3 9E                SUBB    A,R6
00E4 403B              JC      ?C0015
00E6 90000000    E     MOV     DPTR,#PBDP
00EA E0                MOVX    A,@DPTR
00EB FE                MOV     R6,A
00EC A3                INC     DPTR
00ED E0                MOVX    A,@DPTR
00EE FF                MOV     R7,A
00EF 8F82              MOV     DPL,R7
00F1 8E83              MOV     DPH,R6
00F3 759300      E     MOV     DPX,#?C?XDATASEG
00F6 E582              MOV     A,DPL
00F8 248E              ADD     A,#08EH
00FA F582              MOV     DPL,A
00FC E583              MOV     A,DPH
00FE 3400              ADDC    A,#00H
0100 F583              MOV     DPH,A
0102 759300      E     MOV     DPX,#?C?XDATASEG
0105 E0                MOVX    A,@DPTR
0106 FE                MOV     R6,A
0107 A3                INC     DPTR
0108 E0                MOVX    A,@DPTR
0109 FF                MOV     R7,A
010A 90000000    R     MOV     DPTR,#psour
010E E0                MOVX    A,@DPTR
010F FC                MOV     R4,A
0110 A3                INC     DPTR
0111 E0                MOVX    A,@DPTR
0112 FD                MOV     R5,A
0113 D3                SETB    C
C51 COMPILER V8.06   DMA                                                                   03/13/2026 10:21:42 PAGE 42  

0114 ED                MOV     A,R5
0115 9F                SUBB    A,R7
0116 EC                MOV     A,R4
0117 9E                SUBB    A,R6
0118 5007              JNC     ?C0015
                                           ; SOURCE LINE # 162
011A 90000000    R     MOV     DPTR,#dmatype
011E 7410              MOV     A,#010H
0120 F0                MOVX    @DPTR,A
0121         ?C0015:
                                           ; SOURCE LINE # 163
0121 90000000    E     MOV     DPTR,#PBDP
0125 E0                MOVX    A,@DPTR
0126 FE                MOV     R6,A
0127 A3                INC     DPTR
0128 E0                MOVX    A,@DPTR
0129 FF                MOV     R7,A
012A 8F82              MOV     DPL,R7
012C 8E83              MOV     DPH,R6
012E 759300      E     MOV     DPX,#?C?XDATASEG
0131 E582              MOV     A,DPL
0133 2490              ADD     A,#090H
0135 F582              MOV     DPL,A
0137 E583              MOV     A,DPH
0139 3400              ADDC    A,#00H
013B F583              MOV     DPH,A
013D 759300      E     MOV     DPX,#?C?XDATASEG
0140 E0                MOVX    A,@DPTR
0141 FE                MOV     R6,A
0142 A3                INC     DPTR
0143 E0                MOVX    A,@DPTR
0144 FF                MOV     R7,A
0145 90000000    R     MOV     DPTR,#pdest
0149 E0                MOVX    A,@DPTR
014A FC                MOV     R4,A
014B A3                INC     DPTR
014C E0                MOVX    A,@DPTR
014D FD                MOV     R5,A
014E C3                CLR     C
014F ED                MOV     A,R5
0150 9F                SUBB    A,R7
0151 EC                MOV     A,R4
0152 9E                SUBB    A,R6
0153 4044              JC      ?C0016
0155 90000000    E     MOV     DPTR,#PBDP
0159 E0                MOVX    A,@DPTR
015A FE                MOV     R6,A
015B A3                INC     DPTR
015C E0                MOVX    A,@DPTR
015D FF                MOV     R7,A
015E 8F82              MOV     DPL,R7
0160 8E83              MOV     DPH,R6
0162 759300      E     MOV     DPX,#?C?XDATASEG
0165 E582              MOV     A,DPL
0167 2492              ADD     A,#092H
0169 F582              MOV     DPL,A
016B E583              MOV     A,DPH
016D 3400              ADDC    A,#00H
016F F583              MOV     DPH,A
0171 759300      E     MOV     DPX,#?C?XDATASEG
0174 E0                MOVX    A,@DPTR
0175 FE                MOV     R6,A
C51 COMPILER V8.06   DMA                                                                   03/13/2026 10:21:42 PAGE 43  

0176 A3                INC     DPTR
0177 E0                MOVX    A,@DPTR
0178 FF                MOV     R7,A
0179 90000000    R     MOV     DPTR,#pdest
017D E0                MOVX    A,@DPTR
017E FC                MOV     R4,A
017F A3                INC     DPTR
0180 E0                MOVX    A,@DPTR
0181 FD                MOV     R5,A
0182 D3                SETB    C
0183 ED                MOV     A,R5
0184 9F                SUBB    A,R7
0185 EC                MOV     A,R4
0186 9E                SUBB    A,R6
0187 5010              JNC     ?C0016
                                           ; SOURCE LINE # 164
0189 90000000    R     MOV     DPTR,#dmatype
018D E0                MOVX    A,@DPTR
018E FF                MOV     R7,A
018F EF                MOV     A,R7
0190 4420              ORL     A,#020H
0192 FF                MOV     R7,A
0193 90000000    R     MOV     DPTR,#dmatype
0197 EF                MOV     A,R7
0198 F0                MOVX    @DPTR,A
0199         ?C0016:
                                           ; SOURCE LINE # 166
0199 90000000    R     MOV     DPTR,#dmatype
019D E0                MOVX    A,@DPTR
019E FF                MOV     R7,A
019F EF                MOV     A,R7
01A0 4401              ORL     A,#01H
01A2 FF                MOV     R7,A
01A3 90000000    R     MOV     DPTR,#temp
01A7 EF                MOV     A,R7
01A8 F0                MOVX    @DPTR,A
                                           ; SOURCE LINE # 167
01A9 7C00        R     MOV     R4,#HIGH temp
01AB 7D00        R     MOV     R5,#LOW temp
01AD 7B01              MOV     R3,#01H
01AF 7F00              MOV     R7,#00H
01B1 12000000    R     LCALL   _DMA_WriteReg
                                           ; SOURCE LINE # 169
01B5 90000000    R     MOV     DPTR,#dmatype
01B9 E0                MOVX    A,@DPTR
01BA FF                MOV     R7,A
01BB EF                MOV     A,R7
01BC 4420              ORL     A,#020H
01BE FF                MOV     R7,A
01BF EF                MOV     A,R7
01C0 605B              JZ      ?C0017
                                           ; SOURCE LINE # 170
                                           ; SOURCE LINE # 171
01C2 90000000    R     MOV     DPTR,#length
01C6 E0                MOVX    A,@DPTR
01C7 FE                MOV     R6,A
01C8 A3                INC     DPTR
01C9 E0                MOVX    A,@DPTR
01CA FF                MOV     R7,A
01CB 90000000    R     MOV     DPTR,#pdest+01H
01CF E0                MOVX    A,@DPTR
01D0 2F                ADD     A,R7
C51 COMPILER V8.06   DMA                                                                   03/13/2026 10:21:42 PAGE 44  

01D1 F0                MOVX    @DPTR,A
01D2 90000000    R     MOV     DPTR,#pdest
01D6 E0                MOVX    A,@DPTR
01D7 3E                ADDC    A,R6
01D8 F0                MOVX    @DPTR,A
                                           ; SOURCE LINE # 172
01D9 90000000    E     MOV     DPTR,#PBDP
01DD E0                MOVX    A,@DPTR
01DE FE                MOV     R6,A
01DF A3                INC     DPTR
01E0 E0                MOVX    A,@DPTR
01E1 FF                MOV     R7,A
01E2 8F82              MOV     DPL,R7
01E4 8E83              MOV     DPH,R6
01E6 759300      E     MOV     DPX,#?C?XDATASEG
01E9 E582              MOV     A,DPL
01EB 2492              ADD     A,#092H
01ED F582              MOV     DPL,A
01EF E583              MOV     A,DPH
01F1 3400              ADDC    A,#00H
01F3 F583              MOV     DPH,A
01F5 759300      E     MOV     DPX,#?C?XDATASEG
01F8 E0                MOVX    A,@DPTR
01F9 FE                MOV     R6,A
01FA A3                INC     DPTR
01FB E0                MOVX    A,@DPTR
01FC FF                MOV     R7,A
01FD 90000000    R     MOV     DPTR,#pdest
0201 E0                MOVX    A,@DPTR
0202 FC                MOV     R4,A
0203 A3                INC     DPTR
0204 E0                MOVX    A,@DPTR
0205 FD                MOV     R5,A
0206 D3                SETB    C
0207 ED                MOV     A,R5
0208 9F                SUBB    A,R7
0209 EC                MOV     A,R4
020A 9E                SUBB    A,R6
020B 4010              JC      ?C0017
                                           ; SOURCE LINE # 173
020D 90000000    R     MOV     DPTR,#pdest+01H
0211 E0                MOVX    A,@DPTR
0212 2400              ADD     A,#00H
0214 F0                MOVX    @DPTR,A
0215 90000000    R     MOV     DPTR,#pdest
0219 E0                MOVX    A,@DPTR
021A 34F8              ADDC    A,#0F8H
021C F0                MOVX    @DPTR,A
021D         ?C0018:
                                           ; SOURCE LINE # 174
021D         ?C0017:
                                           ; SOURCE LINE # 177
021D 12000000    R     LCALL   dma_CheckStatus
0221 EF                MOV     A,R7
0222 600B              JZ      ?C0019
                                           ; SOURCE LINE # 178
0224 90000000    R     MOV     DPTR,#pdest
0228 E0                MOVX    A,@DPTR
0229 FE                MOV     R6,A
022A A3                INC     DPTR
022B E0                MOVX    A,@DPTR
022C FF                MOV     R7,A
C51 COMPILER V8.06   DMA                                                                   03/13/2026 10:21:42 PAGE 45  

022D 22                RET     
022E 22                RET     
022F         ?C0019:
                                           ; SOURCE LINE # 180
022F E4                CLR     A
0230 7E00              MOV     R6,#00H
0232 7F00              MOV     R7,#00H
0234         ?C0021:
                                           ; SOURCE LINE # 182
0234         ?C0020:
0234 22                RET     
             ; FUNCTION _DMA_GrantXdata (END)

             ; FUNCTION _DMA_Grant (BEGIN)
                                           ; SOURCE LINE # 193
0000 90000000    R     MOV     DPTR,#pdest
0004 EB                MOV     A,R3
0005 F0                MOVX    @DPTR,A
0006 A3                INC     DPTR
0007 EA                MOV     A,R2
0008 F0                MOVX    @DPTR,A
0009 A3                INC     DPTR
000A E9                MOV     A,R1
000B F0                MOVX    @DPTR,A
                                           ; SOURCE LINE # 194
                                           ; SOURCE LINE # 197
000C 7E00        R     MOV     R6,#HIGH sourtemp
000E 7F00        R     MOV     R7,#LOW sourtemp
0010 90000000    R     MOV     DPTR,#psourtemplong
0014 EE                MOV     A,R6
0015 F0                MOVX    @DPTR,A
0016 A3                INC     DPTR
0017 EF                MOV     A,R7
0018 F0                MOVX    @DPTR,A
                                           ; SOURCE LINE # 198
0019 7E00        R     MOV     R6,#HIGH desttemp
001B 7F00        R     MOV     R7,#LOW desttemp
001D 90000000    R     MOV     DPTR,#pdesttemplong
0021 EE                MOV     A,R6
0022 F0                MOVX    @DPTR,A
0023 A3                INC     DPTR
0024 EF                MOV     A,R7
0025 F0                MOVX    @DPTR,A
                                           ; SOURCE LINE # 200
0026 90000000    R     MOV     DPTR,#dmatype
002A E4                CLR     A
002B F0                MOVX    @DPTR,A
                                           ; SOURCE LINE # 203
002C 90000000    R     MOV     DPTR,#psour
0030 E0                MOVX    A,@DPTR
0031 FB                MOV     R3,A
0032 A3                INC     DPTR
0033 E0                MOVX    A,@DPTR
0034 FA                MOV     R2,A
0035 A3                INC     DPTR
0036 E0                MOVX    A,@DPTR
0037 F9                MOV     R1,A
0038 AF01              MOV     R7,AR1
003A AE02              MOV     R6,AR2
003C AD03              MOV     R5,AR3
003E 7C00              MOV     R4,#00H
0040 90000000    R     MOV     DPTR,#psourtemplong
C51 COMPILER V8.06   DMA                                                                   03/13/2026 10:21:42 PAGE 46  

0044 E0                MOVX    A,@DPTR
0045 FA                MOV     R2,A
0046 A3                INC     DPTR
0047 E0                MOVX    A,@DPTR
0048 FB                MOV     R3,A
0049 8B82              MOV     DPL,R3
004B 8A83              MOV     DPH,R2
004D 759300      E     MOV     DPX,#?C?XDATASEG
0050 12000000    E     LCALL   ?C?LSTXDATA
                                           ; SOURCE LINE # 204
0054 90000000    R     MOV     DPTR,#pdest
0058 E0                MOVX    A,@DPTR
0059 FB                MOV     R3,A
005A A3                INC     DPTR
005B E0                MOVX    A,@DPTR
005C FA                MOV     R2,A
005D A3                INC     DPTR
005E E0                MOVX    A,@DPTR
005F F9                MOV     R1,A
0060 AF01              MOV     R7,AR1
0062 AE02              MOV     R6,AR2
0064 AD03              MOV     R5,AR3
0066 7C00              MOV     R4,#00H
0068 90000000    R     MOV     DPTR,#pdesttemplong
006C E0                MOVX    A,@DPTR
006D FA                MOV     R2,A
006E A3                INC     DPTR
006F E0                MOVX    A,@DPTR
0070 FB                MOV     R3,A
0071 8B82              MOV     DPL,R3
0073 8A83              MOV     DPH,R2
0075 759300      E     MOV     DPX,#?C?XDATASEG
0078 12000000    E     LCALL   ?C?LSTXDATA
                                           ; SOURCE LINE # 206
007C 90000000    R     MOV     DPTR,#sourtemp+01H
0080 E0                MOVX    A,@DPTR
0081 14                DEC     A
0082 F0                MOVX    @DPTR,A
                                           ; SOURCE LINE # 207
0083 7C00        R     MOV     R4,#HIGH sourtemp+01H
0085 7D00        R     MOV     R5,#LOW sourtemp+01H
0087 7B03              MOV     R3,#03H
0089 7F02              MOV     R7,#02H
008B 12000000    R     LCALL   _DMA_WriteReg
                                           ; SOURCE LINE # 209
008F 90000000    R     MOV     DPTR,#sourtemp+01H
0093 E0                MOVX    A,@DPTR
0094 FF                MOV     R7,A
0095 EF                MOV     A,R7
0096 6003              JZ      $ + 5H
0098 010000      R     AJMP    ?C0022
                                           ; SOURCE LINE # 210
                                           ; SOURCE LINE # 211
009B 7E00        R     MOV     R6,#HIGH sourtemp+02H
009D 7F00        R     MOV     R7,#LOW sourtemp+02H
009F 90000000    R     MOV     DPTR,#ptempshort
00A3 EE                MOV     A,R6
00A4 F0                MOVX    @DPTR,A
00A5 A3                INC     DPTR
00A6 EF                MOV     A,R7
00A7 F0                MOVX    @DPTR,A
                                           ; SOURCE LINE # 212
C51 COMPILER V8.06   DMA                                                                   03/13/2026 10:21:42 PAGE 47  

00A8 90000000    E     MOV     DPTR,#PBDP
00AC E0                MOVX    A,@DPTR
00AD FE                MOV     R6,A
00AE A3                INC     DPTR
00AF E0                MOVX    A,@DPTR
00B0 FF                MOV     R7,A
00B1 8F82              MOV     DPL,R7
00B3 8E83              MOV     DPH,R6
00B5 759300      E     MOV     DPX,#?C?XDATASEG
00B8 E582              MOV     A,DPL
00BA 248C              ADD     A,#08CH
00BC F582              MOV     DPL,A
00BE E583              MOV     A,DPH
00C0 3400              ADDC    A,#00H
00C2 F583              MOV     DPH,A
00C4 759300      E     MOV     DPX,#?C?XDATASEG
00C7 E0                MOVX    A,@DPTR
00C8 FE                MOV     R6,A
00C9 A3                INC     DPTR
00CA E0                MOVX    A,@DPTR
00CB FF                MOV     R7,A
00CC 90000000    R     MOV     DPTR,#ptempshort
00D0 E0                MOVX    A,@DPTR
00D1 FC                MOV     R4,A
00D2 A3                INC     DPTR
00D3 E0                MOVX    A,@DPTR
00D4 FD                MOV     R5,A
00D5 8D82              MOV     DPL,R5
00D7 8C83              MOV     DPH,R4
00D9 759300      E     MOV     DPX,#?C?XDATASEG
00DC E0                MOVX    A,@DPTR
00DD FC                MOV     R4,A
00DE A3                INC     DPTR
00DF E0                MOVX    A,@DPTR
00E0 FD                MOV     R5,A
00E1 C3                CLR     C
00E2 ED                MOV     A,R5
00E3 9F                SUBB    A,R7
00E4 EC                MOV     A,R4
00E5 9E                SUBB    A,R6
00E6 4047              JC      ?C0022
00E8 90000000    E     MOV     DPTR,#PBDP
00EC E0                MOVX    A,@DPTR
00ED FE                MOV     R6,A
00EE A3                INC     DPTR
00EF E0                MOVX    A,@DPTR
00F0 FF                MOV     R7,A
00F1 8F82              MOV     DPL,R7
00F3 8E83              MOV     DPH,R6
00F5 759300      E     MOV     DPX,#?C?XDATASEG
00F8 E582              MOV     A,DPL
00FA 248E              ADD     A,#08EH
00FC F582              MOV     DPL,A
00FE E583              MOV     A,DPH
0100 3400              ADDC    A,#00H
0102 F583              MOV     DPH,A
0104 759300      E     MOV     DPX,#?C?XDATASEG
0107 E0                MOVX    A,@DPTR
0108 FE                MOV     R6,A
0109 A3                INC     DPTR
010A E0                MOVX    A,@DPTR
010B FF                MOV     R7,A
C51 COMPILER V8.06   DMA                                                                   03/13/2026 10:21:42 PAGE 48  

010C 90000000    R     MOV     DPTR,#ptempshort
0110 E0                MOVX    A,@DPTR
0111 FC                MOV     R4,A
0112 A3                INC     DPTR
0113 E0                MOVX    A,@DPTR
0114 FD                MOV     R5,A
0115 8D82              MOV     DPL,R5
0117 8C83              MOV     DPH,R4
0119 759300      E     MOV     DPX,#?C?XDATASEG
011C E0                MOVX    A,@DPTR
011D FC                MOV     R4,A
011E A3                INC     DPTR
011F E0                MOVX    A,@DPTR
0120 FD                MOV     R5,A
0121 D3                SETB    C
0122 ED                MOV     A,R5
0123 9F                SUBB    A,R7
0124 EC                MOV     A,R4
0125 9E                SUBB    A,R6
0126 5007              JNC     ?C0022
                                           ; SOURCE LINE # 213
0128 90000000    R     MOV     DPTR,#dmatype
012C 7410              MOV     A,#010H
012E F0                MOVX    @DPTR,A
012F         ?C0023:
                                           ; SOURCE LINE # 214
012F         ?C0022:
                                           ; SOURCE LINE # 216
012F 90000000    R     MOV     DPTR,#desttemp+01H
0133 E0                MOVX    A,@DPTR
0134 14                DEC     A
0135 F0                MOVX    @DPTR,A
                                           ; SOURCE LINE # 217
0136 7C00        R     MOV     R4,#HIGH desttemp+01H
0138 7D00        R     MOV     R5,#LOW desttemp+01H
013A 7B03              MOV     R3,#03H
013C 7F06              MOV     R7,#06H
013E 12000000    R     LCALL   _DMA_WriteReg
                                           ; SOURCE LINE # 219
0142 90000000    R     MOV     DPTR,#desttemp+01H
0146 E0                MOVX    A,@DPTR
0147 FF                MOV     R7,A
0148 EF                MOV     A,R7
0149 6003              JZ      $ + 5H
014B 010000      R     AJMP    ?C0024
                                           ; SOURCE LINE # 220
                                           ; SOURCE LINE # 221
014E 7E00        R     MOV     R6,#HIGH desttemp+02H
0150 7F00        R     MOV     R7,#LOW desttemp+02H
0152 90000000    R     MOV     DPTR,#ptempshort
0156 EE                MOV     A,R6
0157 F0                MOVX    @DPTR,A
0158 A3                INC     DPTR
0159 EF                MOV     A,R7
015A F0                MOVX    @DPTR,A
                                           ; SOURCE LINE # 222
015B 90000000    E     MOV     DPTR,#PBDP
015F E0                MOVX    A,@DPTR
0160 FE                MOV     R6,A
0161 A3                INC     DPTR
0162 E0                MOVX    A,@DPTR
0163 FF                MOV     R7,A
C51 COMPILER V8.06   DMA                                                                   03/13/2026 10:21:42 PAGE 49  

0164 8F82              MOV     DPL,R7
0166 8E83              MOV     DPH,R6
0168 759300      E     MOV     DPX,#?C?XDATASEG
016B E582              MOV     A,DPL
016D 2490              ADD     A,#090H
016F F582              MOV     DPL,A
0171 E583              MOV     A,DPH
0173 3400              ADDC    A,#00H
0175 F583              MOV     DPH,A
0177 759300      E     MOV     DPX,#?C?XDATASEG
017A E0                MOVX    A,@DPTR
017B FE                MOV     R6,A
017C A3                INC     DPTR
017D E0                MOVX    A,@DPTR
017E FF                MOV     R7,A
017F 90000000    R     MOV     DPTR,#ptempshort
0183 E0                MOVX    A,@DPTR
0184 FC                MOV     R4,A
0185 A3                INC     DPTR
0186 E0                MOVX    A,@DPTR
0187 FD                MOV     R5,A
0188 8D82              MOV     DPL,R5
018A 8C83              MOV     DPH,R4
018C 759300      E     MOV     DPX,#?C?XDATASEG
018F E0                MOVX    A,@DPTR
0190 FC                MOV     R4,A
0191 A3                INC     DPTR
0192 E0                MOVX    A,@DPTR
0193 FD                MOV     R5,A
0194 C3                CLR     C
0195 ED                MOV     A,R5
0196 9F                SUBB    A,R7
0197 EC                MOV     A,R4
0198 9E                SUBB    A,R6
0199 4050              JC      ?C0024
019B 90000000    E     MOV     DPTR,#PBDP
019F E0                MOVX    A,@DPTR
01A0 FE                MOV     R6,A
01A1 A3                INC     DPTR
01A2 E0                MOVX    A,@DPTR
01A3 FF                MOV     R7,A
01A4 8F82              MOV     DPL,R7
01A6 8E83              MOV     DPH,R6
01A8 759300      E     MOV     DPX,#?C?XDATASEG
01AB E582              MOV     A,DPL
01AD 2492              ADD     A,#092H
01AF F582              MOV     DPL,A
01B1 E583              MOV     A,DPH
01B3 3400              ADDC    A,#00H
01B5 F583              MOV     DPH,A
01B7 759300      E     MOV     DPX,#?C?XDATASEG
01BA E0                MOVX    A,@DPTR
01BB FE                MOV     R6,A
01BC A3                INC     DPTR
01BD E0                MOVX    A,@DPTR
01BE FF                MOV     R7,A
01BF 90000000    R     MOV     DPTR,#ptempshort
01C3 E0                MOVX    A,@DPTR
01C4 FC                MOV     R4,A
01C5 A3                INC     DPTR
01C6 E0                MOVX    A,@DPTR
01C7 FD                MOV     R5,A
C51 COMPILER V8.06   DMA                                                                   03/13/2026 10:21:42 PAGE 50  

01C8 8D82              MOV     DPL,R5
01CA 8C83              MOV     DPH,R4
01CC 759300      E     MOV     DPX,#?C?XDATASEG
01CF E0                MOVX    A,@DPTR
01D0 FC                MOV     R4,A
01D1 A3                INC     DPTR
01D2 E0                MOVX    A,@DPTR
01D3 FD                MOV     R5,A
01D4 D3                SETB    C
01D5 ED                MOV     A,R5
01D6 9F                SUBB    A,R7
01D7 EC                MOV     A,R4
01D8 9E                SUBB    A,R6
01D9 5010              JNC     ?C0024
                                           ; SOURCE LINE # 223
01DB 90000000    R     MOV     DPTR,#dmatype
01DF E0                MOVX    A,@DPTR
01E0 FF                MOV     R7,A
01E1 EF                MOV     A,R7
01E2 4420              ORL     A,#020H
01E4 FF                MOV     R7,A
01E5 90000000    R     MOV     DPTR,#dmatype
01E9 EF                MOV     A,R7
01EA F0                MOVX    @DPTR,A
01EB         ?C0025:
                                           ; SOURCE LINE # 224
01EB         ?C0024:
                                           ; SOURCE LINE # 226
01EB 7E00        R     MOV     R6,#HIGH sourtemp
01ED 7F00        R     MOV     R7,#LOW sourtemp
01EF 90000000    R     MOV     DPTR,#ptempshort
01F3 EE                MOV     A,R6
01F4 F0                MOVX    @DPTR,A
01F5 A3                INC     DPTR
01F6 EF                MOV     A,R7
01F7 F0                MOVX    @DPTR,A
                                           ; SOURCE LINE # 227
01F8 90000000    R     MOV     DPTR,#length
01FC E0                MOVX    A,@DPTR
01FD FE                MOV     R6,A
01FE A3                INC     DPTR
01FF E0                MOVX    A,@DPTR
0200 FF                MOV     R7,A
0201 90000000    R     MOV     DPTR,#ptempshort
0205 E0                MOVX    A,@DPTR
0206 FC                MOV     R4,A
0207 A3                INC     DPTR
0208 E0                MOVX    A,@DPTR
0209 FD                MOV     R5,A
020A 8D82              MOV     DPL,R5
020C 8C83              MOV     DPH,R4
020E 759300      E     MOV     DPX,#?C?XDATASEG
0211 EE                MOV     A,R6
0212 F0                MOVX    @DPTR,A
0213 A3                INC     DPTR
0214 EF                MOV     A,R7
0215 F0                MOVX    @DPTR,A
                                           ; SOURCE LINE # 228
0216 7C00        R     MOV     R4,#HIGH sourtemp
0218 7D00        R     MOV     R5,#LOW sourtemp
021A 7B02              MOV     R3,#02H
021C 7F0A              MOV     R7,#0AH
C51 COMPILER V8.06   DMA                                                                   03/13/2026 10:21:42 PAGE 51  

021E 12000000    R     LCALL   _DMA_WriteReg
                                           ; SOURCE LINE # 230
0222 90000000    R     MOV     DPTR,#dmatype
0226 E0                MOVX    A,@DPTR
0227 FF                MOV     R7,A
0228 EF                MOV     A,R7
0229 4401              ORL     A,#01H
022B FF                MOV     R7,A
022C 90000000    R     MOV     DPTR,#sourtemp
0230 EF                MOV     A,R7
0231 F0                MOVX    @DPTR,A
                                           ; SOURCE LINE # 231
0232 7C00        R     MOV     R4,#HIGH sourtemp
0234 7D00        R     MOV     R5,#LOW sourtemp
0236 7B01              MOV     R3,#01H
0238 7F00              MOV     R7,#00H
023A 12000000    R     LCALL   _DMA_WriteReg
                                           ; SOURCE LINE # 233
023E 90000000    R     MOV     DPTR,#dmatype
0242 E0                MOVX    A,@DPTR
0243 FF                MOV     R7,A
0244 EF                MOV     A,R7
0245 4420              ORL     A,#020H
0247 FF                MOV     R7,A
0248 EF                MOV     A,R7
0249 7003              JNZ     $ + 5H
024B 010000      R     AJMP    ?C0026
                                           ; SOURCE LINE # 234
                                           ; SOURCE LINE # 235
024E 90000000    R     MOV     DPTR,#pdest
0252 E0                MOVX    A,@DPTR
0253 FB                MOV     R3,A
0254 A3                INC     DPTR
0255 E0                MOVX    A,@DPTR
0256 FA                MOV     R2,A
0257 A3                INC     DPTR
0258 E0                MOVX    A,@DPTR
0259 F9                MOV     R1,A
025A 90000000    R     MOV     DPTR,#ptemp
025E EB                MOV     A,R3
025F F0                MOVX    @DPTR,A
0260 A3                INC     DPTR
0261 EA                MOV     A,R2
0262 F0                MOVX    @DPTR,A
0263 A3                INC     DPTR
0264 E9                MOV     A,R1
0265 F0                MOVX    @DPTR,A
                                           ; SOURCE LINE # 236
0266 90000000    R     MOV     DPTR,#length
026A E0                MOVX    A,@DPTR
026B FE                MOV     R6,A
026C A3                INC     DPTR
026D E0                MOVX    A,@DPTR
026E FF                MOV     R7,A
026F 90000000    R     MOV     DPTR,#pdest+01H
0273 EE                MOV     A,R6
0274 8FF0              MOV     B,R7
0276 12000000    E     LCALL   ?C?IILDX
                                           ; SOURCE LINE # 238
027A 90000000    R     MOV     DPTR,#pdest
027E E0                MOVX    A,@DPTR
027F FB                MOV     R3,A
C51 COMPILER V8.06   DMA                                                                   03/13/2026 10:21:42 PAGE 52  

0280 A3                INC     DPTR
0281 E0                MOVX    A,@DPTR
0282 FA                MOV     R2,A
0283 A3                INC     DPTR
0284 E0                MOVX    A,@DPTR
0285 F9                MOV     R1,A
0286 C003              PUSH    AR3
0288 C002              PUSH    AR2
028A C001              PUSH    AR1
028C 90000000    R     MOV     DPTR,#ptemp
0290 E0                MOVX    A,@DPTR
0291 FB                MOV     R3,A
0292 A3                INC     DPTR
0293 E0                MOVX    A,@DPTR
0294 FA                MOV     R2,A
0295 A3                INC     DPTR
0296 E0                MOVX    A,@DPTR
0297 F9                MOV     R1,A
0298 D3                SETB    C
0299 D082              POP     DPL
029B D083              POP     DPH
029D D0E0              POP     ACC
029F E9                MOV     A,R1
02A0 9582              SUBB    A,DPL
02A2 EA                MOV     A,R2
02A3 9583              SUBB    A,DPH
02A5         ?C0032:
02A5 4000              JC      ?C0027
                                           ; SOURCE LINE # 239
02A7         ?C0027:
                                           ; SOURCE LINE # 241
02A7 7E00        R     MOV     R6,#HIGH desttemp+02H
02A9 7F00        R     MOV     R7,#LOW desttemp+02H
02AB 90000000    R     MOV     DPTR,#ptempshort
02AF EE                MOV     A,R6
02B0 F0                MOVX    @DPTR,A
02B1 A3                INC     DPTR
02B2 EF                MOV     A,R7
02B3 F0                MOVX    @DPTR,A
                                           ; SOURCE LINE # 242
02B4 90000000    R     MOV     DPTR,#length
02B8 E0                MOVX    A,@DPTR
02B9 FE                MOV     R6,A
02BA A3                INC     DPTR
02BB E0                MOVX    A,@DPTR
02BC FF                MOV     R7,A
02BD 90000000    R     MOV     DPTR,#ptempshort
02C1 E0                MOVX    A,@DPTR
02C2 FC                MOV     R4,A
02C3 A3                INC     DPTR
02C4 E0                MOVX    A,@DPTR
02C5 FD                MOV     R5,A
02C6 8D82              MOV     DPL,R5
02C8 8C83              MOV     DPH,R4
02CA 759300      E     MOV     DPX,#?C?XDATASEG
02CD EE                MOV     A,R6
02CE 8FF0              MOV     B,R7
02D0 12000000    E     LCALL   ?C?IILDX
                                           ; SOURCE LINE # 243
02D4 90000000    E     MOV     DPTR,#PBDP
02D8 E0                MOVX    A,@DPTR
02D9 FE                MOV     R6,A
C51 COMPILER V8.06   DMA                                                                   03/13/2026 10:21:42 PAGE 53  

02DA A3                INC     DPTR
02DB E0                MOVX    A,@DPTR
02DC FF                MOV     R7,A
02DD 8F82              MOV     DPL,R7
02DF 8E83              MOV     DPH,R6
02E1 759300      E     MOV     DPX,#?C?XDATASEG
02E4 E582              MOV     A,DPL
02E6 2492              ADD     A,#092H
02E8 F582              MOV     DPL,A
02EA E583              MOV     A,DPH
02EC 3400              ADDC    A,#00H
02EE F583              MOV     DPH,A
02F0 759300      E     MOV     DPX,#?C?XDATASEG
02F3 E0                MOVX    A,@DPTR
02F4 FE                MOV     R6,A
02F5 A3                INC     DPTR
02F6 E0                MOVX    A,@DPTR
02F7 FF                MOV     R7,A
02F8 90000000    R     MOV     DPTR,#ptempshort
02FC E0                MOVX    A,@DPTR
02FD FC                MOV     R4,A
02FE A3                INC     DPTR
02FF E0                MOVX    A,@DPTR
0300 FD                MOV     R5,A
0301 8D82              MOV     DPL,R5
0303 8C83              MOV     DPH,R4
0305 759300      E     MOV     DPX,#?C?XDATASEG
0308 E0                MOVX    A,@DPTR
0309 FC                MOV     R4,A
030A A3                INC     DPTR
030B E0                MOVX    A,@DPTR
030C FD                MOV     R5,A
030D D3                SETB    C
030E ED                MOV     A,R5
030F 9F                SUBB    A,R7
0310 EC                MOV     A,R4
0311 9E                SUBB    A,R6
0312 400D              JC      ?C0026
                                           ; SOURCE LINE # 244
0314 90000000    R     MOV     DPTR,#pdest+01H
0318 74F8              MOV     A,#0F8H
031A 75F000            MOV     B,#00H
031D 12000000    E     LCALL   ?C?IILDX
0321         ?C0028:
                                           ; SOURCE LINE # 245
0321         ?C0026:
                                           ; SOURCE LINE # 248
0321 12000000    R     LCALL   dma_CheckStatus
0325 EF                MOV     A,R7
0326 600E              JZ      ?C0029
                                           ; SOURCE LINE # 249
0328 90000000    R     MOV     DPTR,#pdest
032C E0                MOVX    A,@DPTR
032D FB                MOV     R3,A
032E A3                INC     DPTR
032F E0                MOVX    A,@DPTR
0330 FA                MOV     R2,A
0331 A3                INC     DPTR
0332 E0                MOVX    A,@DPTR
0333 F9                MOV     R1,A
0334 22                RET     
0335 22                RET     
C51 COMPILER V8.06   DMA                                                                   03/13/2026 10:21:42 PAGE 54  

0336         ?C0029:
                                           ; SOURCE LINE # 251
0336 7B00              MOV     R3,#00H
0338 7A00              MOV     R2,#00H
033A 7900              MOV     R1,#00H
033C         ?C0031:
                                           ; SOURCE LINE # 253
033C         ?C0030:
033C 22                RET     
             ; FUNCTION _DMA_Grant (END)

C51 COMPILER V8.06   DMA                                                                   03/13/2026 10:21:42 PAGE 55  

NAME                                    CLASS   MSPACE  TYPE    OFFSET  SIZE
====                                    =====   ======  ====    ======  ====


TB08 . . . . . . . . . . . . . . . . .  ABSBIT   -----  BIT      009BH  1
PHY_INFO . . . . . . . . . . . . . . .  TYPEDEF  -----  STRUCT   -----  2
  PhyAddr. . . . . . . . . . . . . . .  MEMBER   -----  U_CHAR   0000H  1
  PhyType. . . . . . . . . . . . . . .  MEMBER   -----  U_CHAR   0001H  1
TB18 . . . . . . . . . . . . . . . . .  ABSBIT   -----  BIT      00C3H  1
P0 . . . . . . . . . . . . . . . . . .  SFR      DATA   U_CHAR   0080H  1
SM00 . . . . . . . . . . . . . . . . .  ABSBIT   -----  BIT      009FH  1
P1 . . . . . . . . . . . . . . . . . .  SFR      DATA   U_CHAR   0090H  1
SM10 . . . . . . . . . . . . . . . . .  ABSBIT   -----  BIT      00C7H  1
SM01 . . . . . . . . . . . . . . . . .  ABSBIT   -----  BIT      009EH  1
P2 . . . . . . . . . . . . . . . . . .  SFR      DATA   U_CHAR   00A0H  1
SM11 . . . . . . . . . . . . . . . . .  ABSBIT   -----  BIT      00C6H  1
SM02 . . . . . . . . . . . . . . . . .  ABSBIT   -----  BIT      009DH  1
P3 . . . . . . . . . . . . . . . . . .  SFR      DATA   U_CHAR   00B0H  1
AC . . . . . . . . . . . . . . . . . .  ABSBIT   -----  BIT      00D6H  1
SM12 . . . . . . . . . . . . . . . . .  ABSBIT   -----  BIT      00C5H  1
T0 . . . . . . . . . . . . . . . . . .  ABSBIT   -----  BIT      00B4H  1
SPIDR. . . . . . . . . . . . . . . . .  SFR      DATA   U_CHAR   00CFH  1
T1 . . . . . . . . . . . . . . . . . .  ABSBIT   -----  BIT      00B5H  1
EA . . . . . . . . . . . . . . . . . .  ABSBIT   -----  BIT      00AFH  1
OWCIR. . . . . . . . . . . . . . . . .  SFR      DATA   U_CHAR   00D6H  1
CH . . . . . . . . . . . . . . . . . .  SFR      DATA   U_CHAR   00C5H  1
DPH0 . . . . . . . . . . . . . . . . .  SFR      DATA   U_CHAR   0083H  1
IE . . . . . . . . . . . . . . . . . .  SFR      DATA   U_CHAR   00A8H  1
DPH1 . . . . . . . . . . . . . . . . .  SFR      DATA   U_CHAR   0085H  1
CL . . . . . . . . . . . . . . . . . .  SFR      DATA   U_CHAR   00C4H  1
P0_0 . . . . . . . . . . . . . . . . .  ABSBIT   -----  BIT      0080H  1
P1_0 . . . . . . . . . . . . . . . . .  ABSBIT   -----  BIT      0090H  1
P0_1 . . . . . . . . . . . . . . . . .  ABSBIT   -----  BIT      0081H  1
CCAPH0 . . . . . . . . . . . . . . . .  SFR      DATA   U_CHAR   00B9H  1
DPL0 . . . . . . . . . . . . . . . . .  SFR      DATA   U_CHAR   0082H  1
P2_0 . . . . . . . . . . . . . . . . .  ABSBIT   -----  BIT      00A0H  1
P1_1 . . . . . . . . . . . . . . . . .  ABSBIT   -----  BIT      0091H  1
P0_2 . . . . . . . . . . . . . . . . .  ABSBIT   -----  BIT      0082H  1
CCAPH1 . . . . . . . . . . . . . . . .  SFR      DATA   U_CHAR   00BAH  1
DPL1 . . . . . . . . . . . . . . . . .  SFR      DATA   U_CHAR   0084H  1
P3_0 . . . . . . . . . . . . . . . . .  ABSBIT   -----  BIT      00B0H  1
P2_1 . . . . . . . . . . . . . . . . .  ABSBIT   -----  BIT      00A1H  1
P1_2 . . . . . . . . . . . . . . . . .  ABSBIT   -----  BIT      0092H  1
P0_3 . . . . . . . . . . . . . . . . .  ABSBIT   -----  BIT      0083H  1
UR2_DLH. . . . . . . . . . . . . . . .  SFR      DATA   U_CHAR   00E2H  1
CCAPH2 . . . . . . . . . . . . . . . .  SFR      DATA   U_CHAR   00BBH  1
XMRHR. . . . . . . . . . . . . . . . .  SFR      DATA   U_CHAR   00A7H  1
P3_1 . . . . . . . . . . . . . . . . .  ABSBIT   -----  BIT      00B1H  1
P2_2 . . . . . . . . . . . . . . . . .  ABSBIT   -----  BIT      00A2H  1
P1_3 . . . . . . . . . . . . . . . . .  ABSBIT   -----  BIT      0093H  1
P0_4 . . . . . . . . . . . . . . . . .  ABSBIT   -----  BIT      0084H  1
CCAPH3 . . . . . . . . . . . . . . . .  SFR      DATA   U_CHAR   00BCH  1
P3_2 . . . . . . . . . . . . . . . . .  ABSBIT   -----  BIT      00B2H  1
P2_3 . . . . . . . . . . . . . . . . .  ABSBIT   -----  BIT      00A3H  1
P1_4 . . . . . . . . . . . . . . . . .  ABSBIT   -----  BIT      0094H  1
P0_5 . . . . . . . . . . . . . . . . .  ABSBIT   -----  BIT      0085H  1
TA . . . . . . . . . . . . . . . . . .  SFR      DATA   U_CHAR   00EBH  1
CCAPH4 . . . . . . . . . . . . . . . .  SFR      DATA   U_CHAR   00BDH  1
CCAPL0 . . . . . . . . . . . . . . . .  SFR      DATA   U_CHAR   00B1H  1
STOE_FRAME_HEADER. . . . . . . . . . .  TYPEDEF  -----  STRUCT   -----  7
  NPR. . . . . . . . . . . . . . . . .  MEMBER   -----  U_INT    0000H  2
C51 COMPILER V8.06   DMA                                                                   03/13/2026 10:21:42 PAGE 56  

NAME                                    CLASS   MSPACE  TYPE    OFFSET  SIZE
====                                    =====   ======  ====    ======  ====


  Length . . . . . . . . . . . . . . .  MEMBER   -----  U_INT    0002H  2
  Protocol . . . . . . . . . . . . . .  MEMBER   -----  U_CHAR   0004H  1
  DataOffset . . . . . . . . . . . . .  MEMBER   -----  U_CHAR   0005H  1
  Packet . . . . . . . . . . . . . . .  MEMBER   -----  U_CHAR   0006H  1
EXF2 . . . . . . . . . . . . . . . . .  ABSBIT   -----  BIT      00CEH  1
RD . . . . . . . . . . . . . . . . . .  ABSBIT   -----  BIT      00B7H  1
P3_3 . . . . . . . . . . . . . . . . .  ABSBIT   -----  BIT      00B3H  1
P2_4 . . . . . . . . . . . . . . . . .  ABSBIT   -----  BIT      00A4H  1
REN0 . . . . . . . . . . . . . . . . .  ABSBIT   -----  BIT      009CH  1
P1_5 . . . . . . . . . . . . . . . . .  ABSBIT   -----  BIT      0095H  1
P0_6 . . . . . . . . . . . . . . . . .  ABSBIT   -----  BIT      0086H  1
UR2_FCR. . . . . . . . . . . . . . . .  SFR      DATA   U_CHAR   00E3H  1
CCAPM0 . . . . . . . . . . . . . . . .  SFR      DATA   U_CHAR   00D1H  1
T2IF . . . . . . . . . . . . . . . . .  SFR      DATA   U_CHAR   00C9H  1
CCAPL1 . . . . . . . . . . . . . . . .  SFR      DATA   U_CHAR   00B2H  1
REN1 . . . . . . . . . . . . . . . . .  ABSBIT   -----  BIT      00C4H  1
P3_4 . . . . . . . . . . . . . . . . .  ABSBIT   -----  BIT      00B4H  1
P2_5 . . . . . . . . . . . . . . . . .  ABSBIT   -----  BIT      00A5H  1
P1_6 . . . . . . . . . . . . . . . . .  ABSBIT   -----  BIT      0096H  1
P0_7 . . . . . . . . . . . . . . . . .  ABSBIT   -----  BIT      0087H  1
UR2_DLL. . . . . . . . . . . . . . . .  SFR      DATA   U_CHAR   00E1H  1
CCAPM1 . . . . . . . . . . . . . . . .  SFR      DATA   U_CHAR   00D2H  1
CCAPL2 . . . . . . . . . . . . . . . .  SFR      DATA   U_CHAR   00B3H  1
XMRLR. . . . . . . . . . . . . . . . .  SFR      DATA   U_CHAR   00A6H  1
P3_5 . . . . . . . . . . . . . . . . .  ABSBIT   -----  BIT      00B5H  1
P2_6 . . . . . . . . . . . . . . . . .  ABSBIT   -----  BIT      00A6H  1
P1_7 . . . . . . . . . . . . . . . . .  ABSBIT   -----  BIT      0097H  1
CCAPM2 . . . . . . . . . . . . . . . .  SFR      DATA   U_CHAR   00D3H  1
CCAPL3 . . . . . . . . . . . . . . . .  SFR      DATA   U_CHAR   00B4H  1
XMWHR. . . . . . . . . . . . . . . . .  SFR      DATA   U_CHAR   00A5H  1
P3_6 . . . . . . . . . . . . . . . . .  ABSBIT   -----  BIT      00B6H  1
P2_7 . . . . . . . . . . . . . . . . .  ABSBIT   -----  BIT      00A7H  1
CCAPM3 . . . . . . . . . . . . . . . .  SFR      DATA   U_CHAR   00D4H  1
IP . . . . . . . . . . . . . . . . . .  SFR      DATA   U_CHAR   00B8H  1
CCAPL4 . . . . . . . . . . . . . . . .  SFR      DATA   U_CHAR   00B5H  1
P3_7 . . . . . . . . . . . . . . . . .  ABSBIT   -----  BIT      00B7H  1
CCAPM4 . . . . . . . . . . . . . . . .  SFR      DATA   U_CHAR   00D5H  1
DBAR . . . . . . . . . . . . . . . . .  SFR      DATA   U_CHAR   009AH  1
UR2_IER. . . . . . . . . . . . . . . .  SFR      DATA   U_CHAR   00E2H  1
CY . . . . . . . . . . . . . . . . . .  ABSBIT   -----  BIT      00D7H  1
INT0 . . . . . . . . . . . . . . . . .  ABSBIT   -----  BIT      00B2H  1
UR2_LCR. . . . . . . . . . . . . . . .  SFR      DATA   U_CHAR   00E4H  1
XMWLR. . . . . . . . . . . . . . . . .  SFR      DATA   U_CHAR   00A4H  1
INT1 . . . . . . . . . . . . . . . . .  ABSBIT   -----  BIT      00B3H  1
UR2_MCR. . . . . . . . . . . . . . . .  SFR      DATA   U_CHAR   00E5H  1
DPX0 . . . . . . . . . . . . . . . . .  SFR      DATA   U_CHAR   0093H  1
I2CCIR . . . . . . . . . . . . . . . .  SFR      DATA   U_CHAR   0096H  1
DPX1 . . . . . . . . . . . . . . . . .  SFR      DATA   U_CHAR   0095H  1
UR2_IIR. . . . . . . . . . . . . . . .  SFR      DATA   U_CHAR   00E3H  1
UR2_RBR. . . . . . . . . . . . . . . .  SFR      DATA   U_CHAR   00E1H  1
ACON . . . . . . . . . . . . . . . . .  SFR      DATA   U_CHAR   009DH  1
DCIR . . . . . . . . . . . . . . . . .  SFR      DATA   U_CHAR   009BH  1
SP . . . . . . . . . . . . . . . . . .  SFR      DATA   U_CHAR   0081H  1
CCON . . . . . . . . . . . . . . . . .  SFR      DATA   U_CHAR   00C3H  1
CMOD . . . . . . . . . . . . . . . . .  SFR      DATA   U_CHAR   00C2H  1
MAC_WUF. . . . . . . . . . . . . . . .  TYPEDEF  -----  STRUCT   -----  15
  Mode . . . . . . . . . . . . . . . .  MEMBER   -----  U_CHAR   0000H  1
C51 COMPILER V8.06   DMA                                                                   03/13/2026 10:21:42 PAGE 57  

NAME                                    CLASS   MSPACE  TYPE    OFFSET  SIZE
====                                    =====   ======  ====    ======  ====


  Offset0. . . . . . . . . . . . . . .  MEMBER   -----  U_CHAR   0001H  1
  Offset1. . . . . . . . . . . . . . .  MEMBER   -----  U_CHAR   0002H  1
  Mask0. . . . . . . . . . . . . . . .  MEMBER   -----  U_LONG   0003H  4
  Mask1. . . . . . . . . . . . . . . .  MEMBER   -----  U_LONG   0007H  4
  Pframe . . . . . . . . . . . . . . .  MEMBER   -----  PTR      000BH  3
  Length . . . . . . . . . . . . . . .  MEMBER   -----  U_CHAR   000EH  1
OV . . . . . . . . . . . . . . . . . .  ABSBIT   -----  BIT      00D2H  1
PBDP . . . . . . . . . . . . . . . . .  EXTERN   XDATA  PTR      -----  2
_DMA_GrantXdata. . . . . . . . . . . .  PUBLIC   CODE   PROC     0000H  -----
  pdest. . . . . . . . . . . . . . . .  AUTO     XDATA  PTR      0000H  2
  psour. . . . . . . . . . . . . . . .  AUTO     XDATA  PTR      0002H  2
  length . . . . . . . . . . . . . . .  AUTO     XDATA  U_INT    0004H  2
  temp . . . . . . . . . . . . . . . .  AUTO     XDATA  ARRAY    0006H  3
  ptempshort . . . . . . . . . . . . .  AUTO     XDATA  PTR      0009H  2
  dmatype. . . . . . . . . . . . . . .  AUTO     XDATA  U_CHAR   000BH  1
ulong. . . . . . . . . . . . . . . . .  TYPEDEF  -----  U_LONG   -----  4
WR . . . . . . . . . . . . . . . . . .  ABSBIT   -----  BIT      00B6H  1
UR2_THR. . . . . . . . . . . . . . . .  SFR      DATA   U_CHAR   00E1H  1
EWDI . . . . . . . . . . . . . . . . .  ABSBIT   -----  BIT      00EDH  1
WDIF . . . . . . . . . . . . . . . . .  ABSBIT   -----  BIT      00DBH  1
RLDH . . . . . . . . . . . . . . . . .  SFR      DATA   U_CHAR   00CBH  1
EPCR . . . . . . . . . . . . . . . . .  SFR      DATA   U_CHAR   00BEH  1
LDHR . . . . . . . . . . . . . . . . .  SFR      DATA   U_CHAR   00AAH  1
UR2_LSR. . . . . . . . . . . . . . . .  SFR      DATA   U_CHAR   00E6H  1
EPDR . . . . . . . . . . . . . . . . .  SFR      DATA   U_CHAR   00BFH  1
MCIR . . . . . . . . . . . . . . . . .  SFR      DATA   U_CHAR   00B6H  1
RCLK . . . . . . . . . . . . . . . . .  ABSBIT   -----  BIT      00CDH  1
UR2_MSR. . . . . . . . . . . . . . . .  SFR      DATA   U_CHAR   00E7H  1
bool . . . . . . . . . . . . . . . . .  TYPEDEF  -----  U_INT    -----  2
_MAC_WAKEUP_FRAME. . . . . . . . . . .  * TAG *  -----  STRUCT   -----  15
  Mode . . . . . . . . . . . . . . . .  MEMBER   -----  U_CHAR   0000H  1
  Offset0. . . . . . . . . . . . . . .  MEMBER   -----  U_CHAR   0001H  1
  Offset1. . . . . . . . . . . . . . .  MEMBER   -----  U_CHAR   0002H  1
  Mask0. . . . . . . . . . . . . . . .  MEMBER   -----  U_LONG   0003H  4
  Mask1. . . . . . . . . . . . . . . .  MEMBER   -----  U_LONG   0007H  4
  Pframe . . . . . . . . . . . . . . .  MEMBER   -----  PTR      000BH  3
  Length . . . . . . . . . . . . . . .  MEMBER   -----  U_CHAR   000EH  1
TCLK . . . . . . . . . . . . . . . . .  ABSBIT   -----  BIT      00CCH  1
RLDL . . . . . . . . . . . . . . . . .  SFR      DATA   U_CHAR   00CAH  1
LDLR . . . . . . . . . . . . . . . . .  SFR      DATA   U_CHAR   00A9H  1
PCON . . . . . . . . . . . . . . . . .  SFR      DATA   U_CHAR   0087H  1
_DMA_Grant . . . . . . . . . . . . . .  PUBLIC   CODE   PROC     0000H  -----
  pdest. . . . . . . . . . . . . . . .  AUTO     XDATA  PTR      0000H  3
  psour. . . . . . . . . . . . . . . .  AUTO     XDATA  PTR      0003H  3
  length . . . . . . . . . . . . . . .  AUTO     XDATA  U_INT    0006H  2
  sourtemp . . . . . . . . . . . . . .  AUTO     XDATA  ARRAY    0008H  4
  desttemp . . . . . . . . . . . . . .  AUTO     XDATA  ARRAY    000CH  4
  psourtemplong. . . . . . . . . . . .  AUTO     XDATA  PTR      0010H  2
  pdesttemplong. . . . . . . . . . . .  AUTO     XDATA  PTR      0012H  2
  ptempshort . . . . . . . . . . . . .  AUTO     XDATA  PTR      0014H  2
  dmatype. . . . . . . . . . . . . . .  AUTO     XDATA  U_CHAR   0016H  1
  ptemp. . . . . . . . . . . . . . . .  AUTO     XDATA  PTR      0017H  3
CANCIR . . . . . . . . . . . . . . . .  SFR      DATA   U_CHAR   00DEH  1
TCIR . . . . . . . . . . . . . . . . .  SFR      DATA   U_CHAR   00AEH  1
PWDI . . . . . . . . . . . . . . . . .  ABSBIT   -----  BIT      00FDH  1
LSCR . . . . . . . . . . . . . . . . .  SFR      DATA   U_CHAR   00A2H  1
TMOD . . . . . . . . . . . . . . . . .  SFR      DATA   U_CHAR   0089H  1
C51 COMPILER V8.06   DMA                                                                   03/13/2026 10:21:42 PAGE 58  

NAME                                    CLASS   MSPACE  TYPE    OFFSET  SIZE
====                                    =====   ======  ====    ======  ====


TCON . . . . . . . . . . . . . . . . .  SFR      DATA   U_CHAR   0088H  1
byte . . . . . . . . . . . . . . . . .  TYPEDEF  -----  U_CHAR   -----  1
_BUF_DESC_PAGE . . . . . . . . . . . .  * TAG *  -----  STRUCT   -----  190
  BDP_ID . . . . . . . . . . . . . . .  MEMBER   -----  U_CHAR   0000H  1
  Pad0 . . . . . . . . . . . . . . . .  MEMBER   -----  U_CHAR   0001H  1
  RSPP . . . . . . . . . . . . . . . .  MEMBER   -----  U_INT    0002H  2
  REPP . . . . . . . . . . . . . . . .  MEMBER   -----  U_INT    0004H  2
  RHPR . . . . . . . . . . . . . . . .  MEMBER   -----  U_INT    0006H  2
  RTPR . . . . . . . . . . . . . . . .  MEMBER   -----  U_INT    0008H  2
  RFP. . . . . . . . . . . . . . . . .  MEMBER   -----  U_CHAR   000AH  1
  Pad1 . . . . . . . . . . . . . . . .  MEMBER   -----  U_CHAR   000BH  1
  NetStation . . . . . . . . . . . . .  MEMBER   -----  STRUCT   000CH  36
  PhyInfo. . . . . . . . . . . . . . .  MEMBER   -----  STRUCT   0030H  2
  MacInfo. . . . . . . . . . . . . . .  MEMBER   -----  STRUCT   0032H  5
  RcvReserved. . . . . . . . . . . . .  MEMBER   -----  ARRAY    0037H  73
  TSPP . . . . . . . . . . . . . . . .  MEMBER   -----  U_INT    0080H  2
  TEPP . . . . . . . . . . . . . . . .  MEMBER   -----  U_INT    0082H  2
  THPR . . . . . . . . . . . . . . . .  MEMBER   -----  U_INT    0084H  2
  TTPR . . . . . . . . . . . . . . . .  MEMBER   -----  U_INT    0086H  2
  TFP. . . . . . . . . . . . . . . . .  MEMBER   -----  U_CHAR   0088H  1
  Pad2 . . . . . . . . . . . . . . . .  MEMBER   -----  U_CHAR   0089H  1
  VSPP . . . . . . . . . . . . . . . .  MEMBER   -----  U_INT    008AH  2
  RcvStartAddr . . . . . . . . . . . .  MEMBER   -----  PTR      008CH  2
  RcvEndAddr . . . . . . . . . . . . .  MEMBER   -----  PTR      008EH  2
  XmtStartAddr . . . . . . . . . . . .  MEMBER   -----  PTR      0090H  2
  XmtEndAddr . . . . . . . . . . . . .  MEMBER   -----  PTR      0092H  2
  STOE_TxInform. . . . . . . . . . . .  MEMBER   -----  STRUCT   0094H  21
  STOE_RxInform. . . . . . . . . . . .  MEMBER   -----  STRUCT   00A9H  21
OWDR . . . . . . . . . . . . . . . . .  SFR      DATA   U_CHAR   00D7H  1
word . . . . . . . . . . . . . . . . .  TYPEDEF  -----  U_INT    -----  2
IE0. . . . . . . . . . . . . . . . . .  ABSBIT   -----  BIT      0089H  1
IE1. . . . . . . . . . . . . . . . . .  ABSBIT   -----  BIT      008BH  1
MXAX . . . . . . . . . . . . . . . . .  SFR      DATA   U_CHAR   00EAH  1
LMSR . . . . . . . . . . . . . . . . .  SFR      DATA   U_CHAR   00A1H  1
sint . . . . . . . . . . . . . . . . .  TYPEDEF  -----  INT      -----  2
MD0. . . . . . . . . . . . . . . . . .  SFR      DATA   U_CHAR   00F9H  1
B. . . . . . . . . . . . . . . . . . .  SFR      DATA   U_CHAR   00F0H  1
uint . . . . . . . . . . . . . . . . .  TYPEDEF  -----  U_INT    -----  2
MD1. . . . . . . . . . . . . . . . . .  SFR      DATA   U_CHAR   00FAH  1
LSAIER . . . . . . . . . . . . . . . .  SFR      DATA   U_CHAR   00A1H  1
MD2. . . . . . . . . . . . . . . . . .  SFR      DATA   U_CHAR   00FBH  1
DMA_Start. . . . . . . . . . . . . . .  PUBLIC   CODE   PROC     0000H  -----
WTRF . . . . . . . . . . . . . . . . .  ABSBIT   -----  BIT      00DAH  1
MD3. . . . . . . . . . . . . . . . . .  SFR      DATA   U_CHAR   00FCH  1
PISSR1 . . . . . . . . . . . . . . . .  SFR      DATA   U_CHAR   009EH  1
MD4. . . . . . . . . . . . . . . . . .  SFR      DATA   U_CHAR   00FDH  1
LSSR . . . . . . . . . . . . . . . . .  SFR      DATA   U_CHAR   00A3H  1
PISSR2 . . . . . . . . . . . . . . . .  SFR      DATA   U_CHAR   009FH  1
_PACKET_INFORMATION. . . . . . . . . .  * TAG *  -----  STRUCT   -----  21
  PBuf . . . . . . . . . . . . . . . .  MEMBER   -----  PTR      0000H  2
  PIpHeader. . . . . . . . . . . . . .  MEMBER   -----  PTR      0002H  2
  PTUIHeader . . . . . . . . . . . . .  MEMBER   -----  PTR      0004H  2
  PData. . . . . . . . . . . . . . . .  MEMBER   -----  PTR      0006H  2
  TotalLen . . . . . . . . . . . . . .  MEMBER   -----  U_INT    0008H  2
  IpTotalLen . . . . . . . . . . . . .  MEMBER   -----  U_INT    000AH  2
  TUITotalLen. . . . . . . . . . . . .  MEMBER   -----  U_INT    000CH  2
  DataLen. . . . . . . . . . . . . . .  MEMBER   -----  U_INT    000EH  2
C51 COMPILER V8.06   DMA                                                                   03/13/2026 10:21:42 PAGE 59  

NAME                                    CLASS   MSPACE  TYPE    OFFSET  SIZE
====                                    =====   ======  ====    ======  ====


  Protocol . . . . . . . . . . . . . .  MEMBER   -----  U_CHAR   0010H  1
  IpHeaderLen. . . . . . . . . . . . .  MEMBER   -----  U_CHAR   0011H  1
  TcpHeaderLen . . . . . . . . . . . .  MEMBER   -----  U_CHAR   0012H  1
  SocketId . . . . . . . . . . . . . .  MEMBER   -----  U_CHAR   0013H  1
  Pages. . . . . . . . . . . . . . . .  MEMBER   -----  U_CHAR   0014H  1
MD5. . . . . . . . . . . . . . . . . .  SFR      DATA   U_CHAR   00FEH  1
ACC. . . . . . . . . . . . . . . . . .  SFR      DATA   U_CHAR   00E0H  1
ES0. . . . . . . . . . . . . . . . . .  ABSBIT   -----  BIT      00ACH  1
DMA_Init . . . . . . . . . . . . . . .  PUBLIC   CODE   PROC     0000H  -----
CT2. . . . . . . . . . . . . . . . . .  ABSBIT   -----  BIT      00C9H  1
ES1. . . . . . . . . . . . . . . . . .  ABSBIT   -----  BIT      00AEH  1
ET0. . . . . . . . . . . . . . . . . .  ABSBIT   -----  BIT      00A9H  1
ET1. . . . . . . . . . . . . . . . . .  ABSBIT   -----  BIT      00ABH  1
TF0. . . . . . . . . . . . . . . . . .  ABSBIT   -----  BIT      008DH  1
ET2. . . . . . . . . . . . . . . . . .  ABSBIT   -----  BIT      00ADH  1
RI0. . . . . . . . . . . . . . . . . .  ABSBIT   -----  BIT      0098H  1
TF1. . . . . . . . . . . . . . . . . .  ABSBIT   -----  BIT      008FH  1
TF2. . . . . . . . . . . . . . . . . .  ABSBIT   -----  BIT      00CFH  1
RI1. . . . . . . . . . . . . . . . . .  ABSBIT   -----  BIT      00C0H  1
SPICIR . . . . . . . . . . . . . . . .  SFR      DATA   U_CHAR   00CEH  1
TH0. . . . . . . . . . . . . . . . . .  SFR      DATA   U_CHAR   008CH  1
EX0. . . . . . . . . . . . . . . . . .  ABSBIT   -----  BIT      00A8H  1
TI0. . . . . . . . . . . . . . . . . .  ABSBIT   -----  BIT      0099H  1
IT0. . . . . . . . . . . . . . . . . .  ABSBIT   -----  BIT      0088H  1
TH1. . . . . . . . . . . . . . . . . .  SFR      DATA   U_CHAR   008DH  1
TI1. . . . . . . . . . . . . . . . . .  ABSBIT   -----  BIT      00C1H  1
EX1. . . . . . . . . . . . . . . . . .  ABSBIT   -----  BIT      00AAH  1
IT1. . . . . . . . . . . . . . . . . .  ABSBIT   -----  BIT      008AH  1
TH2. . . . . . . . . . . . . . . . . .  SFR      DATA   U_CHAR   00CDH  1
P. . . . . . . . . . . . . . . . . . .  ABSBIT   -----  BIT      00D0H  1
TL0. . . . . . . . . . . . . . . . . .  SFR      DATA   U_CHAR   008AH  1
_DMA_ReadReg . . . . . . . . . . . . .  PUBLIC   CODE   PROC     0000H  -----
  regaddr. . . . . . . . . . . . . . .  AUTO     XDATA  U_CHAR   0000H  1
  pbuf . . . . . . . . . . . . . . . .  AUTO     XDATA  PTR      0001H  2
  length . . . . . . . . . . . . . . .  AUTO     XDATA  U_CHAR   0003H  1
  isr. . . . . . . . . . . . . . . . .  AUTO     XDATA  U_CHAR   0004H  1
CSREPR . . . . . . . . . . . . . . . .  SFR      DATA   U_CHAR   008FH  1
TL1. . . . . . . . . . . . . . . . . .  SFR      DATA   U_CHAR   008BH  1
_LOCAL_STATION . . . . . . . . . . . .  * TAG *  -----  STRUCT   -----  36
  PermStaAddr. . . . . . . . . . . . .  MEMBER   -----  ARRAY    0000H  6
  CurrStaAddr. . . . . . . . . . . . .  MEMBER   -----  ARRAY    0006H  6
  StationIP. . . . . . . . . . . . . .  MEMBER   -----  U_LONG   000CH  4
  SubnetMask . . . . . . . . . . . . .  MEMBER   -----  U_LONG   0010H  4
  Gateway. . . . . . . . . . . . . . .  MEMBER   -----  U_LONG   0014H  4
  DefaultIP. . . . . . . . . . . . . .  MEMBER   -----  U_LONG   0018H  4
  DefaultMask. . . . . . . . . . . . .  MEMBER   -----  U_LONG   001CH  4
  DefaultGateway . . . . . . . . . . .  MEMBER   -----  U_LONG   0020H  4
TL2. . . . . . . . . . . . . . . . . .  SFR      DATA   U_CHAR   00CCH  1
PS0. . . . . . . . . . . . . . . . . .  ABSBIT   -----  BIT      00BCH  1
EIE. . . . . . . . . . . . . . . . . .  SFR      DATA   U_CHAR   00E8H  1
WTST . . . . . . . . . . . . . . . . .  SFR      DATA   U_CHAR   0092H  1
PS1. . . . . . . . . . . . . . . . . .  ABSBIT   -----  BIT      00BEH  1
PT0. . . . . . . . . . . . . . . . . .  ABSBIT   -----  BIT      00B9H  1
EIF. . . . . . . . . . . . . . . . . .  SFR      DATA   U_CHAR   0091H  1
RS0. . . . . . . . . . . . . . . . . .  ABSBIT   -----  BIT      00D3H  1
PT1. . . . . . . . . . . . . . . . . .  ABSBIT   -----  BIT      00BBH  1
I2CDR. . . . . . . . . . . . . . . . .  SFR      DATA   U_CHAR   0097H  1
C51 COMPILER V8.06   DMA                                                                   03/13/2026 10:21:42 PAGE 60  

NAME                                    CLASS   MSPACE  TYPE    OFFSET  SIZE
====                                    =====   ======  ====    ======  ====


RS1. . . . . . . . . . . . . . . . . .  ABSBIT   -----  BIT      00D4H  1
PT2. . . . . . . . . . . . . . . . . .  ABSBIT   -----  BIT      00BDH  1
TR0. . . . . . . . . . . . . . . . . .  ABSBIT   -----  BIT      008CH  1
TR1. . . . . . . . . . . . . . . . . .  ABSBIT   -----  BIT      008EH  1
TR2. . . . . . . . . . . . . . . . . .  ABSBIT   -----  BIT      00CAH  1
PX0. . . . . . . . . . . . . . . . . .  ABSBIT   -----  BIT      00B8H  1
PX1. . . . . . . . . . . . . . . . . .  ABSBIT   -----  BIT      00BAH  1
DDR. . . . . . . . . . . . . . . . . .  SFR      DATA   U_CHAR   009CH  1
DPH. . . . . . . . . . . . . . . . . .  SFR      DATA   U_CHAR   0083H  1
BUF_DESC_PAGE. . . . . . . . . . . . .  TYPEDEF  -----  STRUCT   -----  190
  BDP_ID . . . . . . . . . . . . . . .  MEMBER   -----  U_CHAR   0000H  1
  Pad0 . . . . . . . . . . . . . . . .  MEMBER   -----  U_CHAR   0001H  1
  RSPP . . . . . . . . . . . . . . . .  MEMBER   -----  U_INT    0002H  2
  REPP . . . . . . . . . . . . . . . .  MEMBER   -----  U_INT    0004H  2
  RHPR . . . . . . . . . . . . . . . .  MEMBER   -----  U_INT    0006H  2
  RTPR . . . . . . . . . . . . . . . .  MEMBER   -----  U_INT    0008H  2
  RFP. . . . . . . . . . . . . . . . .  MEMBER   -----  U_CHAR   000AH  1
  Pad1 . . . . . . . . . . . . . . . .  MEMBER   -----  U_CHAR   000BH  1
  NetStation . . . . . . . . . . . . .  MEMBER   -----  STRUCT   000CH  36
  PhyInfo. . . . . . . . . . . . . . .  MEMBER   -----  STRUCT   0030H  2
  MacInfo. . . . . . . . . . . . . . .  MEMBER   -----  STRUCT   0032H  5
  RcvReserved. . . . . . . . . . . . .  MEMBER   -----  ARRAY    0037H  73
  TSPP . . . . . . . . . . . . . . . .  MEMBER   -----  U_INT    0080H  2
  TEPP . . . . . . . . . . . . . . . .  MEMBER   -----  U_INT    0082H  2
  THPR . . . . . . . . . . . . . . . .  MEMBER   -----  U_INT    0084H  2
  TTPR . . . . . . . . . . . . . . . .  MEMBER   -----  U_INT    0086H  2
  TFP. . . . . . . . . . . . . . . . .  MEMBER   -----  U_CHAR   0088H  1
  Pad2 . . . . . . . . . . . . . . . .  MEMBER   -----  U_CHAR   0089H  1
  VSPP . . . . . . . . . . . . . . . .  MEMBER   -----  U_INT    008AH  2
  RcvStartAddr . . . . . . . . . . . .  MEMBER   -----  PTR      008CH  2
  RcvEndAddr . . . . . . . . . . . . .  MEMBER   -----  PTR      008EH  2
  XmtStartAddr . . . . . . . . . . . .  MEMBER   -----  PTR      0090H  2
  XmtEndAddr . . . . . . . . . . . . .  MEMBER   -----  PTR      0092H  2
  STOE_TxInform. . . . . . . . . . . .  MEMBER   -----  STRUCT   0094H  21
  STOE_RxInform. . . . . . . . . . . .  MEMBER   -----  STRUCT   00A9H  21
_MAC_INFORMATION . . . . . . . . . . .  * TAG *  -----  STRUCT   -----  5
  LinkSpeed. . . . . . . . . . . . . .  MEMBER   -----  U_CHAR   0000H  1
  FullDuplex . . . . . . . . . . . . .  MEMBER   -----  U_CHAR   0001H  1
  MediumLinkType . . . . . . . . . . .  MEMBER   -----  U_CHAR   0002H  1
  NetworkType. . . . . . . . . . . . .  MEMBER   -----  U_CHAR   0003H  1
  InterruptMask. . . . . . . . . . . .  MEMBER   -----  U_CHAR   0004H  1
EIP. . . . . . . . . . . . . . . . . .  SFR      DATA   U_CHAR   00F8H  1
MAC_INFO . . . . . . . . . . . . . . .  TYPEDEF  -----  STRUCT   -----  5
  LinkSpeed. . . . . . . . . . . . . .  MEMBER   -----  U_CHAR   0000H  1
  FullDuplex . . . . . . . . . . . . .  MEMBER   -----  U_CHAR   0001H  1
  MediumLinkType . . . . . . . . . . .  MEMBER   -----  U_CHAR   0002H  1
  NetworkType. . . . . . . . . . . . .  MEMBER   -----  U_CHAR   0003H  1
  InterruptMask. . . . . . . . . . . .  MEMBER   -----  U_CHAR   0004H  1
DPL. . . . . . . . . . . . . . . . . .  SFR      DATA   U_CHAR   0082H  1
_DMA_WriteReg. . . . . . . . . . . . .  PUBLIC   CODE   PROC     0000H  -----
  regaddr. . . . . . . . . . . . . . .  AUTO     XDATA  U_CHAR   0000H  1
  pbuf . . . . . . . . . . . . . . . .  AUTO     XDATA  PTR      0001H  2
  length . . . . . . . . . . . . . . .  AUTO     XDATA  U_CHAR   0003H  1
  isr. . . . . . . . . . . . . . . . .  AUTO     XDATA  U_CHAR   0004H  1
LCR. . . . . . . . . . . . . . . . . .  SFR      DATA   U_CHAR   00A2H  1
SBUF0. . . . . . . . . . . . . . . . .  SFR      DATA   U_CHAR   0099H  1
SBUF1. . . . . . . . . . . . . . . . .  SFR      DATA   U_CHAR   00C1H  1
C51 COMPILER V8.06   DMA                                                                   03/13/2026 10:21:42 PAGE 61  

NAME                                    CLASS   MSPACE  TYPE    OFFSET  SIZE
====                                    =====   ======  ====    ======  ====


EINT2. . . . . . . . . . . . . . . . .  ABSBIT   -----  BIT      00E8H  1
EXEN2. . . . . . . . . . . . . . . . .  ABSBIT   -----  BIT      00CBH  1
MDR. . . . . . . . . . . . . . . . . .  SFR      DATA   U_CHAR   00B7H  1
EINT3. . . . . . . . . . . . . . . . .  ABSBIT   -----  BIT      00E9H  1
CPRL2. . . . . . . . . . . . . . . . .  ABSBIT   -----  BIT      00C8H  1
SCON0. . . . . . . . . . . . . . . . .  SFR      DATA   U_CHAR   0098H  1
EINT4. . . . . . . . . . . . . . . . .  ABSBIT   -----  BIT      00EAH  1
SCON1. . . . . . . . . . . . . . . . .  SFR      DATA   U_CHAR   00C0H  1
SDSTSR . . . . . . . . . . . . . . . .  SFR      DATA   U_CHAR   0094H  1
PACKET_INFORMATION . . . . . . . . . .  TYPEDEF  -----  STRUCT   -----  21
  PBuf . . . . . . . . . . . . . . . .  MEMBER   -----  PTR      0000H  2
  PIpHeader. . . . . . . . . . . . . .  MEMBER   -----  PTR      0002H  2
  PTUIHeader . . . . . . . . . . . . .  MEMBER   -----  PTR      0004H  2
  PData. . . . . . . . . . . . . . . .  MEMBER   -----  PTR      0006H  2
  TotalLen . . . . . . . . . . . . . .  MEMBER   -----  U_INT    0008H  2
  IpTotalLen . . . . . . . . . . . . .  MEMBER   -----  U_INT    000AH  2
  TUITotalLen. . . . . . . . . . . . .  MEMBER   -----  U_INT    000CH  2
  DataLen. . . . . . . . . . . . . . .  MEMBER   -----  U_INT    000EH  2
  Protocol . . . . . . . . . . . . . .  MEMBER   -----  U_CHAR   0010H  1
  IpHeaderLen. . . . . . . . . . . . .  MEMBER   -----  U_CHAR   0011H  1
  TcpHeaderLen . . . . . . . . . . . .  MEMBER   -----  U_CHAR   0012H  1
  SocketId . . . . . . . . . . . . . .  MEMBER   -----  U_CHAR   0013H  1
  Pages. . . . . . . . . . . . . . . .  MEMBER   -----  U_CHAR   0014H  1
EINT5. . . . . . . . . . . . . . . . .  ABSBIT   -----  BIT      00EBH  1
STATUS . . . . . . . . . . . . . . . .  SFR      DATA   U_CHAR   00E9H  1
EINT6. . . . . . . . . . . . . . . . .  ABSBIT   -----  BIT      00ECH  1
T2CON. . . . . . . . . . . . . . . . .  SFR      DATA   U_CHAR   00C8H  1
DPS. . . . . . . . . . . . . . . . . .  SFR      DATA   U_CHAR   0086H  1
CANDR. . . . . . . . . . . . . . . . .  SFR      DATA   U_CHAR   00DFH  1
TDR. . . . . . . . . . . . . . . . . .  SFR      DATA   U_CHAR   00AFH  1
LDAHR. . . . . . . . . . . . . . . . .  SFR      DATA   U_CHAR   00A5H  1
DPX. . . . . . . . . . . . . . . . . .  SFR      DATA   U_CHAR   0093H  1
DMAHR. . . . . . . . . . . . . . . . .  SFR      DATA   U_CHAR   00ADH  1
PINT2. . . . . . . . . . . . . . . . .  ABSBIT   -----  BIT      00F8H  1
RXD. . . . . . . . . . . . . . . . . .  ABSBIT   -----  BIT      00B0H  1
PINT3. . . . . . . . . . . . . . . . .  ABSBIT   -----  BIT      00F9H  1
CKCON. . . . . . . . . . . . . . . . .  SFR      DATA   U_CHAR   008EH  1
PINT4. . . . . . . . . . . . . . . . .  ABSBIT   -----  BIT      00FAH  1
EWT. . . . . . . . . . . . . . . . . .  ABSBIT   -----  BIT      00D9H  1
TXD. . . . . . . . . . . . . . . . . .  ABSBIT   -----  BIT      00B1H  1
LDALR. . . . . . . . . . . . . . . . .  SFR      DATA   U_CHAR   00A4H  1
PINT5. . . . . . . . . . . . . . . . .  ABSBIT   -----  BIT      00FBH  1
DMALR. . . . . . . . . . . . . . . . .  SFR      DATA   U_CHAR   00ABH  1
LSR. . . . . . . . . . . . . . . . . .  SFR      DATA   U_CHAR   00A3H  1
LOCAL_STATION. . . . . . . . . . . . .  TYPEDEF  -----  STRUCT   -----  36
  PermStaAddr. . . . . . . . . . . . .  MEMBER   -----  ARRAY    0000H  6
  CurrStaAddr. . . . . . . . . . . . .  MEMBER   -----  ARRAY    0006H  6
  StationIP. . . . . . . . . . . . . .  MEMBER   -----  U_LONG   000CH  4
  SubnetMask . . . . . . . . . . . . .  MEMBER   -----  U_LONG   0010H  4
  Gateway. . . . . . . . . . . . . . .  MEMBER   -----  U_LONG   0014H  4
  DefaultIP. . . . . . . . . . . . . .  MEMBER   -----  U_LONG   0018H  4
  DefaultMask. . . . . . . . . . . . .  MEMBER   -----  U_LONG   001CH  4
  DefaultGateway . . . . . . . . . . .  MEMBER   -----  U_LONG   0020H  4
PINT6. . . . . . . . . . . . . . . . .  ABSBIT   -----  BIT      00FCH  1
DMAMR. . . . . . . . . . . . . . . . .  SFR      DATA   U_CHAR   00ACH  1
ARCON. . . . . . . . . . . . . . . . .  SFR      DATA   U_CHAR   00FFH  1
_STOE_FRAME_HEADER . . . . . . . . . .  * TAG *  -----  STRUCT   -----  7
C51 COMPILER V8.06   DMA                                                                   03/13/2026 10:21:42 PAGE 62  

NAME                                    CLASS   MSPACE  TYPE    OFFSET  SIZE
====                                    =====   ======  ====    ======  ====


  NPR. . . . . . . . . . . . . . . . .  MEMBER   -----  U_INT    0000H  2
  Length . . . . . . . . . . . . . . .  MEMBER   -----  U_INT    0002H  2
  Protocol . . . . . . . . . . . . . .  MEMBER   -----  U_CHAR   0004H  1
  DataOffset . . . . . . . . . . . . .  MEMBER   -----  U_CHAR   0005H  1
  Packet . . . . . . . . . . . . . . .  MEMBER   -----  U_CHAR   0006H  1
F0 . . . . . . . . . . . . . . . . . .  ABSBIT   -----  BIT      00D5H  1
F1 . . . . . . . . . . . . . . . . . .  ABSBIT   -----  BIT      00D1H  1
LDCSR. . . . . . . . . . . . . . . . .  SFR      DATA   U_CHAR   00A6H  1
PSW. . . . . . . . . . . . . . . . . .  SFR      DATA   U_CHAR   00D0H  1
RB08 . . . . . . . . . . . . . . . . .  ABSBIT   -----  BIT      009AH  1
WDCON. . . . . . . . . . . . . . . . .  SFR      DATA   U_CHAR   00D8H  1
dma_CheckStatus. . . . . . . . . . . .  PUBLIC   CODE   PROC     0000H  -----
  temp . . . . . . . . . . . . . . . .  AUTO     XDATA  U_CHAR   0000H  1
_PHY_INFORMATION . . . . . . . . . . .  * TAG *  -----  STRUCT   -----  2
  PhyAddr. . . . . . . . . . . . . . .  MEMBER   -----  U_CHAR   0000H  1
  PhyType. . . . . . . . . . . . . . .  MEMBER   -----  U_CHAR   0001H  1
RWT. . . . . . . . . . . . . . . . . .  ABSBIT   -----  BIT      00D8H  1
RB18 . . . . . . . . . . . . . . . . .  ABSBIT   -----  BIT      00C2H  1


MODULE INFORMATION:   STATIC OVERLAYABLE
   CODE SIZE        =   1706    ----
   CONSTANT SIZE    =   ----    ----
   XDATA SIZE       =     49    ----
   PDATA SIZE       =   ----    ----
   DATA SIZE        =   ----    ----
   IDATA SIZE       =   ----    ----
   BIT SIZE         =   ----    ----
   EDATA SIZE       =   ----    ----
   HDATA SIZE       =   ----    ----
   XDATA CONST SIZE =   ----    ----
   FAR CONST SIZE   =   ----    ----
END OF MODULE INFORMATION.


C51 COMPILATION COMPLETE.  0 WARNING(S),  0 ERROR(S)
